 PhysXCommon_64

 Timestamp is 6a3551a0 (Fri Jun 19 16:26:40 2026)

 Preferred load address is 0000000180000000

 Start         Length     Name                   Class
 0001:00000000 00003770H .text$di                CODE
 0001:00003770 001d13b0H .text$mn                CODE
 0001:001d4b20 00000036H .text$mn$00             CODE
 0001:001d4b56 0000009aH .text$x                 CODE
 0001:001d4bf0 0000000fH .text$yd                CODE
 0002:00000000 000001c0H .idata$5                DATA
 0002:000001c0 00000038H .00cfg                  DATA
 0002:000001f8 00000008H .CRT$XCA                DATA
 0002:00000200 00001af0H .CRT$XCU                DATA
 0002:00001cf0 00000008H .CRT$XCZ                DATA
 0002:00001cf8 00000008H .CRT$XIA                DATA
 0002:00001d00 00000008H .CRT$XIZ                DATA
 0002:00001d08 00000008H .CRT$XPA                DATA
 0002:00001d10 00000008H .CRT$XPZ                DATA
 0002:00001d18 00000008H .CRT$XTA                DATA
 0002:00001d20 00000010H .CRT$XTZ                DATA
 0002:00001d28 00000000H .gehcont$y              DATA
 0002:00001d28 00000000H .gfids$y                DATA
 0002:00001d30 00006a50H .rdata                  DATA
 0002:00008780 00000000H .rdata$CastGuardVftablesA DATA
 0002:00008780 00000000H .rdata$CastGuardVftablesC DATA
 0002:00008780 00000074H .rdata$r                DATA
 0002:000087f4 00000168H .rdata$voltmd           DATA
 0002:0000895c 000003d4H .rdata$zzzdbg           DATA
 0002:00008d30 00000008H .rtc$IAA                DATA
 0002:00008d38 00000008H .rtc$IZZ                DATA
 0002:00008d40 00000008H .rtc$TAA                DATA
 0002:00008d48 00000008H .rtc$TZZ                DATA
 0002:00008d50 00015660H .xdata                  DATA
 0002:0001e3b0 00000020H .didat$2                DATA
 0002:0001e3d0 00000020H .didat$3                DATA
 0002:0001e3f0 000000c8H .didat$4                DATA
 0002:0001e4b8 00000418H .didat$6                DATA
 0002:0001e8d0 000001e0H .didat$7                DATA
 0002:0001eab0 0000c638H .edata                  DATA
 0002:0002b0e8 00000078H .idata$2                DATA
 0002:0002b160 00000018H .idata$3                DATA
 0002:0002b178 000001c0H .idata$4                DATA
 0002:0002b338 00000446H .idata$6                DATA
 0003:00000000 000012e0H .data                   DATA
 0003:000012e0 00001228H .data$r                 DATA
 0003:00002508 00000020H .data$rs                DATA
 0003:00002528 000000c8H .didat$5                DATA
 0003:000025f0 00003718H .bss                    DATA
 0004:00000000 0000b9d0H .pdata                  DATA
 0005:00000000 00002208H _RDATA                  DATA
 0006:00000000 000000a0H .rsrc$01                DATA
 0006:000000a0 000004b0H .rsrc$02                DATA

  Address         Publics by Value              Rva+Base               Lib:Object

 0000:00000000       __AbsoluteZero             0000000000000000     <absolute>
 0000:00000000       ___safe_se_handler_count   0000000000000000     <absolute>
 0000:00000000       ___safe_se_handler_table   0000000000000000     <absolute>
 0000:00000000       __arm64x_extra_rfe_table   0000000000000000     <absolute>
 0000:00000000       __arm64x_extra_rfe_table_size 0000000000000000     <absolute>
 0000:00000000       __arm64x_native_entrypoint 0000000000000000     <absolute>
 0000:00000000       __arm64x_redirection_metadata 0000000000000000     <absolute>
 0000:00000000       __arm64x_redirection_metadata_count 0000000000000000     <absolute>
 0000:00000000       __dynamic_value_reloc_table 0000000000000000     <absolute>
 0000:00000000       __enclave_config           0000000000000000     <absolute>
 0000:00000000       __guard_check_icall_a64n_fptr 0000000000000000     <absolute>
 0000:00000000       __guard_eh_cont_count      0000000000000000     <absolute>
 0000:00000000       __guard_eh_cont_table      0000000000000000     <absolute>
 0000:00000000       __guard_fids_count         0000000000000000     <absolute>
 0000:00000000       __guard_fids_table         0000000000000000     <absolute>
 0000:00000000       __guard_iat_count          0000000000000000     <absolute>
 0000:00000000       __guard_iat_table          0000000000000000     <absolute>
 0000:00000000       __guard_longjmp_count      0000000000000000     <absolute>
 0000:00000000       __guard_longjmp_table      0000000000000000     <absolute>
 0000:00000000       __hybrid_auxiliary_delayload_iat 0000000000000000     <absolute>
 0000:00000000       __hybrid_auxiliary_delayload_iat_copy 0000000000000000     <absolute>
 0000:00000000       __hybrid_auxiliary_iat     0000000000000000     <absolute>
 0000:00000000       __hybrid_auxiliary_iat_copy 0000000000000000     <absolute>
 0000:00000000       __hybrid_code_map          0000000000000000     <absolute>
 0000:00000000       __hybrid_code_map_count    0000000000000000     <absolute>
 0000:00000000       __hybrid_image_info_bitfield 0000000000000000     <absolute>
 0000:00000000       __x64_code_ranges_to_entry_points 0000000000000000     <absolute>
 0000:00000000       __x64_code_ranges_to_entry_points_count 0000000000000000     <absolute>
 0000:00000100       __guard_flags              0000000000000100     <absolute>
 0000:00000000       __ImageBase                0000000180000000     <linker-defined>
 0001:00003770       ??0PtrTable@Cm@physx@@QEAA@W4PxEMPTY@2@@Z 0000000180004770 f i CmPtrTable.obj
 0001:00003790       ??0PtrTable@Cm@physx@@QEAA@XZ 0000000180004790 f   CmPtrTable.obj
 0001:000037a0       ??1AABBTreeBuildNode@Gu@physx@@QEAA@XZ 00000001800047a0 f   GuMeshFactory.obj
 0001:000037a0       ??1BigConvexDataBuilder@physx@@QEAA@XZ 00000001800047a0 f   GuCookingBigConvexDataBuilder.obj
 0001:000037a0       ??1Box@Gu@physx@@QEAA@XZ   00000001800047a0 f   GuBox.obj
 0001:000037a0       ??1HeightFieldData@Gu@physx@@QEAA@XZ 00000001800047a0 f   GuCCTSweepTests.obj
 0001:000037a0       ??1PtrTable@Cm@physx@@QEAA@XZ 00000001800047a0 f   CmPtrTable.obj
 0001:000037a0       ?build@CompanionPrunerIncremental@@UEAAXXZ 00000001800047a0 f   GuSecondaryPruner.obj
 0001:000037a0       ?checkTreeLeaf@IncrementalAABBTree@Gu@physx@@QEAAXPEAVIncrementalAABBTreeNode@23@I@Z 00000001800047a0 f   GuIncrementalAABBTree.obj
 0001:000037a0       ?execute@?$PxThreadT@V?$PxReflectionAllocator@VPxThreadImpl@physx@@@physx@@@physx@@UEAAXXZ 00000001800047a0 f   GuSDF.obj
 0001:000037a0       ?execute@PxRunnable@physx@@UEAAXXZ 00000001800047a0 f   GuSDF.obj
 0001:000037a0       ?merge@BucketPruner@Gu@physx@@UEAAXPEBX@Z 00000001800047a0 f   GuBucketPruner.obj
 0001:000037a0       ?merge@IncrementalAABBPruner@Gu@physx@@UEAAXPEBX@Z 00000001800047a0 f   GuIncrementalAABBPruner.obj
 0001:000037a0       ?onMeshIndexFormatChange@TriangleMeshBuilder@physx@@UEAAXXZ 00000001800047a0 f   GuCookingTriangleMesh.obj
 0001:000037a0       ?profile@Callback@RTree@Gu@physx@@UEAAXXZ 00000001800047a0 f   GuMidphaseRTree.obj
 0001:000037a0       ?purge@BucketPruner@Gu@physx@@UEAAXXZ 00000001800047a0 f   GuBucketPruner.obj
 0001:000037a0       ?requiresObjects@ConvexMesh@Gu@physx@@UEAAXAEAVPxProcessPxBaseCallback@3@@Z 00000001800047a0 f   GuConvexMesh.obj
 0001:000037a0       ?requiresObjects@DeformableVolumeMesh@Gu@physx@@UEAAXAEAVPxProcessPxBaseCallback@3@@Z 00000001800047a0 f   GuTetrahedronMesh.obj
 0001:000037a0       ?requiresObjects@HeightField@Gu@physx@@UEAAXAEAVPxProcessPxBaseCallback@3@@Z 00000001800047a0 f   GuHeightField.obj
 0001:000037a0       ?requiresObjects@TriangleMesh@Gu@physx@@UEAAXAEAVPxProcessPxBaseCallback@3@@Z 00000001800047a0 f   GuTriangleMesh.obj
 0001:000037a0       ?swapIndex@CompanionPrunerAABBTree@@UEAAXII@Z 00000001800047a0 f   GuSecondaryPruner.obj
 0001:000037a0       ?swapIndex@CompanionPrunerBucket@@UEAAXII@Z 00000001800047a0 f   GuSecondaryPruner.obj
 0001:000037a0       ?timeStampChange@CompanionPrunerAABBTree@@UEAAXXZ 00000001800047a0 f   GuSecondaryPruner.obj
 0001:000037a0       ?timeStampChange@CompanionPrunerBucket@@UEAAXXZ 00000001800047a0 f   GuSecondaryPruner.obj
 0001:000037a0       ?visualize@BasePruner@Gu@physx@@UEBAXAEAVPxRenderOutput@3@II@Z 00000001800047a0 f   GuIncrementalAABBPruner.obj
 0001:000037a0       _guard_check_icall_nop     00000001800047a0 f   MSVCRT:guard_support.obj
 0001:000037b0       ??4AABBTreeBounds@Gu@physx@@QEAAAEAV012@AEBV012@@Z 00000001800047b0 f i GuMeshFactory.obj
 0001:000037b0       ??4CmModuleUpdateLoader@Cm@physx@@QEAAAEAV012@AEBV012@@Z 00000001800047b0 f i CmWindowsModuleUpdateLoader.obj
 0001:000037b0       ??4PtrTable@Cm@physx@@QEAAAEAU012@AEBU012@@Z 00000001800047b0 f i CmPtrTable.obj
 0001:000037c0       ?add@PtrTable@Cm@physx@@QEAAXPEAXAEAVPtrTableStorageManager@23@@Z 00000001800047c0 f   CmPtrTable.obj
 0001:00003880       ?clear@PtrTable@Cm@physx@@QEAAXAEAVPtrTableStorageManager@23@@Z 0000000180004880 f   CmPtrTable.obj
 0001:000038f0       ?exportExtraData@PtrTable@Cm@physx@@QEAAXAEAVPxSerializationContext@3@@Z 00000001800048f0 f   CmPtrTable.obj
 0001:00003940       ?find@PtrTable@Cm@physx@@QEBAIPEBX@Z 0000000180004940 f   CmPtrTable.obj
 0001:00003970       ?getCount@PtrTable@Cm@physx@@QEBAIXZ 0000000180004970 f i CmPtrTable.obj
 0001:00003980       ?getPtrs@PtrTable@Cm@physx@@QEAAPEAPEAXXZ 0000000180004980 f i CmPtrTable.obj
 0001:00003980       ?getPtrs@PtrTable@Cm@physx@@QEBAPEBQEAXXZ 0000000180004980 f i CmPtrTable.obj
 0001:00003990       ?importExtraData@PtrTable@Cm@physx@@QEAAXAEAVPxDeserializationContext@3@@Z 0000000180004990 f   CmPtrTable.obj
 0001:000039c0       ?realloc@PtrTable@Cm@physx@@AEAAXIIAEAVPtrTableStorageManager@23@@Z 00000001800049c0 f   CmPtrTable.obj
 0001:00003a70       ?replaceWithLast@PtrTable@Cm@physx@@QEAAXIAEAVPtrTableStorageManager@23@@Z 0000000180004a70 f   CmPtrTable.obj
 0001:00003b70       ??_ECollection@Cm@physx@@UEAAPEAXI@Z 0000000180004b70 f i CmCollection.obj
 0001:00003b70       ??_GCollection@Cm@physx@@UEAAPEAXI@Z 0000000180004b70 f i CmCollection.obj
 0001:00003c20       ??_EPxCollection@physx@@MEAAPEAXI@Z 0000000180004c20 f i CmCollection.obj
 0001:00003c20       ??_GPxCollection@physx@@MEAAPEAXI@Z 0000000180004c20 f i CmCollection.obj
 0001:00003c50       ?add@Collection@Cm@physx@@UEAAXAEAVPxBase@3@_K@Z 0000000180004c50 f   CmCollection.obj
 0001:00003d40       ?add@Collection@Cm@physx@@UEAAXAEAVPxCollection@3@@Z 0000000180004d40 f   CmCollection.obj
 0001:00003ee0       ?addId@Collection@Cm@physx@@UEAAXAEAVPxBase@3@_K@Z 0000000180004ee0 f   CmCollection.obj
 0001:00004010       ?contains@Collection@Cm@physx@@UEBA_NAEAVPxBase@3@@Z 0000000180005010 f   CmCollection.obj
 0001:000040c0       ?create@?$PxHashBase@V?$PxPair@$$CB_KPEAVPxBase@physx@@@physx@@_KU?$PxHash@_K@2@UGetKey@?$PxHashMapBase@_KPEAVPxBase@physx@@U?$PxHash@_K@2@VPxAllocator@2@@2@VPxAllocator@2@$00@physx@@QEAAPEAV?$PxPair@$$CB_KPEAVPxBase@physx@@@2@AEB_KAEA_N@Z 00000001800050c0 f i CmCollection.obj
 0001:000040c0       ?create@?$PxHashBase@V?$PxPair@QEAVPxBase@physx@@_K@physx@@PEAVPxBase@2@U?$PxHash@PEAVPxBase@physx@@@2@UGetKey@?$PxHashMapBase@PEAVPxBase@physx@@_KU?$PxHash@PEAVPxBase@physx@@@2@VPxAllocator@2@@2@VPxAllocator@2@$00@physx@@QEAAPEAV?$PxPair@QEAVPxBase@physx@@_K@2@AEBQEAVPxBase@2@AEA_N@Z 00000001800050c0 f i CmCollection.obj
 0001:00004250       ?erase@?$PxHashBase@V?$PxPair@$$CB_KPEAVPxBase@physx@@@physx@@_KU?$PxHash@_K@2@UGetKey@?$PxHashMapBase@_KPEAVPxBase@physx@@U?$PxHash@_K@2@VPxAllocator@2@@2@VPxAllocator@2@$00@physx@@QEAA_NAEB_K@Z 0000000180005250 f i CmCollection.obj
 0001:00004250       ?erase@?$PxHashBase@V?$PxPair@QEAVPxBase@physx@@_K@physx@@PEAVPxBase@2@U?$PxHash@PEAVPxBase@physx@@@2@UGetKey@?$PxHashMapBase@PEAVPxBase@physx@@_KU?$PxHash@PEAVPxBase@physx@@@2@VPxAllocator@2@@2@VPxAllocator@2@$00@physx@@QEAA_NAEBQEAVPxBase@2@@Z 0000000180005250 f i CmCollection.obj
 0001:00004400       ?find@?$PxHashMapBase@_KPEAVPxBase@physx@@U?$PxHash@_K@2@VPxAllocator@2@@physx@@QEBAPEBV?$PxPair@$$CB_KPEAVPxBase@physx@@@2@AEB_K@Z 0000000180005400 f i CmCollection.obj
 0001:000044a0       ?find@Collection@Cm@physx@@UEBAPEAVPxBase@3@_K@Z 00000001800054a0 f   CmCollection.obj
 0001:000044d0       ?getId@Collection@Cm@physx@@UEBA_KAEBVPxBase@3@@Z 00000001800054d0 f   CmCollection.obj
 0001:00004580       ?getIds@Collection@Cm@physx@@UEBAIPEA_KII@Z 0000000180005580 f   CmCollection.obj
 0001:00004650       ?getNbIds@Collection@Cm@physx@@UEBAIXZ 0000000180005650 f   CmCollection.obj
 0001:00004660       ?getNbObjects@Collection@Cm@physx@@UEBAIXZ 0000000180005660 f   CmCollection.obj
 0001:00004670       ?getObject@Collection@Cm@physx@@UEBAAEAVPxBase@3@I@Z 0000000180005670 f   CmCollection.obj
 0001:00004680       ?getObjects@Collection@Cm@physx@@UEBAIPEAPEAVPxBase@3@II@Z 0000000180005680 f   CmCollection.obj
 0001:000046c0       ?release@Collection@Cm@physx@@UEAAXXZ 00000001800056c0 f i CmCollection.obj
 0001:000046e0       ?remove@Collection@Cm@physx@@UEAAXAEAVPxBase@3@@Z 00000001800056e0 f   CmCollection.obj
 0001:000047d0       ?remove@Collection@Cm@physx@@UEAAXAEAVPxCollection@3@@Z 00000001800057d0 f   CmCollection.obj
 0001:000048e0       ?removeId@Collection@Cm@physx@@UEAAX_K@Z 00000001800058e0 f   CmCollection.obj
 0001:00004960       ?reserveInternal@?$PxHashBase@V?$PxPair@$$CB_KPEAVPxBase@physx@@@physx@@_KU?$PxHash@_K@2@UGetKey@?$PxHashMapBase@_KPEAVPxBase@physx@@U?$PxHash@_K@2@VPxAllocator@2@@2@VPxAllocator@2@$00@physx@@AEAAXI@Z 0000000180005960 f i CmCollection.obj
 0001:00004960       ?reserveInternal@?$PxHashBase@V?$PxPair@QEAVPxBase@physx@@_K@physx@@PEAVPxBase@2@U?$PxHash@PEAVPxBase@physx@@@2@UGetKey@?$PxHashMapBase@PEAVPxBase@physx@@_KU?$PxHash@PEAVPxBase@physx@@@2@VPxAllocator@2@@2@VPxAllocator@2@$00@physx@@AEAAXI@Z 0000000180005960 f i CmCollection.obj
 0001:00004b50       PxCreateCollection         0000000180005b50 f   CmCollection.obj
 0001:00004c40       ??0RadixSort@Cm@physx@@QEAA@XZ 0000000180005c40 f   CmRadixSort.obj
 0001:00004c70       ??0RadixSortBuffered@Cm@physx@@QEAA@XZ 0000000180005c70 f   CmRadixSort.obj
 0001:00004ca0       ??1RadixSort@Cm@physx@@UEAA@XZ 0000000180005ca0 f   CmRadixSort.obj
 0001:00004cb0       ??1RadixSortBuffered@Cm@physx@@UEAA@XZ 0000000180005cb0 f   CmRadixSort.obj
 0001:00004ce0       ??_ERadixSort@Cm@physx@@UEAAPEAXI@Z 0000000180005ce0 f i CmRadixSort.obj
 0001:00004d70       ??_ERadixSortBuffered@Cm@physx@@UEAAPEAXI@Z 0000000180005d70 f i CmRadixSort.obj
 0001:00004e60       ?CheckResize@RadixSortBuffered@Cm@physx@@AEAAXI@Z 0000000180005e60 f i CmRadixSort.obj
 0001:00004ea0       ?GetNbHits@RadixSort@Cm@physx@@QEBAIXZ 0000000180005ea0 f i CmRadixSort.obj
 0001:00004eb0       ?GetNbTotalCalls@RadixSort@Cm@physx@@QEBAIXZ 0000000180005eb0 f i CmRadixSort.obj
 0001:00004ec0       ?GetRanks@RadixSort@Cm@physx@@QEBAPEBIXZ 0000000180005ec0 f i CmRadixSort.obj
 0001:00004ec0       ?getGridModelInvMass@DeformableVolumeAuxData@Gu@physx@@UEAAPEAMXZ 0000000180005ec0 f i GuTetrahedronMesh.obj
 0001:00004ec0       ?getHeightField@HeightFieldUtil@Gu@physx@@QEBAAEBVHeightField@23@XZ 0000000180005ec0 f i GuCCTSweepTests.obj
 0001:00004ec0       ?getSimulationMesh@DeformableVolumeMesh@Gu@physx@@UEAAPEAVPxTetrahedronMesh@3@XZ 0000000180005ec0 f i GuTetrahedronMesh.obj
 0001:00004ec0       ?getSimulationMesh@DeformableVolumeMesh@Gu@physx@@UEBAPEBVPxTetrahedronMesh@3@XZ 0000000180005ec0 f i GuTetrahedronMesh.obj
 0001:00004ed0       ?GetRecyclable@RadixSort@Cm@physx@@QEBAPEAIXZ 0000000180005ed0 f i CmRadixSort.obj
 0001:00004ed0       ?GetValencies@BigConvexData@physx@@QEBAPEBUValency@Gu@2@XZ 0000000180005ed0 f i GuBigConvexData.obj
 0001:00004ed0       ?getCollisionMesh@DeformableVolumeMesh@Gu@physx@@UEAAPEAVPxTetrahedronMesh@3@XZ 0000000180005ed0 f i GuTetrahedronMesh.obj
 0001:00004ed0       ?getCollisionMesh@DeformableVolumeMesh@Gu@physx@@UEBAPEBVPxTetrahedronMesh@3@XZ 0000000180005ed0 f i GuTetrahedronMesh.obj
 0001:00004ed0       ?getHeightFieldGeometry@HeightFieldUtil@Gu@physx@@QEBAAEBVPxHeightFieldGeometry@3@XZ 0000000180005ed0 f i GuCCTSweepTests.obj
 0001:00004ed0       ?getObjects@PruningPool@Gu@physx@@QEBAPEAUPrunerPayload@23@XZ 0000000180005ed0 f i GuIncrementalAABBPrunerCore.obj
 0001:00004ed0       ?getPos@AABBTreeBuildNode@Gu@physx@@QEBAPEBV123@XZ 0000000180005ed0 f i GuMeshFactory.obj
 0001:00004ed0       ?getVertices@TetrahedronMesh@Gu@physx@@UEBAPEBV?$PxVec3T@M@3@XZ 0000000180005ed0 f i GuTetrahedronMesh.obj
 0001:00004ed0       ?getVertices@TriangleMesh@Gu@physx@@UEBAPEBV?$PxVec3T@M@3@XZ 0000000180005ed0 f i GuTriangleMesh.obj
 0001:00004ee0       ?Resize@RadixSortBuffered@Cm@physx@@AEAA_NI@Z 0000000180005ee0 f   CmRadixSort.obj
 0001:00004fe0       ?SetBuffers@RadixSort@Cm@physx@@QEAA_NPEAI00PEAPEAI@Z 0000000180005fe0 f   CmRadixSort.obj
 0001:00005020       ?Sort@RadixSort@Cm@physx@@QEAAAEAV123@PEBIIW4RadixHint@23@@Z 0000000180006020 f   CmRadixSort.obj
 0001:000056d0       ?Sort@RadixSort@Cm@physx@@QEAAAEAV123@PEBMI@Z 00000001800066d0 f   CmRadixSort.obj
 0001:00005e60       ?Sort@RadixSortBuffered@Cm@physx@@QEAAAEAV123@PEBIIW4RadixHint@23@@Z 0000000180006e60 f   CmRadixSort.obj
 0001:00005f00       ?Sort@RadixSortBuffered@Cm@physx@@QEAAAEAV123@PEBMI@Z 0000000180006f00 f   CmRadixSort.obj
 0001:00005f90       ?invalidateRanks@RadixSort@Cm@physx@@QEAAXXZ 0000000180006f90 f i CmRadixSort.obj
 0001:00005fa0       ?reset@RadixSortBuffered@Cm@physx@@QEAAXXZ 0000000180006fa0 f   CmRadixSort.obj
 0001:00006020       ?ReadHeader@Cm@physx@@YA_NEEEEAEAIAEA_NAEAVPxInputStream@2@@Z 0000000180007020 f   CmSerialize.obj
 0001:00006180       ?ReadIndices@Cm@physx@@YAXGIPEAGAEAVPxInputStream@2@_N@Z 0000000180007180 f   CmSerialize.obj
 0001:00006310       ?StoreIndices@Cm@physx@@YAXGIPEBGAEAVPxOutputStream@2@_N@Z 0000000180007310 f   CmSerialize.obj
 0001:00006400       ?WriteHeader@Cm@physx@@YA_NEEEEI_NAEAVPxOutputStream@2@@Z 0000000180007400 f   CmSerialize.obj
 0001:00006530       ?computeMaxIndex@physx@@YAGPEBGI@Z 0000000180007530 f   CmSerialize.obj
 0001:00006560       ?computeMaxIndex@physx@@YAIPEBII@Z 0000000180007560 f   CmSerialize.obj
 0001:00006590       ?readByteBuffer@physx@@YAXPEAEIAEAVPxInputStream@1@@Z 0000000180007590 f   CmSerialize.obj
 0001:00006590       ?writeByteBuffer@physx@@YAXPEBEIAEAVPxOutputStream@1@@Z 0000000180007590 f   CmSerialize.obj
 0001:000065b0       ?readChunk@physx@@YAXAEAC000AEAVPxInputStream@1@@Z 00000001800075b0 f   CmSerialize.obj
 0001:00006630       ?readDword@physx@@YAI_NAEAVPxInputStream@1@@Z 0000000180007630 f   CmSerialize.obj
 0001:00006690       ?readFloat@physx@@YAM_NAEAVPxInputStream@1@@Z 0000000180007690 f   CmSerialize.obj
 0001:000066f0       ?readFloatBuffer@physx@@YA_NPEAMI_NAEAVPxInputStream@1@@Z 00000001800076f0 f   CmSerialize.obj
 0001:00006770       ?readHeader@physx@@YA_NCCCCAEAIAEA_NAEAVPxInputStream@1@@Z 0000000180007770 f   CmSerialize.obj
 0001:000068c0       ?readIndices@physx@@YAXIIPEAIAEAVPxInputStream@1@_N@Z 00000001800078c0 f   CmSerialize.obj
 0001:000069f0       ?readWord@physx@@YAG_NAEAVPxInputStream@1@@Z 00000001800079f0 f   CmSerialize.obj
 0001:00006a30       ?readWordBuffer@physx@@YAXPEAGI_NAEAVPxInputStream@1@@Z 0000000180007a30 f   CmSerialize.obj
 0001:00006aa0       ?storeIndices@physx@@YAXIIPEBIAEAVPxOutputStream@1@_N@Z 0000000180007aa0 f   CmSerialize.obj
 0001:00006c30       ?writeDword@physx@@YAXI_NAEAVPxOutputStream@1@@Z 0000000180007c30 f   CmSerialize.obj
 0001:00006c80       ?writeFloat@physx@@YAXM_NAEAVPxOutputStream@1@@Z 0000000180007c80 f   CmSerialize.obj
 0001:00006cd0       ?writeFloatBuffer@physx@@YAXPEBMI_NAEAVPxOutputStream@1@@Z 0000000180007cd0 f   CmSerialize.obj
 0001:00006d70       ?writeHeader@physx@@YA_NCCCCI_NAEAVPxOutputStream@1@@Z 0000000180007d70 f   CmSerialize.obj
 0001:00006ea0       ?writeWord@physx@@YAXG_NAEAVPxOutputStream@1@@Z 0000000180007ea0 f   CmSerialize.obj
 0001:00006ee0       ?writeWordBuffer@physx@@YAXPEBGI_NAEAVPxOutputStream@1@@Z 0000000180007ee0 f   CmSerialize.obj
 0001:00006f60       ??6PxRenderOutput@physx@@QEAAAEAV01@AEBV?$PxTransformT@M@1@@Z 0000000180007f60 f i CmVisualization.obj
 0001:000070e0       ??6PxRenderOutput@physx@@QEAAAEAV01@AEBV?$PxVec3T@M@1@@Z 00000001800080e0 f i CmVisualization.obj
 0001:000073e0       ?renderOutputDebugArrow@Cm@physx@@YAXAEAVPxRenderOutput@2@AEBUPxDebugArrow@2@@Z 00000001800083e0 f   CmVisualization.obj
 0001:00007780       ?renderOutputDebugBasis@Cm@physx@@YAXAEAVPxRenderOutput@2@AEBUPxDebugBasis@2@@Z 0000000180008780 f   CmVisualization.obj
 0001:00007d10       ?renderOutputDebugBox@Cm@physx@@YAXAEAVPxRenderOutput@2@AEBVPxBounds3@2@@Z 0000000180008d10 f   CmVisualization.obj
 0001:00007f80       ?renderOutputDebugCircle@Cm@physx@@YAXAEAVPxRenderOutput@2@IM@Z 0000000180008f80 f   CmVisualization.obj
 0001:00008060       ?visualizeAngularLimit@Cm@physx@@YAXAEAVPxRenderOutput@2@MAEBV?$PxTransformT@M@2@MM@Z 0000000180009060 f   CmVisualization.obj
 0001:000081f0       ?visualizeDoubleCone@Cm@physx@@YAXAEAVPxRenderOutput@2@MAEBV?$PxTransformT@M@2@M@Z 00000001800091f0 f   CmVisualization.obj
 0001:000083f0       ?visualizeJointFrames@Cm@physx@@YAXAEAVPxRenderOutput@2@MAEBV?$PxTransformT@M@2@1@Z 00000001800093f0 f   CmVisualization.obj
 0001:000090e0       ?visualizeLimitCone@Cm@physx@@YAXAEAVPxRenderOutput@2@MAEBV?$PxTransformT@M@2@MM@Z 000000018000a0e0 f   CmVisualization.obj
 0001:00009310       ?visualizeLinearLimit@Cm@physx@@YAXAEAVPxRenderOutput@2@MAEBV?$PxTransformT@M@2@1M@Z 000000018000a310 f   CmVisualization.obj
 0001:00009900       ??0CmModuleUpdateLoader@Cm@physx@@QEAA@PEBD@Z 000000018000a900 f   CmWindowsModuleUpdateLoader.obj
 0001:00009940       ??1CmModuleUpdateLoader@Cm@physx@@QEAA@XZ 000000018000a940 f   CmWindowsModuleUpdateLoader.obj
 0001:00009970       ?LoadModule@CmModuleUpdateLoader@Cm@physx@@QEAAPEAUHINSTANCE__@@PEBD0@Z 000000018000a970 f   CmWindowsModuleUpdateLoader.obj
 0001:000099e0       __local_stdio_printf_options 000000018000a9e0 f i CmWindowsModuleUpdateLoader.obj
 0001:000099f0       printf                     000000018000a9f0 f i CmWindowsModuleUpdateLoader.obj
 0001:00009a50       ?commonDelayHook@@YAP6A_JXZIPEAUDelayLoadInfo@@@Z 000000018000aa50 f   CmWindowsDelayLoadHook.obj
 0001:00009b30       PxSetPhysXCommonDelayLoadHook 000000018000ab30 f   CmWindowsDelayLoadHook.obj
 0001:00009b40       ??0?$PxQuatT@M@physx@@QEAA@AEBV?$PxMat33T@M@1@@Z 000000018000ab40 f i GuBox.obj
 0001:00009d40       ??0Box@Gu@physx@@QEAA@AEBV012@@Z 000000018000ad40 f i GuBox.obj
 0001:00009d40       ??4Box@Gu@physx@@QEAAAEBV012@AEBV012@@Z 000000018000ad40 f i GuBox.obj
 0001:00009da0       ??0Box@Gu@physx@@QEAA@AEBV?$PxVec3T@M@2@0AEBV?$PxMat33T@M@2@@Z 000000018000ada0 f i GuBox.obj
 0001:00009e10       ??0AABBTreeBuildNode@Gu@physx@@QEAA@XZ 000000018000ae10 f i GuMeshFactory.obj
 0001:00009e10       ??0BigConvexData@physx@@QEAA@W4PxEMPTY@1@@Z 000000018000ae10 f i GuBigConvexData.obj
 0001:00009e10       ??0Box@Gu@physx@@QEAA@XZ   000000018000ae10 f i GuBox.obj
 0001:00009e10       ??0HeightFieldData@Gu@physx@@QEAA@W4PxEMPTY@2@@Z 000000018000ae10 f i GuCCTSweepTests.obj
 0001:00009e10       ?getAABB@AABBTreeBuildNode@Gu@physx@@QEBAAEBVPxBounds3@3@XZ 000000018000ae10 f i GuMeshFactory.obj
 0001:00009e10       ?getPaddedBounds@HeightFieldData@Gu@physx@@QEBAAEBVCenterExtentsPadded@23@XZ 000000018000ae10 f i GuCCTSweepTests.obj
 0001:00009e20       ?computeAABBExtent@Box@Gu@physx@@QEBA?AV?$PxVec3T@M@3@XZ 000000018000ae20 f i GuBox.obj
 0001:00009ee0       ?computeBoxPoints@Box@Gu@physx@@QEBAXPEIAV?$PxVec3T@M@3@@Z 000000018000aee0 f i GuBox.obj
 0001:00009f20       ?computeOBBPoints@Gu@physx@@YAXPEIAV?$PxVec3T@M@2@AEBV32@1111@Z 000000018000af20 f   GuBox.obj
 0001:0000a1a0       ?create@Box@Gu@physx@@QEAAXAEBVCapsule@23@@Z 000000018000b1a0 f   GuBox.obj
 0001:0000a3d0       ?getBoxEdges@Gu@physx@@YAPEBEXZ 000000018000b3d0 f   GuBox.obj
 0001:0000a3e0       ?getTransform@Box@Gu@physx@@QEBA?AV?$PxTransformT@M@3@XZ 000000018000b3e0 f i GuBox.obj
 0001:0000a440       ?isValid@Box@Gu@physx@@QEBA_NXZ 000000018000b440 f i GuBox.obj
 0001:0000a460       ?rotate@Box@Gu@physx@@QEBA?AV?$PxVec3T@M@3@AEBV43@@Z 000000018000b460 f i GuBox.obj
 0001:0000a4f0       ?rotateInv@Box@Gu@physx@@QEBA?AV?$PxVec3T@M@3@AEBV43@@Z 000000018000b4f0 f i GuBox.obj
 0001:0000a580       ?setAxes@Box@Gu@physx@@QEAAXAEBV?$PxVec3T@M@3@00@Z 000000018000b580 f i GuBox.obj
 0001:0000a5c0       ?setEmpty@Box@Gu@physx@@QEAAXXZ 000000018000b5c0 f i GuBox.obj
 0001:0000a600       ?transform@Box@Gu@physx@@QEBA?AV?$PxVec3T@M@3@AEBV43@@Z 000000018000b600 f i GuBox.obj
 0001:0000a6a0       ?PxComputeBasisVectors@physx@@YAXAEBV?$PxVec3T@M@1@0AEAV21@11@Z 000000018000b6a0 f i GuCapsule.obj
 0001:0000a840       ?computeBoxAroundCapsule@Gu@physx@@YAXAEBVCapsule@12@AEAVBox@12@@Z 000000018000b840 f   GuCapsule.obj
 0001:0000a990       ??0HeightFieldData@Gu@physx@@QEAA@$$QEAU012@@Z 000000018000b990 f i GuCCTSweepTests.obj
 0001:0000a990       ??0HeightFieldData@Gu@physx@@QEAA@AEBU012@@Z 000000018000b990 f i GuCCTSweepTests.obj
 0001:0000a990       ??4HeightFieldData@Gu@physx@@QEAAAEAU012@$$QEAU012@@Z 000000018000b990 f i GuCCTSweepTests.obj
 0001:0000a990       ??4HeightFieldData@Gu@physx@@QEAAAEAU012@AEBU012@@Z 000000018000b990 f i GuCCTSweepTests.obj
 0001:0000a9f0       ??0HeightFieldData@Gu@physx@@QEAA@XZ 000000018000b9f0 f i GuCCTSweepTests.obj
 0001:0000aa00       ??0HeightFieldTraceUtil@Gu@physx@@QEAA@AEBVPxHeightFieldGeometry@2@@Z 000000018000ba00 f i GuCCTSweepTests.obj
 0001:0000aa00       ??0HeightFieldUtil@Gu@physx@@QEAA@AEBVPxHeightFieldGeometry@2@@Z 000000018000ba00 f i GuCCTSweepTests.obj
 0001:0000aa40       ??4AABBTreeBuildParams@Gu@physx@@QEAAAEAV012@AEBV012@@Z 000000018000ba40 f i GuMeshFactory.obj
 0001:0000aa40       ??4HeightFieldTraceUtil@Gu@physx@@QEAAAEAV012@$$QEAV012@@Z 000000018000ba40 f i GuCCTSweepTests.obj
 0001:0000aa40       ??4HeightFieldTraceUtil@Gu@physx@@QEAAAEAV012@AEBV012@@Z 000000018000ba40 f i GuCCTSweepTests.obj
 0001:0000aa40       ??4HeightFieldUtil@Gu@physx@@QEAAAEAV012@AEBV012@@Z 000000018000ba40 f i GuCCTSweepTests.obj
 0001:0000aa60       ??4HeightFieldUtil@Gu@physx@@QEAAAEAV012@$$QEAV012@@Z 000000018000ba60 f i GuCCTSweepTests.obj
 0001:0000aac0       ??_EEntityReport@Gu@physx@@UEAAPEAXI@Z 000000018000bac0 f i GuSweepsHF.obj
 0001:0000aac0       ??_EOverlapCallback@PxBVH@physx@@UEAAPEAXI@Z 000000018000bac0 f i GuQuerySystem.obj
 0001:0000aac0       ??_EOverlapReport@Gu@physx@@UEAAPEAXI@Z 000000018000bac0 f i GuCCTSweepTests.obj
 0001:0000aac0       ??_ERaycastCallback@PxBVH@physx@@UEAAPEAXI@Z 000000018000bac0 f i GuQuerySystem.obj
 0001:0000aac0       ??_ERemapCallback@RTreeCooker@physx@@UEAAPEAXI@Z 000000018000bac0 f i GuCookingTriangleMesh.obj
 0001:0000aac0       ??_GEntityReport@Gu@physx@@UEAAPEAXI@Z 000000018000bac0 f i GuSweepsHF.obj
 0001:0000aac0       ??_GOverlapCallback@PxBVH@physx@@UEAAPEAXI@Z 000000018000bac0 f i GuQuerySystem.obj
 0001:0000aac0       ??_GOverlapReport@Gu@physx@@UEAAPEAXI@Z 000000018000bac0 f i GuCCTSweepTests.obj
 0001:0000aac0       ??_GRaycastCallback@PxBVH@physx@@UEAAPEAXI@Z 000000018000bac0 f i GuQuerySystem.obj
 0001:0000aac0       ??_GRemapCallback@RTreeCooker@physx@@UEAAPEAXI@Z 000000018000bac0 f i GuCookingTriangleMesh.obj
 0001:0000aaf0       ??_H@YAXPEAX_K1P6APEAX0@Z@Z 000000018000baf0 f i GuCCTSweepTests.obj
 0001:0000ab40       ?ceilUp@HeightFieldTraceUtil@Gu@physx@@SAMM@Z 000000018000bb40 f i GuCCTSweepTests.obj
 0001:0000ab80       ?floorDown@HeightFieldTraceUtil@Gu@physx@@SAMM@Z 000000018000bb80 f i GuCCTSweepTests.obj
 0001:0000abc0       ?getHeightAtShapePoint@HeightFieldUtil@Gu@physx@@QEBAMMM@Z 000000018000bbc0 f i GuCCTSweepTests.obj
 0001:0000ac20       ?getHeightInternal2@HeightField@Gu@physx@@QEBAMIMM@Z 000000018000bc20 f i GuCCTSweepTests.obj
 0001:0000ad90       ?getNormalAtShapePoint@HeightFieldUtil@Gu@physx@@QEBA?AV?$PxVec3T@M@3@MM@Z 000000018000bd90 f i GuCCTSweepTests.obj
 0001:0000ae50       ?getNormal_2@HeightField@Gu@physx@@QEBA?AV?$PxVec3T@M@3@IMMMMM@Z 000000018000be50 f i GuCCTSweepTests.obj
 0001:0000af70       ?getOneOverColumnScale@HeightFieldUtil@Gu@physx@@QEBAMXZ 000000018000bf70 f i GuCCTSweepTests.obj
 0001:0000af80       ?getOneOverHeightScale@HeightFieldUtil@Gu@physx@@QEBAMXZ 000000018000bf80 f i GuCCTSweepTests.obj
 0001:0000af90       ?getOneOverRowScale@HeightFieldUtil@Gu@physx@@QEBAMXZ 000000018000bf90 f i GuCCTSweepTests.obj
 0001:0000afa0       ?hf2shapen@HeightFieldUtil@Gu@physx@@QEBA?AV?$PxVec3T@M@3@AEBV43@@Z 000000018000bfa0 f i GuCCTSweepTests.obj
 0001:0000afa0       ?shape2hfp@HeightFieldUtil@Gu@physx@@QEBA?AV?$PxVec3T@M@3@AEBV43@@Z 000000018000bfa0 f i GuCCTSweepTests.obj
 0001:0000afe0       ?hf2shapep@HeightFieldUtil@Gu@physx@@QEBA?AV?$PxVec3T@M@3@AEBV43@@Z 000000018000bfe0 f i GuCCTSweepTests.obj
 0001:0000b020       ?hf2worldn@HeightFieldUtil@Gu@physx@@QEBA?AV?$PxVec3T@M@3@AEBV?$PxTransformT@M@3@AEBV43@@Z 000000018000c020 f i GuCCTSweepTests.obj
 0001:0000b190       ?hf2worldp@HeightFieldUtil@Gu@physx@@QEBA?AV?$PxVec3T@M@3@AEBV?$PxTransformT@M@3@AEBV43@@Z 000000018000c190 f i GuCCTSweepTests.obj
 0001:0000b310       ?overlapAABBTriangles0to1@HeightFieldUtil@Gu@physx@@QEBAXAEBV?$PxTransformT@M@3@AEBVPxBounds3@3@AEAVOverlapReport@23@I@Z 000000018000c310 f i GuCCTSweepTests.obj
 0001:0000b690       ?overlapAABBTriangles@HeightFieldUtil@Gu@physx@@QEBAXAEBV?$PxTransformT@M@3@0AEBVPxBounds3@3@AEAVOverlapReport@23@I@Z 000000018000c690 f i GuCCTSweepTests.obj
 0001:0000bcb0       ?overlapAABBTriangles@HeightFieldUtil@Gu@physx@@QEBAXAEBV?$PxTransformT@M@3@AEBVPxBounds3@3@AEAVOverlapReport@23@I@Z 000000018000ccb0 f i GuCCTSweepTests.obj
 0001:0000c360       ?sweepBoxTriangles_Precise@Gu@physx@@YA_NIPEBVPxTriangle@2@_NAEBVPxBoxGeometry@2@AEBV?$PxTransformT@M@2@AEBV?$PxVec3T@M@2@MAEAUPxGeomSweepHit@2@PEBIMV?$PxFlags@W4Enum@PxHitFlag@physx@@G@2@@Z 000000018000d360 f   GuCCTSweepTests.obj
 0001:0000d120       ?sweepBox_BoxGeom_Precise@@YA_NAEBVPxGeometry@physx@@AEBV?$PxTransformT@M@2@AEBVPxBoxGeometry@2@1AEBVBox@Gu@2@AEBV?$PxVec3T@M@2@MAEAUPxGeomSweepHit@2@V?$PxFlags@W4Enum@PxHitFlag@physx@@G@2@MPEAUPxQueryThreadContext@2@@Z 000000018000e120 f   GuCCTSweepTests.obj
 0001:0000d2e0       ?sweepBox_CapsuleGeom_Precise@@YA_NAEBVPxGeometry@physx@@AEBV?$PxTransformT@M@2@AEBVPxBoxGeometry@2@1AEBVBox@Gu@2@AEBV?$PxVec3T@M@2@MAEAUPxGeomSweepHit@2@V?$PxFlags@W4Enum@PxHitFlag@physx@@G@2@MPEAUPxQueryThreadContext@2@@Z 000000018000e2e0 f   GuCCTSweepTests.obj
 0001:0000d6b0       ?sweepBox_HeightFieldGeom_Precise@@YA_NAEBVPxGeometry@physx@@AEBV?$PxTransformT@M@2@AEBVPxBoxGeometry@2@1AEBVBox@Gu@2@AEBV?$PxVec3T@M@2@MAEAUPxGeomSweepHit@2@V?$PxFlags@W4Enum@PxHitFlag@physx@@G@2@MPEAUPxQueryThreadContext@2@@Z 000000018000e6b0 f   GuCCTSweepTests.obj
 0001:0000deb0       ?sweepBox_SphereGeom_Precise@@YA_NAEBVPxGeometry@physx@@AEBV?$PxTransformT@M@2@AEBVPxBoxGeometry@2@1AEBVBox@Gu@2@AEBV?$PxVec3T@M@2@MAEAUPxGeomSweepHit@2@V?$PxFlags@W4Enum@PxHitFlag@physx@@G@2@MPEAUPxQueryThreadContext@2@@Z 000000018000eeb0 f   GuCCTSweepTests.obj
 0001:0000e180       ?sweepCapsule_BoxGeom_Precise@@YA_NAEBVPxGeometry@physx@@AEBV?$PxTransformT@M@2@AEBVPxCapsuleGeometry@2@1AEBVCapsule@Gu@2@AEBV?$PxVec3T@M@2@MAEAUPxGeomSweepHit@2@V?$PxFlags@W4Enum@PxHitFlag@physx@@G@2@MPEAUPxQueryThreadContext@2@@Z 000000018000f180 f   GuCCTSweepTests.obj
 0001:000110e0       ?getMidphaseID@RTreeTriangleMesh@Gu@physx@@UEBA?AW4Enum@PxMeshMidPhase@3@XZ 00000001800120e0 f   GuTriangleMeshRTree.obj
 0001:000110e0       ?getMidphaseID@RTreeTriangleMeshBuilder@physx@@UEBA?AW4Enum@PxMeshMidPhase@2@XZ 00000001800120e0 f   GuCookingTriangleMesh.obj
 0001:000110e0       ?getTetrahedraRemap@TetrahedronMesh@Gu@physx@@UEBAPEBIXZ 00000001800120e0 f   GuTetrahedronMesh.obj
 0001:000110e0       ?raycast_particlesystem@@YAIAEBVPxGeometry@physx@@AEBV?$PxTransformT@M@2@AEBV?$PxVec3T@M@2@2MV?$PxFlags@W4Enum@PxHitFlag@physx@@G@2@IPEIAUPxGeomRaycastHit@2@IPEAUPxQueryThreadContext@2@@Z 00000001800120e0 f   GuRaycastTests.obj
 0001:000110e0       ?raycast_softbody@@YAIAEBVPxGeometry@physx@@AEBV?$PxTransformT@M@2@AEBV?$PxVec3T@M@2@2MV?$PxFlags@W4Enum@PxHitFlag@physx@@G@2@IPEIAUPxGeomRaycastHit@2@IPEAUPxQueryThreadContext@2@@Z 00000001800120e0 f   GuRaycastTests.obj
 0001:000110e0       __scrt_stub_for_is_c_termination_complete 00000001800120e0 f   MSVCRT:ucrt_stubs.obj
 0001:000110e0       _is_c_termination_complete 00000001800120e0 f   MSVCRT:ucrt_stubs.obj
 0001:00011b90       ??0AABBTreeBounds@Gu@physx@@QEAA@XZ 0000000180012b90 f   GuMeshFactory.obj
 0001:00011ba0       ??0?$CacheMap@UCachedEdge@Gu@physx@@$0IA@@Gu@physx@@QEAA@XZ 0000000180012ba0 f i GuGeometryQuery.obj
 0001:00011c60       ??0?$CacheMap@UCachedVertex@Gu@physx@@$0IA@@Gu@physx@@QEAA@XZ 0000000180012c60 f i GuGeometryQuery.obj
 0001:00011d20       ??0?$Convex@UConvexShape@Gu@physx@@@RefGjkEpa@Gu@physx@@QEAA@AEBUConvexShape@23@AEBV?$PxTransformT@M@3@@Z 0000000180012d20 f i GuGeometryQuery.obj
 0001:000121c0       ??0?$EpaDepth@UConvexShape@Gu@physx@@@RefGjkEpa@Gu@physx@@QEAA@AEAU?$Convex@UConvexShape@Gu@physx@@@123@0@Z 00000001800131c0 f i GuGeometryQuery.obj
 0001:000125a0       ??0?$GjkDistance@UConvexShape@Gu@physx@@@RefGjkEpa@Gu@physx@@QEAA@AEAU?$Convex@UConvexShape@Gu@physx@@@123@0@Z 00000001800135a0 f i GuGeometryQuery.obj
 0001:00012780       ??0MultiplePersistentContactManifold@Gu@physx@@QEAA@XZ 0000000180013780 f i GuGeometryQuery.obj
 0001:000127f0       ??0PCMMeshContactGeneration@Gu@physx@@QEAA@AEBT__m128@@0AEBVPxTransformV@aos@2@1AEAVMultiplePersistentContactManifold@12@AEAVPxContactBuffer@2@PEAV?$PxInlineArray@I$0DMA@V?$PxReflectionAllocator@I@physx@@@2@PEAVPxRenderOutput@2@@Z 00000001800137f0 f i GuGeometryQuery.obj
 0001:00013120       ??4MultiplePersistentContactManifold@Gu@physx@@QEAAAEAV012@$$QEAV012@@Z 0000000180014120 f i GuGeometryQuery.obj
 0001:00013430       ??4MultiplePersistentContactManifold@Gu@physx@@QEAAAEAV012@AEBV012@@Z 0000000180014430 f i GuGeometryQuery.obj
 0001:00013450       ??_E?$SupportLocalImpl@VBoxV@Gu@physx@@@Gu@physx@@UEAAPEAXI@Z 0000000180014450 f i GuGeometryQuery.obj
 0001:00013450       ??_E?$SupportLocalImpl@VConvexHullNoScaleV@Gu@physx@@@Gu@physx@@UEAAPEAXI@Z 0000000180014450 f i GuMTD.obj
 0001:00013450       ??_E?$SupportLocalImpl@VConvexHullV@Gu@physx@@@Gu@physx@@UEAAPEAXI@Z 0000000180014450 f i GuGeometryQuery.obj
 0001:00013450       ??_E?$SupportLocalImpl@VTriangleV@Gu@physx@@@Gu@physx@@UEAAPEAXI@Z 0000000180014450 f i GuPCMContactConvexCommon.obj
 0001:00013450       ??_G?$SupportLocalImpl@VBoxV@Gu@physx@@@Gu@physx@@UEAAPEAXI@Z 0000000180014450 f i GuGeometryQuery.obj
 0001:00013450       ??_G?$SupportLocalImpl@VConvexHullNoScaleV@Gu@physx@@@Gu@physx@@UEAAPEAXI@Z 0000000180014450 f i GuMTD.obj
 0001:00013450       ??_G?$SupportLocalImpl@VConvexHullV@Gu@physx@@@Gu@physx@@UEAAPEAXI@Z 0000000180014450 f i GuGeometryQuery.obj
 0001:00013450       ??_G?$SupportLocalImpl@VTriangleV@Gu@physx@@@Gu@physx@@UEAAPEAXI@Z 0000000180014450 f i GuPCMContactConvexCommon.obj
 0001:00013480       ??_ESupportLocal@Gu@physx@@UEAAPEAXI@Z 0000000180014480 f i GuGeometryQuery.obj
 0001:00013480       ??_GSupportLocal@Gu@physx@@UEAAPEAXI@Z 0000000180014480 f i GuGeometryQuery.obj
 0001:000134b0       ?PxComputeBasisVectors@physx@@YAXAEBV?$PxVec3T@M@1@AEAV21@1@Z 00000001800144b0 f i GuGeometryQuery.obj
 0001:000135d0       ?addPoint@?$EpaDepth@UConvexShape@Gu@physx@@@RefGjkEpa@Gu@physx@@QEAAMAEBV?$PxVec3T@M@4@@Z 00000001800145d0 f i GuGeometryQuery.obj
 0001:00013b20       ?addPoint@?$GjkDistance@UConvexShape@Gu@physx@@@RefGjkEpa@Gu@physx@@QEAAMAEBV?$PxVec3T@M@4@@Z 0000000180014b20 f i GuGeometryQuery.obj
 0001:00013c60       ?clearManifold@MultiplePersistentContactManifold@Gu@physx@@QEAAXXZ 0000000180014c60 f i GuGeometryQuery.obj
 0001:00013cc0       ?clip2x2@FaceClipper@Gu@physx@@AEAAXXZ 0000000180014cc0 f i GuGeometryQuery.obj
 0001:000145e0       ?clipNone@FaceClipper@Gu@physx@@AEAAXXZ 00000001800155e0 f i GuGeometryQuery.obj
 0001:000146a0       ?clipNxN@FaceClipper@Gu@physx@@AEAAXXZ 00000001800156a0 f i GuGeometryQuery.obj
 0001:00014db0       ?computeClosest@?$GjkDistance@UConvexShape@Gu@physx@@@RefGjkEpa@Gu@physx@@QEAAXXZ 0000000180015db0 f i GuGeometryQuery.obj
 0001:00016380       ?computeGeomBounds@PxGeometryQuery@physx@@SAXAEAVPxBounds3@2@AEBVPxGeometry@2@AEBV?$PxTransformT@M@2@MMV?$PxFlags@W4Enum@PxGeometryQueryFlag@physx@@I@2@@Z 0000000180017380 f   GuGeometryQuery.obj
 0001:00016400       ?computePenetration@PxGeometryQuery@physx@@SA_NAEAV?$PxVec3T@M@2@AEAMAEBVPxGeometry@2@AEBV?$PxTransformT@M@2@23V?$PxFlags@W4Enum@PxGeometryQueryFlag@physx@@I@2@@Z 0000000180017400 f   GuGeometryQuery.obj
 0001:00016580       ?computePoints@?$EpaDepth@UConvexShape@Gu@physx@@@RefGjkEpa@Gu@physx@@QEAAXAEAV?$PxVec3T@M@4@0@Z 0000000180017580 f i GuGeometryQuery.obj
 0001:00016ac0       ?computePoints@?$GjkDistance@UConvexShape@Gu@physx@@@RefGjkEpa@Gu@physx@@QEAAXAEAV?$PxVec3T@M@4@0@Z 0000000180017ac0 f i GuGeometryQuery.obj
 0001:00016ef0       ?contactFace@ConvexShape@Gu@physx@@QEBAIAEBV?$PxVec3T@M@3@0AEAV43@QEAV43@@Z 0000000180017ef0 f i GuGeometryQuery.obj
 0001:00017460       ?doSupport@?$SupportLocalImpl@VBoxV@Gu@physx@@@Gu@physx@@UEBA?AT__m128@@AEBT4@@Z 0000000180018460 f i GuGeometryQuery.obj
 0001:00017490       ?doSupport@?$SupportLocalImpl@VBoxV@Gu@physx@@@Gu@physx@@UEBAXAEBT__m128@@AEAT4@1@Z 0000000180018490 f i GuGeometryQuery.obj
 0001:000174e0       ?doSupport@?$SupportLocalImpl@VConvexHullV@Gu@physx@@@Gu@physx@@UEBA?AT__m128@@AEBT4@@Z 00000001800184e0 f i GuGeometryQuery.obj
 0001:000175c0       ?doSupport@?$SupportLocalImpl@VConvexHullV@Gu@physx@@@Gu@physx@@UEBAXAEBT__m128@@AEAT4@1@Z 00000001800185c0 f i GuGeometryQuery.obj
 0001:00018020       ?generateTriangleContacts@PxGeometryQuery@physx@@SA_NAEBVPxGeometry@2@AEBV?$PxTransformT@M@2@QEBV?$PxVec3T@M@2@IMMMAEAVPxContactBuffer@2@@Z 0000000180019020 f   GuGeometryQuery.obj
 0001:00019ea0       ?getBounds@?$Convex@UConvexShape@Gu@physx@@@RefGjkEpa@Gu@physx@@QEBA?AVPxBounds3@4@XZ 000000018001aea0 f i GuGeometryQuery.obj
 0001:0001a760       ?getEmptyManifold@MultiplePersistentContactManifold@Gu@physx@@QEAAPEAVSinglePersistentContactManifold@23@XZ 000000018001b760 f i GuGeometryQuery.obj
 0001:0001a780       ?getManifold@MultiplePersistentContactManifold@Gu@physx@@QEAAPEAVSinglePersistentContactManifold@23@I@Z 000000018001b780 f i GuGeometryQuery.obj
 0001:0001a780       ?getManifold@MultiplePersistentContactManifold@Gu@physx@@QEBAPEBVSinglePersistentContactManifold@23@I@Z 000000018001b780 f i GuGeometryQuery.obj
 0001:0001a7a0       ?getUniqueID@PxCustomGeometry@physx@@SAIXZ 000000018001b7a0 f   GuGeometryQuery.obj
 0001:0001a7c0       ?hillClimbing@ConvexHullV@Gu@physx@@QEBAIAEBT__m128@@@Z 000000018001b7c0 f i GuGeometryQuery.obj
 0001:0001a9f0       ?initialize@MultiplePersistentContactManifold@Gu@physx@@QEAAXXZ 000000018001b9f0 f i GuGeometryQuery.obj
 0001:0001aa50       ?invalidate@MultiplePersistentContactManifold@Gu@physx@@QEBAIAEBVPxTransformV@aos@3@AEBT__m128@@1@Z 000000018001ba50 f i GuGeometryQuery.obj
 0001:0001aac0       ?invalidate@MultiplePersistentContactManifold@Gu@physx@@QEBAIAEBVPxTransformV@aos@3@AEBT__m128@@@Z 000000018001bac0 f i GuGeometryQuery.obj
 0001:0001ab30       ?isUnit@?$PxQuatT@M@physx@@QEBA_NXZ 000000018001bb30 f i GuGeometryQuery.obj
 0001:0001ac00       ?isValid@PxGeometryQuery@physx@@SA_NAEBVPxGeometry@2@@Z 000000018001bc00 f   GuGeometryQuery.obj
 0001:0001af10       ?makePlane@?$EpaDepth@UConvexShape@Gu@physx@@@RefGjkEpa@Gu@physx@@QEAA_NEEEAEAV?$PxVec4T@M@4@@Z 000000018001bf10 f i GuGeometryQuery.obj
 0001:0001b2d0       ?makePlanes@FaceClipper@Gu@physx@@AEAAXPEBV?$PxVec3T@M@3@IPEAV?$PxVec4T@M@3@AEAI@Z 000000018001c2d0 f i GuGeometryQuery.obj
 0001:0001b720       ?makePolygon@FaceClipper@Gu@physx@@AEAAXPEAV?$PxVec3T@M@3@AEAI@Z 000000018001c720 f i GuGeometryQuery.obj
 0001:0001c090       ?maxTransformPositionDelta@MultiplePersistentContactManifold@Gu@physx@@QEBA?AT__m128@@AEBT4@@Z 000000018001d090 f i GuGeometryQuery.obj
 0001:0001c0d0       ?overlap@PxGeometryQuery@physx@@SA_NAEBVPxGeometry@2@AEBV?$PxTransformT@M@2@01V?$PxFlags@W4Enum@PxGeometryQueryFlag@physx@@I@2@PEAUPxQueryThreadContext@2@@Z 000000018001d0d0 f   GuGeometryQuery.obj
 0001:0001c1a0       ?pointDistance@PxGeometryQuery@physx@@SAMAEBV?$PxVec3T@M@2@AEBVPxGeometry@2@AEBV?$PxTransformT@M@2@PEAV32@PEAIV?$PxFlags@W4Enum@PxGeometryQueryFlag@physx@@I@2@@Z 000000018001d1a0 f   GuGeometryQuery.obj
 0001:0001ca60       ?populateVerts@?$SupportLocalImpl@VBoxV@Gu@physx@@@Gu@physx@@UEBAXPEBEIPEBV?$PxVec3T@M@3@PEAT__m128@@@Z 000000018001da60 f i GuGeometryQuery.obj
 0001:0001caa0       ?populateVerts@?$SupportLocalImpl@VConvexHullV@Gu@physx@@@Gu@physx@@UEBAXPEBEIPEBV?$PxVec3T@M@3@PEAT__m128@@@Z 000000018001daa0 f i GuGeometryQuery.obj
 0001:0001cb00       ?raycast@PxGeometryQuery@physx@@SAIAEBV?$PxVec3T@M@2@0AEBVPxGeometry@2@AEBV?$PxTransformT@M@2@MV?$PxFlags@W4Enum@PxHitFlag@physx@@G@2@IPEIAUPxGeomRaycastHit@2@IV?$PxFlags@W4Enum@PxGeometryQueryFlag@physx@@I@2@PEAUPxQueryThreadContext@2@@Z 000000018001db00 f   GuGeometryQuery.obj
 0001:0001cc00       ?reduceManifoldContactsInDifferentPatches@MultiplePersistentContactManifold@Gu@physx@@QEBAIPEAPEAUPCMContactPatch@23@IPEAVMeshPersistentContact@23@IAEBT__m128@@@Z 000000018001dc00 f i GuGeometryQuery.obj
 0001:0001d570       ?refineContactPatchConnective@MultiplePersistentContactManifold@Gu@physx@@QEBAXPEAPEAUPCMContactPatch@23@IPEAVMeshPersistentContact@23@AEBT__m128@@@Z 000000018001e570 f i GuGeometryQuery.obj
 0001:0001d660       ?refreshManifold@MultiplePersistentContactManifold@Gu@physx@@QEAAXAEBVPxMatTransformV@aos@3@AEBT__m128@@1@Z 000000018001e660 f i GuGeometryQuery.obj
 0001:0001e070       ?setRelativeTransform@MultiplePersistentContactManifold@Gu@physx@@QEAAXAEBVPxTransformV@aos@3@@Z 000000018001f070 f i GuGeometryQuery.obj
 0001:0001e080       ?supportIndex@?$Convex@UConvexShape@Gu@physx@@@RefGjkEpa@Gu@physx@@QEAAEAEBV?$PxVec3T@M@4@@Z 000000018001f080 f i GuGeometryQuery.obj
 0001:0001e440       ?supportVertexIndex@ConvexHullV@Gu@physx@@QEBAIAEBT__m128@@@Z 000000018001f440 f i GuGeometryQuery.obj
 0001:0001e6c0       ?sweep@PxGeometryQuery@physx@@SA_NAEBV?$PxVec3T@M@2@MAEBVPxGeometry@2@AEBV?$PxTransformT@M@2@12AEAUPxGeomSweepHit@2@V?$PxFlags@W4Enum@PxHitFlag@physx@@G@2@MV?$PxFlags@W4Enum@PxGeometryQueryFlag@physx@@I@2@PEAUPxQueryThreadContext@2@@Z 000000018001f6c0 f   GuGeometryQuery.obj
 0001:0001eb50       ?computeBoxPoints@Gu@physx@@YAXAEBVPxBounds3@2@PEIAV?$PxVec3T@M@2@@Z 000000018001fb50 f   GuInternal.obj
 0001:0001ebf0       ?computeSweptBox@Gu@physx@@YAXAEAVBox@12@AEBV?$PxVec3T@M@2@1AEBV?$PxMat33T@M@2@1M@Z 000000018001fbf0 f   GuInternal.obj
 0001:0001f130       ?getPlane@Gu@physx@@YA?AVPxPlane@2@AEBV?$PxTransformT@M@2@@Z 0000000180020130 f   GuInternal.obj
 0001:0001f1e0       ??_ECallbackRaycast@RTree@Gu@physx@@UEAAPEAXI@Z 00000001800201e0 f i GuMidphaseRTree.obj
 0001:0001f1e0       ??_ECallbackRefit@RTree@Gu@physx@@UEAAPEAXI@Z 00000001800201e0 f i GuTriangleMeshRTree.obj
 0001:0001f1e0       ??_EPxInsertionCallback@physx@@MEAAPEAXI@Z 00000001800201e0 f i GuMeshFactory.obj
 0001:0001f1e0       ??_GCallbackRaycast@RTree@Gu@physx@@UEAAPEAXI@Z 00000001800201e0 f i GuMidphaseRTree.obj
 0001:0001f1e0       ??_GCallbackRefit@RTree@Gu@physx@@UEAAPEAXI@Z 00000001800201e0 f i GuTriangleMeshRTree.obj
 0001:0001f1e0       ??_GPxInsertionCallback@physx@@MEAAPEAXI@Z 00000001800201e0 f i GuMeshFactory.obj
 0001:0001f5b0       ??$copy@V?$PxReflectionAllocator@USlab@NodeAllocator@Gu@physx@@@physx@@@?$PxArray@USlab@NodeAllocator@Gu@physx@@V?$PxReflectionAllocator@USlab@NodeAllocator@Gu@physx@@@4@@physx@@IEAAXAEBV01@@Z 00000001800205b0 f i GuMeshFactory.obj
 0001:0001f670       ??0AABBTreeBuildNode@Gu@physx@@QEAA@AEBV012@@Z 0000000180020670 f i GuMeshFactory.obj
 0001:0001f670       ??4AABBTreeBuildNode@Gu@physx@@QEAAAEAV012@AEBV012@@Z 0000000180020670 f i GuMeshFactory.obj
 0001:0001f6b0       ??0AABBTreeBuildParams@Gu@physx@@QEAA@IIPEBVAABBTreeBounds@12@W4BVHBuildStrategy@12@@Z 00000001800206b0 f i GuMeshFactory.obj
 0001:0001f6d0       ??0MeshFactory@Gu@physx@@QEAA@XZ 00000001800206d0 f   GuMeshFactory.obj
 0001:0001f8d0       ??0NodeAllocator@Gu@physx@@QEAA@AEBV012@@Z 00000001800208d0 f i GuMeshFactory.obj
 0001:0001f910       ??0TriangleMeshData@Gu@physx@@QEAA@XZ 0000000180020910 f i GuMeshFactory.obj
 0001:0001fa30       ??1AABBTreeBounds@Gu@physx@@QEAA@XZ 0000000180020a30 f i GuMeshFactory.obj
 0001:0001fa40       ??1AABBTreeBuildParams@Gu@physx@@QEAA@XZ 0000000180020a40 f i GuMeshFactory.obj
 0001:0001fa40       ?reset@AABBTreeBuildParams@Gu@physx@@QEAAXXZ 0000000180020a40 f i GuMeshFactory.obj
 0001:0001fa90       ??1CollisionMeshMappingData@Gu@physx@@UEAA@XZ 0000000180020a90 f i GuMeshFactory.obj
 0001:0001fbe0       ??1DeformableVolumeCollisionData@Gu@physx@@UEAA@XZ 0000000180020be0 f i GuMeshFactory.obj
 0001:0001fd20       ??1DeformableVolumeSimulationData@Gu@physx@@UEAA@XZ 0000000180020d20 f i GuMeshFactory.obj
 0001:0001fe40       ??1MeshDataBase@Gu@physx@@UEAA@XZ 0000000180020e40 f i GuMeshFactory.obj
 0001:0001ff80       ??1MeshFactory@Gu@physx@@MEAA@XZ 0000000180020f80 f   GuMeshFactory.obj
 0001:000200c0       ??1RTreeTriangleData@Gu@physx@@UEAA@XZ 00000001800210c0 f i GuMeshFactory.obj
 0001:00020130       ??1TetrahedronMeshData@Gu@physx@@QEAA@XZ 0000000180021130 f i GuMeshFactory.obj
 0001:000201c0       ??1TriangleMeshData@Gu@physx@@UEAA@XZ 00000001800211c0 f i GuMeshFactory.obj
 0001:000202f0       ??4NodeAllocator@Gu@physx@@QEAAAEAV012@AEBV012@@Z 00000001800212f0 f i GuMeshFactory.obj
 0001:000203a0       ??_EMeshFactory@Gu@physx@@MEAAPEAXI@Z 00000001800213a0 f i GuMeshFactory.obj
 0001:000204c0       ??_FAABBTreeBuildParams@Gu@physx@@QEAAXXZ 00000001800214c0 f i GuMeshFactory.obj
 0001:000204e0       ??_EBV4TriangleData@Gu@physx@@UEAAPEAXI@Z 00000001800214e0 f i GuMeshFactory.obj
 0001:000204e0       ??_GBV4TriangleData@Gu@physx@@UEAAPEAXI@Z 00000001800214e0 f i GuMeshFactory.obj
 0001:00020570       ??_ECollisionMeshMappingData@Gu@physx@@UEAAPEAXI@Z 0000000180021570 f i GuMeshFactory.obj
 0001:00020570       ??_GCollisionMeshMappingData@Gu@physx@@UEAAPEAXI@Z 0000000180021570 f i GuMeshFactory.obj
 0001:000205e0       ??_EDeformableVolumeCollisionData@Gu@physx@@UEAAPEAXI@Z 00000001800215e0 f i GuMeshFactory.obj
 0001:000205e0       ??_GDeformableVolumeCollisionData@Gu@physx@@UEAAPEAXI@Z 00000001800215e0 f i GuMeshFactory.obj
 0001:00020650       ??_EDeformableVolumeSimulationData@Gu@physx@@UEAAPEAXI@Z 0000000180021650 f i GuMeshFactory.obj
 0001:00020650       ??_GDeformableVolumeSimulationData@Gu@physx@@UEAAPEAXI@Z 0000000180021650 f i GuMeshFactory.obj
 0001:000206c0       ??_EMeshDataBase@Gu@physx@@UEAAPEAXI@Z 00000001800216c0 f i GuMeshFactory.obj
 0001:000206c0       ??_GMeshDataBase@Gu@physx@@UEAAPEAXI@Z 00000001800216c0 f i GuMeshFactory.obj
 0001:00020730       ??_EPxCollisionMeshMappingData@physx@@UEAAPEAXI@Z 0000000180021730 f i GuMeshFactory.obj
 0001:00020730       ??_GPxCollisionMeshMappingData@physx@@UEAAPEAXI@Z 0000000180021730 f i GuMeshFactory.obj
 0001:00020780       ??_ERTreeTriangleData@Gu@physx@@UEAAPEAXI@Z 0000000180021780 f i GuMeshFactory.obj
 0001:00020780       ??_GRTreeTriangleData@Gu@physx@@UEAAPEAXI@Z 0000000180021780 f i GuMeshFactory.obj
 0001:00020830       ??_ETriangleMeshData@Gu@physx@@UEAAPEAXI@Z 0000000180021830 f i GuMeshFactory.obj
 0001:00020830       ??_GTriangleMeshData@Gu@physx@@UEAAPEAXI@Z 0000000180021830 f i GuMeshFactory.obj
 0001:000208a0       ??_V@YAXPEAX_K@Z           00000001800218a0 f i MSVCRT:delete_array_size.obj
 0001:000208a0       ?__global_delete@@YAXPEAX_K@Z 00000001800218a0 f i GuMeshFactory.obj
 0001:000208b0       ?addBVH@MeshFactory@Gu@physx@@QEAAXPEAVBVH@23@_N@Z 00000001800218b0 f   GuMeshFactory.obj
 0001:00020930       ?addConvexMesh@MeshFactory@Gu@physx@@QEAAXPEAVConvexMesh@23@_N@Z 0000000180021930 f   GuMeshFactory.obj
 0001:000209b0       ?addDeformableVolumeMesh@MeshFactory@Gu@physx@@QEAAXPEAVDeformableVolumeMesh@23@_N@Z 00000001800219b0 f   GuMeshFactory.obj
 0001:00020a30       ?addFactoryListener@MeshFactory@Gu@physx@@QEAAXAEAVMeshFactoryListener@23@@Z 0000000180021a30 f   GuMeshFactory.obj
 0001:00020aa0       ?addHeightField@MeshFactory@Gu@physx@@QEAAXPEAVHeightField@23@_N@Z 0000000180021aa0 f   GuMeshFactory.obj
 0001:00020b20       ?addTetrahedronMesh@MeshFactory@Gu@physx@@QEAAXPEAVTetrahedronMesh@23@_N@Z 0000000180021b20 f   GuMeshFactory.obj
 0001:00020ba0       ?addTriangleMesh@MeshFactory@Gu@physx@@QEAAXPEAVTriangleMesh@23@_N@Z 0000000180021ba0 f   GuMeshFactory.obj
 0001:00020c20       ?allocate@?$PxArray@USlab@NodeAllocator@Gu@physx@@V?$PxReflectionAllocator@USlab@NodeAllocator@Gu@physx@@@4@@physx@@IEAAPEAUSlab@NodeAllocator@Gu@2@IPEAI@Z 0000000180021c20 f i GuMeshFactory.obj
 0001:00020ca0       ?allocateAdjacencies@TriangleMeshData@Gu@physx@@QEAAPEAIXZ 0000000180021ca0 f i GuMeshFactory.obj
 0001:00020d10       ?allocateExtraTrigData@TriangleMeshData@Gu@physx@@QEAAPEAEXZ 0000000180021d10 f i GuMeshFactory.obj
 0001:00020d80       ?allocateFaceRemap@TriangleMeshData@Gu@physx@@QEAAPEAIXZ 0000000180021d80 f i GuMeshFactory.obj
 0001:00020df0       ?allocateGridModelData@DeformableVolumeSimulationData@Gu@physx@@QEAAXIIIIIII@Z 0000000180021df0 f i GuMeshFactory.obj
 0001:00021060       ?allocateMaterials@TetrahedronMeshData@Gu@physx@@QEAAPEAGXZ 0000000180022060 f i GuMeshFactory.obj
 0001:000210d0       ?allocateMaterials@TriangleMeshData@Gu@physx@@QEAAPEAGXZ 00000001800220d0 f i GuMeshFactory.obj
 0001:00021140       ?allocateTetrahedrons@TetrahedronMeshData@Gu@physx@@QEAAXII@Z 0000000180022140 f i GuMeshFactory.obj
 0001:000211d0       ?allocateTriangles@TriangleMeshData@Gu@physx@@QEAAPEAXI_NI@Z 00000001800221d0 f i GuMeshFactory.obj
 0001:000212c0       ?allocateVertices@MeshDataBase@Gu@physx@@QEAAPEAV?$PxVec3T@M@3@I@Z 00000001800222c0 f i GuMeshFactory.obj
 0001:00021330       ?allocateVertices@TetrahedronMeshData@Gu@physx@@QEAAPEAV?$PxVec3T@M@3@II@Z 0000000180022330 f i GuMeshFactory.obj
 0001:000213d0       ?allocatemappingData@CollisionMeshMappingData@Gu@physx@@QEAAXIIII@Z 00000001800223d0 f i GuMeshFactory.obj
 0001:000215b0       ?create@?$PxHashBase@PEAVBVH@Gu@physx@@PEAV123@U?$PxHash@PEAVBVH@Gu@physx@@@3@UGetKey@?$PxHashSetBase@PEAVBVH@Gu@physx@@U?$PxHash@PEAVBVH@Gu@physx@@@3@VPxAllocator@3@$00@3@VPxAllocator@3@$00@physx@@QEAAPEAPEAVBVH@Gu@2@AEBQEAV342@AEA_N@Z 00000001800225b0 f i GuMeshFactory.obj
 0001:000215b0       ?create@?$PxHashBase@PEAVConvexMesh@Gu@physx@@PEAV123@U?$PxHash@PEAVConvexMesh@Gu@physx@@@3@UGetKey@?$PxHashSetBase@PEAVConvexMesh@Gu@physx@@U?$PxHash@PEAVConvexMesh@Gu@physx@@@3@VPxAllocator@3@$00@3@VPxAllocator@3@$00@physx@@QEAAPEAPEAVConvexMesh@Gu@2@AEBQEAV342@AEA_N@Z 00000001800225b0 f i GuMeshFactory.obj
 0001:000215b0       ?create@?$PxHashBase@PEAVDeformableVolumeMesh@Gu@physx@@PEAV123@U?$PxHash@PEAVDeformableVolumeMesh@Gu@physx@@@3@UGetKey@?$PxHashSetBase@PEAVDeformableVolumeMesh@Gu@physx@@U?$PxHash@PEAVDeformableVolumeMesh@Gu@physx@@@3@VPxAllocator@3@$00@3@VPxAllocator@3@$00@physx@@QEAAPEAPEAVDeformableVolumeMesh@Gu@2@AEBQEAV342@AEA_N@Z 00000001800225b0 f i GuMeshFactory.obj
 0001:000215b0       ?create@?$PxHashBase@PEAVHeightField@Gu@physx@@PEAV123@U?$PxHash@PEAVHeightField@Gu@physx@@@3@UGetKey@?$PxHashSetBase@PEAVHeightField@Gu@physx@@U?$PxHash@PEAVHeightField@Gu@physx@@@3@VPxAllocator@3@$00@3@VPxAllocator@3@$00@physx@@QEAAPEAPEAVHeightField@Gu@2@AEBQEAV342@AEA_N@Z 00000001800225b0 f i GuMeshFactory.obj
 0001:000215b0       ?create@?$PxHashBase@PEAVTetrahedronMesh@Gu@physx@@PEAV123@U?$PxHash@PEAVTetrahedronMesh@Gu@physx@@@3@UGetKey@?$PxHashSetBase@PEAVTetrahedronMesh@Gu@physx@@U?$PxHash@PEAVTetrahedronMesh@Gu@physx@@@3@VPxAllocator@3@$00@3@VPxAllocator@3@$00@physx@@QEAAPEAPEAVTetrahedronMesh@Gu@2@AEBQEAV342@AEA_N@Z 00000001800225b0 f i GuMeshFactory.obj
 0001:000215b0       ?create@?$PxHashBase@PEAVTriangleMesh@Gu@physx@@PEAV123@U?$PxHash@PEAVTriangleMesh@Gu@physx@@@3@UGetKey@?$PxHashSetBase@PEAVTriangleMesh@Gu@physx@@U?$PxHash@PEAVTriangleMesh@Gu@physx@@@3@VPxAllocator@3@$00@3@VPxAllocator@3@$00@physx@@QEAAPEAPEAVTriangleMesh@Gu@2@AEBQEAV342@AEA_N@Z 00000001800225b0 f i GuMeshFactory.obj
 0001:00021740       ?createBVH@MeshFactory@Gu@physx@@IEAAPEAVPxBVH@3@AEAVBVHData@23@@Z 0000000180022740 f   GuMeshFactory.obj
 0001:00021830       ?createBVH@MeshFactory@Gu@physx@@QEAAPEAVPxBVH@3@AEAVPxInputStream@3@@Z 0000000180022830 f   GuMeshFactory.obj
 0001:00021950       ?createBVH@MeshFactory@Gu@physx@@QEAAPEAVPxBVH@3@PEAX@Z 0000000180022950 f   GuMeshFactory.obj
 0001:00021960       ?createConvexMesh@MeshFactory@Gu@physx@@IEAAPEAVPxConvexMesh@3@AEAUConvexHullInitData@23@@Z 0000000180022960 f   GuMeshFactory.obj
 0001:00021a50       ?createConvexMesh@MeshFactory@Gu@physx@@QEAAPEAVPxConvexMesh@3@AEAVPxInputStream@3@@Z 0000000180022a50 f   GuMeshFactory.obj
 0001:00021b70       ?createConvexMesh@MeshFactory@Gu@physx@@QEAAPEAVPxConvexMesh@3@PEAX@Z 0000000180022b70 f   GuMeshFactory.obj
 0001:00021b80       ?createDeformableVolumeMesh@MeshFactory@Gu@physx@@IEAAPEAVPxDeformableVolumeMesh@3@AEAVDeformableVolumeMeshData@23@@Z 0000000180022b80 f   GuMeshFactory.obj
 0001:00021c70       ?createDeformableVolumeMesh@MeshFactory@Gu@physx@@QEAAPEAVPxDeformableVolumeMesh@3@AEAVPxInputStream@3@@Z 0000000180022c70 f   GuMeshFactory.obj
 0001:00022270       ?createDeformableVolumeMesh@MeshFactory@Gu@physx@@QEAAPEAVPxDeformableVolumeMesh@3@PEAX@Z 0000000180023270 f   GuMeshFactory.obj
 0001:00022280       ?createHeightField@MeshFactory@Gu@physx@@QEAAPEAVPxHeightField@3@AEAVPxInputStream@3@@Z 0000000180023280 f   GuMeshFactory.obj
 0001:000223a0       ?createHeightField@MeshFactory@Gu@physx@@QEAAPEAVPxHeightField@3@PEAX@Z 00000001800233a0 f   GuMeshFactory.obj
 0001:00022490       ?createTetrahedronMesh@MeshFactory@Gu@physx@@IEAAPEAVPxTetrahedronMesh@3@AEAVTetrahedronMeshData@23@@Z 0000000180023490 f   GuMeshFactory.obj
 0001:00022580       ?createTetrahedronMesh@MeshFactory@Gu@physx@@QEAAPEAVPxTetrahedronMesh@3@AEAVPxInputStream@3@@Z 0000000180023580 f   GuMeshFactory.obj
 0001:000225f0       ?createTetrahedronMesh@MeshFactory@Gu@physx@@QEAAPEAVPxTetrahedronMesh@3@PEAX@Z 00000001800235f0 f   GuMeshFactory.obj
 0001:00022600       ?createTriangleMesh@MeshFactory@Gu@physx@@IEAAPEAVPxTriangleMesh@3@AEAVTriangleMeshData@23@@Z 0000000180023600 f   GuMeshFactory.obj
 0001:00022780       ?createTriangleMesh@MeshFactory@Gu@physx@@QEAAPEAVPxTriangleMesh@3@AEAVPxInputStream@3@@Z 0000000180023780 f   GuMeshFactory.obj
 0001:000227e0       ?createTriangleMesh@MeshFactory@Gu@physx@@QEAAPEAVPxTriangleMesh@3@PEAX@Z 00000001800237e0 f   GuMeshFactory.obj
 0001:000227f0       ?erase@?$PxHashBase@PEAVBVH@Gu@physx@@PEAV123@U?$PxHash@PEAVBVH@Gu@physx@@@3@UGetKey@?$PxHashSetBase@PEAVBVH@Gu@physx@@U?$PxHash@PEAVBVH@Gu@physx@@@3@VPxAllocator@3@$00@3@VPxAllocator@3@$00@physx@@QEAA_NAEBQEAVBVH@Gu@2@@Z 00000001800237f0 f i GuMeshFactory.obj
 0001:000227f0       ?erase@?$PxHashBase@PEAVConvexMesh@Gu@physx@@PEAV123@U?$PxHash@PEAVConvexMesh@Gu@physx@@@3@UGetKey@?$PxHashSetBase@PEAVConvexMesh@Gu@physx@@U?$PxHash@PEAVConvexMesh@Gu@physx@@@3@VPxAllocator@3@$00@3@VPxAllocator@3@$00@physx@@QEAA_NAEBQEAVConvexMesh@Gu@2@@Z 00000001800237f0 f i GuMeshFactory.obj
 0001:000227f0       ?erase@?$PxHashBase@PEAVDeformableVolumeMesh@Gu@physx@@PEAV123@U?$PxHash@PEAVDeformableVolumeMesh@Gu@physx@@@3@UGetKey@?$PxHashSetBase@PEAVDeformableVolumeMesh@Gu@physx@@U?$PxHash@PEAVDeformableVolumeMesh@Gu@physx@@@3@VPxAllocator@3@$00@3@VPxAllocator@3@$00@physx@@QEAA_NAEBQEAVDeformableVolumeMesh@Gu@2@@Z 00000001800237f0 f i GuMeshFactory.obj
 0001:000227f0       ?erase@?$PxHashBase@PEAVHeightField@Gu@physx@@PEAV123@U?$PxHash@PEAVHeightField@Gu@physx@@@3@UGetKey@?$PxHashSetBase@PEAVHeightField@Gu@physx@@U?$PxHash@PEAVHeightField@Gu@physx@@@3@VPxAllocator@3@$00@3@VPxAllocator@3@$00@physx@@QEAA_NAEBQEAVHeightField@Gu@2@@Z 00000001800237f0 f i GuMeshFactory.obj
 0001:000227f0       ?erase@?$PxHashBase@PEAVTetrahedronMesh@Gu@physx@@PEAV123@U?$PxHash@PEAVTetrahedronMesh@Gu@physx@@@3@UGetKey@?$PxHashSetBase@PEAVTetrahedronMesh@Gu@physx@@U?$PxHash@PEAVTetrahedronMesh@Gu@physx@@@3@VPxAllocator@3@$00@3@VPxAllocator@3@$00@physx@@QEAA_NAEBQEAVTetrahedronMesh@Gu@2@@Z 00000001800237f0 f i GuMeshFactory.obj
 0001:000227f0       ?erase@?$PxHashBase@PEAVTriangleMesh@Gu@physx@@PEAV123@U?$PxHash@PEAVTriangleMesh@Gu@physx@@@3@UGetKey@?$PxHashSetBase@PEAVTriangleMesh@Gu@physx@@U?$PxHash@PEAVTriangleMesh@Gu@physx@@@3@VPxAllocator@3@$00@3@VPxAllocator@3@$00@physx@@QEAA_NAEBQEAVTriangleMesh@Gu@2@@Z 00000001800237f0 f i GuMeshFactory.obj
 0001:00022970       ?getBVHs@MeshFactory@Gu@physx@@QEBAIPEAPEAVPxBVH@3@II@Z 0000000180023970 f   GuMeshFactory.obj
 0001:00022a10       ?getBounds@AABBTreeBounds@Gu@physx@@QEAAPEAVPxBounds3@3@XZ 0000000180023a10 f i GuMeshFactory.obj
 0001:00022a10       ?getBounds@AABBTreeBounds@Gu@physx@@QEBAPEBVPxBounds3@3@XZ 0000000180023a10 f i GuMeshFactory.obj
 0001:00022a20       ?getConvexMeshes@MeshFactory@Gu@physx@@QEBAIPEAPEAVPxConvexMesh@3@II@Z 0000000180023a20 f   GuMeshFactory.obj
 0001:00022ac0       ?getDeformableVolumeMeshes@MeshFactory@Gu@physx@@QEBAIPEAPEAVPxDeformableVolumeMesh@3@II@Z 0000000180023ac0 f   GuMeshFactory.obj
 0001:00022b60       ?getHeightFields@MeshFactory@Gu@physx@@QEBAIPEAPEAVPxHeightField@3@II@Z 0000000180023b60 f   GuMeshFactory.obj
 0001:00022c00       ?getNbBVHs@MeshFactory@Gu@physx@@QEBAIXZ 0000000180023c00 f   GuMeshFactory.obj
 0001:00022c40       ?getNbConvexMeshes@MeshFactory@Gu@physx@@QEBAIXZ 0000000180023c40 f   GuMeshFactory.obj
 0001:00022c80       ?getNbDeformableVolumeMeshes@MeshFactory@Gu@physx@@QEBAIXZ 0000000180023c80 f   GuMeshFactory.obj
 0001:00022cc0       ?getNbHeightFields@MeshFactory@Gu@physx@@QEBAIXZ 0000000180023cc0 f   GuMeshFactory.obj
 0001:00022d00       ?getNbPrimitives@AABBTreeBuildNode@Gu@physx@@QEBAIXZ 0000000180023d00 f i GuMeshFactory.obj
 0001:00022d00       ?getNbRuntimePrimitives@AABBTreeBuildNode@Gu@physx@@QEBAIXZ 0000000180023d00 f i GuMeshFactory.obj
 0001:00022d10       ?getNbTetrahedronMeshes@MeshFactory@Gu@physx@@QEBAIXZ 0000000180023d10 f   GuMeshFactory.obj
 0001:00022d50       ?getNbTriangleMeshes@MeshFactory@Gu@physx@@QEBAIXZ 0000000180023d50 f   GuMeshFactory.obj
 0001:00022d90       ?getNeg@AABBTreeBuildNode@Gu@physx@@QEBAPEBV123@XZ 0000000180023d90 f i GuMeshFactory.obj
 0001:00022db0       ?getPrimitives@AABBTreeBuildNode@Gu@physx@@QEAAPEAIPEAI@Z 0000000180023db0 f i GuMeshFactory.obj
 0001:00022db0       ?getPrimitives@AABBTreeBuildNode@Gu@physx@@QEBAPEBIPEBI@Z 0000000180023db0 f i GuMeshFactory.obj
 0001:00022dc0       ?getTetrahedronMeshes@MeshFactory@Gu@physx@@QEBAIPEAPEAVPxTetrahedronMesh@3@II@Z 0000000180023dc0 f   GuMeshFactory.obj
 0001:00022e50       ?getTriangleMeshes@MeshFactory@Gu@physx@@QEBAIPEAPEAVPxTriangleMesh@3@II@Z 0000000180023e50 f   GuMeshFactory.obj
 0001:00022ee0       ?growAndPushBack@?$PxArray@PEAVMeshFactoryListener@Gu@physx@@V?$PxReflectionAllocator@PEAVMeshFactoryListener@Gu@physx@@@3@@physx@@IEAAAEAPEAVMeshFactoryListener@Gu@2@AEBQEAV342@@Z 0000000180023ee0 f i GuMeshFactory.obj
 0001:00022ff0       ?isLeaf@AABBTreeBuildNode@Gu@physx@@QEBA_NXZ 0000000180023ff0 f i GuMeshFactory.obj
 0001:00024aa0       ?moveFrom@AABBTreeBounds@Gu@physx@@QEAAXAEAV123@@Z 0000000180025aa0 f i GuMeshFactory.obj
 0001:00024ab0       ?notifyFactoryListener@MeshFactory@Gu@physx@@QEAAXPEBVPxBase@3@G@Z 0000000180025ab0 f   GuMeshFactory.obj
 0001:00024b20       ?ownsMemory@AABBTreeBounds@Gu@physx@@QEBA_NXZ 0000000180025b20 f i GuMeshFactory.obj
 0001:00024e00       ?recreate@?$PxArray@USlab@NodeAllocator@Gu@physx@@V?$PxReflectionAllocator@USlab@NodeAllocator@Gu@physx@@@4@@physx@@IEAAXI@Z 0000000180025e00 f i GuMeshFactory.obj
 0001:00024ef0       ?release@CollisionMeshMappingData@Gu@physx@@UEAAXXZ 0000000180025ef0 f i GuMeshFactory.obj
 0001:00024f10       ?release@MeshFactory@Gu@physx@@QEAAXXZ 0000000180025f10 f   GuMeshFactory.obj
 0001:00025010       ?remove@MeshFactory@Gu@physx@@QEAA_NAEAVPxBase@3@@Z 0000000180026010 f   GuMeshFactory.obj
 0001:00025110       ?removeBVH@MeshFactory@Gu@physx@@QEAA_NAEAVPxBVH@3@@Z 0000000180026110 f   GuMeshFactory.obj
 0001:00025160       ?removeConvexMesh@MeshFactory@Gu@physx@@QEAA_NAEAVPxConvexMesh@3@@Z 0000000180026160 f   GuMeshFactory.obj
 0001:000251b0       ?removeDeformableVolumeMesh@MeshFactory@Gu@physx@@QEAA_NAEAVPxDeformableVolumeMesh@3@@Z 00000001800261b0 f   GuMeshFactory.obj
 0001:00025200       ?removeFactoryListener@MeshFactory@Gu@physx@@QEAAXAEAVMeshFactoryListener@23@@Z 0000000180026200 f   GuMeshFactory.obj
 0001:00025290       ?removeHeightField@MeshFactory@Gu@physx@@QEAA_NAEAVPxHeightField@3@@Z 0000000180026290 f   GuMeshFactory.obj
 0001:000252e0       ?removeTetrahedronMesh@MeshFactory@Gu@physx@@QEAA_NAEAVPxTetrahedronMesh@3@@Z 00000001800262e0 f   GuMeshFactory.obj
 0001:00025330       ?removeTriangleMesh@MeshFactory@Gu@physx@@QEAA_NAEAVPxTriangleMesh@3@@Z 0000000180026330 f   GuMeshFactory.obj
 0001:00025380       ?reserveInternal@?$PxHashBase@PEAVBVH@Gu@physx@@PEAV123@U?$PxHash@PEAVBVH@Gu@physx@@@3@UGetKey@?$PxHashSetBase@PEAVBVH@Gu@physx@@U?$PxHash@PEAVBVH@Gu@physx@@@3@VPxAllocator@3@$00@3@VPxAllocator@3@$00@physx@@AEAAXI@Z 0000000180026380 f i GuMeshFactory.obj
 0001:00025380       ?reserveInternal@?$PxHashBase@PEAVConvexMesh@Gu@physx@@PEAV123@U?$PxHash@PEAVConvexMesh@Gu@physx@@@3@UGetKey@?$PxHashSetBase@PEAVConvexMesh@Gu@physx@@U?$PxHash@PEAVConvexMesh@Gu@physx@@@3@VPxAllocator@3@$00@3@VPxAllocator@3@$00@physx@@AEAAXI@Z 0000000180026380 f i GuMeshFactory.obj
 0001:00025380       ?reserveInternal@?$PxHashBase@PEAVDeformableVolumeMesh@Gu@physx@@PEAV123@U?$PxHash@PEAVDeformableVolumeMesh@Gu@physx@@@3@UGetKey@?$PxHashSetBase@PEAVDeformableVolumeMesh@Gu@physx@@U?$PxHash@PEAVDeformableVolumeMesh@Gu@physx@@@3@VPxAllocator@3@$00@3@VPxAllocator@3@$00@physx@@AEAAXI@Z 0000000180026380 f i GuMeshFactory.obj
 0001:00025380       ?reserveInternal@?$PxHashBase@PEAVHeightField@Gu@physx@@PEAV123@U?$PxHash@PEAVHeightField@Gu@physx@@@3@UGetKey@?$PxHashSetBase@PEAVHeightField@Gu@physx@@U?$PxHash@PEAVHeightField@Gu@physx@@@3@VPxAllocator@3@$00@3@VPxAllocator@3@$00@physx@@AEAAXI@Z 0000000180026380 f i GuMeshFactory.obj
 0001:00025380       ?reserveInternal@?$PxHashBase@PEAVTetrahedronMesh@Gu@physx@@PEAV123@U?$PxHash@PEAVTetrahedronMesh@Gu@physx@@@3@UGetKey@?$PxHashSetBase@PEAVTetrahedronMesh@Gu@physx@@U?$PxHash@PEAVTetrahedronMesh@Gu@physx@@@3@VPxAllocator@3@$00@3@VPxAllocator@3@$00@physx@@AEAAXI@Z 0000000180026380 f i GuMeshFactory.obj
 0001:00025380       ?reserveInternal@?$PxHashBase@PEAVTriangleMesh@Gu@physx@@PEAV123@U?$PxHash@PEAVTriangleMesh@Gu@physx@@@3@UGetKey@?$PxHashSetBase@PEAVTriangleMesh@Gu@physx@@U?$PxHash@PEAVTriangleMesh@Gu@physx@@@3@VPxAllocator@3@$00@3@VPxAllocator@3@$00@physx@@AEAAXI@Z 0000000180026380 f i GuMeshFactory.obj
 0001:00025550       ?setBounds@AABBTreeBounds@Gu@physx@@QEAAXPEAVPxBounds3@3@@Z 0000000180026550 f i GuMeshFactory.obj
 0001:00025560       ?setNbRunTimePrimitives@AABBTreeBuildNode@Gu@physx@@QEAAXI@Z 0000000180026560 f i GuMeshFactory.obj
 0001:00025570       ?takeOwnership@AABBTreeBounds@Gu@physx@@QEAAXXZ 0000000180026570 f i GuMeshFactory.obj
 0001:00025580       getInsertionCallback       0000000180026580 f   GuMeshFactory.obj
 0001:00025590       ?doSupport@?$SupportLocalImpl@VConvexHullNoScaleV@Gu@physx@@@Gu@physx@@UEBA?AT__m128@@AEBT4@@Z 0000000180026590 f i GuMTD.obj
 0001:000255e0       ?doSupport@?$SupportLocalImpl@VConvexHullNoScaleV@Gu@physx@@@Gu@physx@@UEBAXAEBT__m128@@AEAT4@1@Z 00000001800265e0 f i GuMTD.obj
 0001:00025760       ?populateVerts@?$SupportLocalImpl@VConvexHullNoScaleV@Gu@physx@@@Gu@physx@@UEBAXPEBEIPEBV?$PxVec3T@M@3@PEAT__m128@@@Z 0000000180026760 f i GuMTD.obj
 0001:000257a0       ?getInternalData@TriangleMesh@Gu@physx@@UEBA_NAEAUPxTriangleMeshInternalData@3@_N@Z 00000001800267a0 f   GuTriangleMesh.obj
 0001:000257a0       ?isDynamic@Pruner@Gu@physx@@UEBA_NXZ 00000001800267a0 f   GuIncrementalAABBPruner.obj
 0001:00026d40       ??$gjk@U?$LocalConvex@VCapsuleV@Gu@physx@@@Gu@physx@@U?$LocalConvex@VConvexHullV@Gu@physx@@@23@@Gu@physx@@YA?AW4GjkStatus@01@AEBU?$LocalConvex@VCapsuleV@Gu@physx@@@01@AEBU?$LocalConvex@VConvexHullV@Gu@physx@@@01@AEBT__m128@@2AEAT5@333@Z 0000000180027d40 f i GuMTD.obj
 0001:00027ab0       ??_E?$LocalConvex@UCustomConvexV@@@Gu@physx@@UEAAPEAXI@Z 0000000180028ab0 f i GuGjkQuery.obj
 0001:00027ab0       ??_E?$LocalConvex@UPointConvexV@@@Gu@physx@@UEAAPEAXI@Z 0000000180028ab0 f i GuGjkQuery.obj
 0001:00027ab0       ??_E?$LocalConvex@VBoxV@Gu@physx@@@Gu@physx@@UEAAPEAXI@Z 0000000180028ab0 f i GuSweepTests.obj
 0001:00027ab0       ??_E?$LocalConvex@VCapsuleV@Gu@physx@@@Gu@physx@@UEAAPEAXI@Z 0000000180028ab0 f i GuMTD.obj
 0001:00027ab0       ??_E?$LocalConvex@VConvexHullNoScaleV@Gu@physx@@@Gu@physx@@UEAAPEAXI@Z 0000000180028ab0 f i GuPCMContactBoxConvex.obj
 0001:00027ab0       ??_E?$LocalConvex@VConvexHullV@Gu@physx@@@Gu@physx@@UEAAPEAXI@Z 0000000180028ab0 f i GuMTD.obj
 0001:00027ab0       ??_E?$LocalConvex@VTetrahedronV@Gu@physx@@@Gu@physx@@UEAAPEAXI@Z 0000000180028ab0 f i GuCookingTetrahedronMesh.obj
 0001:00027ab0       ??_E?$LocalConvex@VTriangleV@Gu@physx@@@Gu@physx@@UEAAPEAXI@Z 0000000180028ab0 f i GuSweepTests.obj
 0001:00027ab0       ??_EGjkConvex@Gu@physx@@UEAAPEAXI@Z 0000000180028ab0 f i GuMTD.obj
 0001:00027ab0       ??_G?$LocalConvex@UCustomConvexV@@@Gu@physx@@UEAAPEAXI@Z 0000000180028ab0 f i GuGjkQuery.obj
 0001:00027ab0       ??_G?$LocalConvex@UPointConvexV@@@Gu@physx@@UEAAPEAXI@Z 0000000180028ab0 f i GuGjkQuery.obj
 0001:00027ab0       ??_G?$LocalConvex@VBoxV@Gu@physx@@@Gu@physx@@UEAAPEAXI@Z 0000000180028ab0 f i GuSweepTests.obj
 0001:00027ab0       ??_G?$LocalConvex@VCapsuleV@Gu@physx@@@Gu@physx@@UEAAPEAXI@Z 0000000180028ab0 f i GuMTD.obj
 0001:00027ab0       ??_G?$LocalConvex@VConvexHullNoScaleV@Gu@physx@@@Gu@physx@@UEAAPEAXI@Z 0000000180028ab0 f i GuPCMContactBoxConvex.obj
 0001:00027ab0       ??_G?$LocalConvex@VConvexHullV@Gu@physx@@@Gu@physx@@UEAAPEAXI@Z 0000000180028ab0 f i GuMTD.obj
 0001:00027ab0       ??_G?$LocalConvex@VTetrahedronV@Gu@physx@@@Gu@physx@@UEAAPEAXI@Z 0000000180028ab0 f i GuCookingTetrahedronMesh.obj
 0001:00027ab0       ??_G?$LocalConvex@VTriangleV@Gu@physx@@@Gu@physx@@UEAAPEAXI@Z 0000000180028ab0 f i GuSweepTests.obj
 0001:00027ab0       ??_GGjkConvex@Gu@physx@@UEAAPEAXI@Z 0000000180028ab0 f i GuMTD.obj
 0001:0002c710       ?getCenter@?$LocalConvex@UCustomConvexV@@@Gu@physx@@UEBA?AT__m128@@XZ 000000018002d710 f i GuGjkQuery.obj
 0001:0002c710       ?getCenter@?$LocalConvex@UPointConvexV@@@Gu@physx@@UEBA?AT__m128@@XZ 000000018002d710 f i GuGjkQuery.obj
 0001:0002c710       ?getCenter@?$LocalConvex@VBoxV@Gu@physx@@@Gu@physx@@UEBA?AT__m128@@XZ 000000018002d710 f i GuSweepTests.obj
 0001:0002c710       ?getCenter@?$LocalConvex@VCapsuleV@Gu@physx@@@Gu@physx@@UEBA?AT__m128@@XZ 000000018002d710 f i GuMTD.obj
 0001:0002c710       ?getCenter@?$LocalConvex@VConvexHullNoScaleV@Gu@physx@@@Gu@physx@@UEBA?AT__m128@@XZ 000000018002d710 f i GuPCMContactBoxConvex.obj
 0001:0002c710       ?getCenter@?$LocalConvex@VConvexHullV@Gu@physx@@@Gu@physx@@UEBA?AT__m128@@XZ 000000018002d710 f i GuMTD.obj
 0001:0002c710       ?getCenter@?$LocalConvex@VTetrahedronV@Gu@physx@@@Gu@physx@@UEBA?AT__m128@@XZ 000000018002d710 f i GuCookingTetrahedronMesh.obj
 0001:0002c710       ?getCenter@?$LocalConvex@VTriangleV@Gu@physx@@@Gu@physx@@UEBA?AT__m128@@XZ 000000018002d710 f i GuSweepTests.obj
 0001:0002c720       ?getSweepMargin@?$LocalConvex@VCapsuleV@Gu@physx@@@Gu@physx@@UEBA?AT__m128@@XZ 000000018002d720 f i GuMTD.obj
 0001:0002c720       ?getSweepMargin@?$RelativeConvex@VCapsuleV@Gu@physx@@@Gu@physx@@UEBA?AT__m128@@XZ 000000018002d720 f i GuCCDSweepPrimitives.obj
 0001:0002c730       ?getSweepMargin@?$LocalConvex@UCustomConvexV@@@Gu@physx@@UEBA?AT__m128@@XZ 000000018002d730 f i GuGjkQuery.obj
 0001:0002c730       ?getSweepMargin@?$LocalConvex@UPointConvexV@@@Gu@physx@@UEBA?AT__m128@@XZ 000000018002d730 f i GuGjkQuery.obj
 0001:0002c730       ?getSweepMargin@?$LocalConvex@VBoxV@Gu@physx@@@Gu@physx@@UEBA?AT__m128@@XZ 000000018002d730 f i GuSweepTests.obj
 0001:0002c730       ?getSweepMargin@?$LocalConvex@VConvexHullNoScaleV@Gu@physx@@@Gu@physx@@UEBA?AT__m128@@XZ 000000018002d730 f i GuPCMContactBoxConvex.obj
 0001:0002c730       ?getSweepMargin@?$LocalConvex@VConvexHullV@Gu@physx@@@Gu@physx@@UEBA?AT__m128@@XZ 000000018002d730 f i GuMTD.obj
 0001:0002c730       ?getSweepMargin@?$RelativeConvex@UCustomConvexV@@@Gu@physx@@UEBA?AT__m128@@XZ 000000018002d730 f i GuGjkQuery.obj
 0001:0002c730       ?getSweepMargin@?$RelativeConvex@VBoxV@Gu@physx@@@Gu@physx@@UEBA?AT__m128@@XZ 000000018002d730 f i GuOverlapTests.obj
 0001:0002c730       ?getSweepMargin@?$RelativeConvex@VConvexHullNoScaleV@Gu@physx@@@Gu@physx@@UEBA?AT__m128@@XZ 000000018002d730 f i GuPCMContactConvexConvex.obj
 0001:0002c730       ?getSweepMargin@?$RelativeConvex@VConvexHullV@Gu@physx@@@Gu@physx@@UEBA?AT__m128@@XZ 000000018002d730 f i GuOverlapTests.obj
 0001:0002c750       ?getSweepMargin@GjkConvex@Gu@physx@@UEBA?AT__m128@@XZ 000000018002d750 f i GuMTD.obj
 0001:0002c770       ?pointConvexDistance@@YA_NAEAV?$PxVec3T@M@physx@@0AEAMAEBV12@PEBVConvexMesh@Gu@2@AEBVPxMeshScale@2@AEBUPxTransformPadded@2@@Z 000000018002d770 f   GuMTD.obj
 0001:0002d4e0       ?support@?$LocalConvex@VCapsuleV@Gu@physx@@@Gu@physx@@UEBA?AT__m128@@AEBT4@@Z 000000018002e4e0 f i GuMTD.obj
 0001:0002d540       ?support@?$LocalConvex@VCapsuleV@Gu@physx@@@Gu@physx@@UEBA?AT__m128@@AEBT4@AEAH@Z 000000018002e540 f i GuMTD.obj
 0001:0002d5b0       ?support@?$LocalConvex@VConvexHullV@Gu@physx@@@Gu@physx@@UEBA?AT__m128@@AEBT4@@Z 000000018002e5b0 f i GuMTD.obj
 0001:0002d690       ?support@?$LocalConvex@VConvexHullV@Gu@physx@@@Gu@physx@@UEBA?AT__m128@@AEBT4@AEAH@Z 000000018002e690 f i GuMTD.obj
 0001:0002d760       ?support@GjkConvex@Gu@physx@@UEBA?AT__m128@@AEBT4@@Z 000000018002e760 f i GuMTD.obj
 0001:0002d780       ?support@GjkConvex@Gu@physx@@UEBA?AT__m128@@AEBT4@AEAH@Z 000000018002e780 f i GuMTD.obj
 0001:0002d7a0       ?supportPoint@?$LocalConvex@VCapsuleV@Gu@physx@@@Gu@physx@@UEBA?AT__m128@@H@Z 000000018002e7a0 f i GuMTD.obj
 0001:0002d7d0       ?supportPoint@?$LocalConvex@VConvexHullV@Gu@physx@@@Gu@physx@@UEBA?AT__m128@@H@Z 000000018002e7d0 f i GuMTD.obj
 0001:0002d820       ?supportPoint@GjkConvex@Gu@physx@@UEBA?AT__m128@@H@Z 000000018002e820 f i GuMTD.obj
 0001:0002d840       ?supportPoint@?$RelativeConvex@VBoxV@Gu@physx@@@Gu@physx@@UEBA?AT__m128@@H@Z 000000018002e840 f i GuOverlapTests.obj
 0001:0002d8b0       ?support@?$RelativeConvex@VBoxV@Gu@physx@@@Gu@physx@@UEBA?AT__m128@@AEBT4@@Z 000000018002e8b0 f i GuOverlapTests.obj
 0001:0002d930       ?support@?$RelativeConvex@VBoxV@Gu@physx@@@Gu@physx@@UEBA?AT__m128@@AEBT4@AEAH@Z 000000018002e930 f i GuOverlapTests.obj
 0001:0002d9c0       ?getCenter@?$RelativeConvex@UCustomConvexV@@@Gu@physx@@UEBA?AT__m128@@XZ 000000018002e9c0 f i GuGjkQuery.obj
 0001:0002d9c0       ?getCenter@?$RelativeConvex@VBoxV@Gu@physx@@@Gu@physx@@UEBA?AT__m128@@XZ 000000018002e9c0 f i GuOverlapTests.obj
 0001:0002d9c0       ?getCenter@?$RelativeConvex@VCapsuleV@Gu@physx@@@Gu@physx@@UEBA?AT__m128@@XZ 000000018002e9c0 f i GuCCDSweepPrimitives.obj
 0001:0002d9c0       ?getCenter@?$RelativeConvex@VConvexHullNoScaleV@Gu@physx@@@Gu@physx@@UEBA?AT__m128@@XZ 000000018002e9c0 f i GuPCMContactConvexConvex.obj
 0001:0002d9c0       ?getCenter@?$RelativeConvex@VConvexHullV@Gu@physx@@@Gu@physx@@UEBA?AT__m128@@XZ 000000018002e9c0 f i GuOverlapTests.obj
 0001:0002d9c0       ?getCenter@?$RelativeConvex@VTriangleV@Gu@physx@@@Gu@physx@@UEBA?AT__m128@@XZ 000000018002e9c0 f i GuCCDSweepPrimitives.obj
 0001:0002da00       ??_E?$RelativeConvex@UCustomConvexV@@@Gu@physx@@UEAAPEAXI@Z 000000018002ea00 f i GuGjkQuery.obj
 0001:0002da00       ??_E?$RelativeConvex@VBoxV@Gu@physx@@@Gu@physx@@UEAAPEAXI@Z 000000018002ea00 f i GuOverlapTests.obj
 0001:0002da00       ??_E?$RelativeConvex@VCapsuleV@Gu@physx@@@Gu@physx@@UEAAPEAXI@Z 000000018002ea00 f i GuCCDSweepPrimitives.obj
 0001:0002da00       ??_E?$RelativeConvex@VConvexHullNoScaleV@Gu@physx@@@Gu@physx@@UEAAPEAXI@Z 000000018002ea00 f i GuPCMContactConvexConvex.obj
 0001:0002da00       ??_E?$RelativeConvex@VConvexHullV@Gu@physx@@@Gu@physx@@UEAAPEAXI@Z 000000018002ea00 f i GuOverlapTests.obj
 0001:0002da00       ??_E?$RelativeConvex@VTriangleV@Gu@physx@@@Gu@physx@@UEAAPEAXI@Z 000000018002ea00 f i GuCCDSweepPrimitives.obj
 0001:0002da00       ??_G?$RelativeConvex@UCustomConvexV@@@Gu@physx@@UEAAPEAXI@Z 000000018002ea00 f i GuGjkQuery.obj
 0001:0002da00       ??_G?$RelativeConvex@VBoxV@Gu@physx@@@Gu@physx@@UEAAPEAXI@Z 000000018002ea00 f i GuOverlapTests.obj
 0001:0002da00       ??_G?$RelativeConvex@VCapsuleV@Gu@physx@@@Gu@physx@@UEAAPEAXI@Z 000000018002ea00 f i GuCCDSweepPrimitives.obj
 0001:0002da00       ??_G?$RelativeConvex@VConvexHullNoScaleV@Gu@physx@@@Gu@physx@@UEAAPEAXI@Z 000000018002ea00 f i GuPCMContactConvexConvex.obj
 0001:0002da00       ??_G?$RelativeConvex@VConvexHullV@Gu@physx@@@Gu@physx@@UEAAPEAXI@Z 000000018002ea00 f i GuOverlapTests.obj
 0001:0002da00       ??_G?$RelativeConvex@VTriangleV@Gu@physx@@@Gu@physx@@UEAAPEAXI@Z 000000018002ea00 f i GuCCDSweepPrimitives.obj
 0001:0002fc70       ?supportPoint@?$RelativeConvex@VConvexHullV@Gu@physx@@@Gu@physx@@UEBA?AT__m128@@H@Z 0000000180030c70 f i GuOverlapTests.obj
 0001:0002fcf0       ?support@?$RelativeConvex@VConvexHullV@Gu@physx@@@Gu@physx@@UEBA?AT__m128@@AEBT4@@Z 0000000180030cf0 f i GuOverlapTests.obj
 0001:0002fe20       ?support@?$RelativeConvex@VConvexHullV@Gu@physx@@@Gu@physx@@UEBA?AT__m128@@AEBT4@AEAH@Z 0000000180030e20 f i GuOverlapTests.obj
 0001:000300a0       ?GeomOverlapCallback_ConvexCoreHeightfield@@YA_NAEBVPxGeometry@physx@@AEBV?$PxTransformT@M@2@01PEAUTriggerCache@Gu@2@PEAUPxQueryThreadContext@2@@Z 00000001800310a0 f   GuOverlapTests.obj
 0001:000301b0       ??$gjk@U?$RelativeConvex@VBoxV@Gu@physx@@@Gu@physx@@U?$LocalConvex@VConvexHullV@Gu@physx@@@23@@Gu@physx@@YA?AW4GjkStatus@01@AEBU?$RelativeConvex@VBoxV@Gu@physx@@@01@AEBU?$LocalConvex@VConvexHullV@Gu@physx@@@01@AEBT__m128@@2AEAT5@333@Z 00000001800311b0 f i GuOverlapTests.obj
 0001:00030f70       ??$gjk@U?$RelativeConvex@VConvexHullV@Gu@physx@@@Gu@physx@@U?$LocalConvex@VConvexHullV@Gu@physx@@@23@@Gu@physx@@YA?AW4GjkStatus@01@AEBU?$RelativeConvex@VConvexHullV@Gu@physx@@@01@AEBU?$LocalConvex@VConvexHullV@Gu@physx@@@01@AEBT__m128@@2AEAT5@333@Z 0000000180031f70 f i GuOverlapTests.obj
 0001:00031e30       ?ComputeCubemapNearestOffset@physx@@YAIAEBV?$PxVec3T@M@1@I@Z 0000000180032e30 f i GuOverlapTests.obj
 0001:00031f30       ?getOverlapFuncTable@Gu@physx@@YAPEAY0L@Q6A_NAEBVPxGeometry@2@AEBV?$PxTransformT@M@2@01PEAUTriggerCache@12@PEAUPxQueryThreadContext@2@@ZXZ 0000000180032f30 f   GuOverlapTests.obj
 0001:00033c50       ?support@ConvexShape@Gu@physx@@QEBA?AV?$PxVec3T@M@3@AEBV43@@Z 0000000180034c50 f i GuOverlapTests.obj
 0001:00033fb0       ??_ESupport@PxGjkQuery@physx@@UEAAPEAXI@Z 0000000180034fb0 f i GuRaycastTests.obj
 0001:00033fb0       ??_GSupport@PxGjkQuery@physx@@UEAAPEAXI@Z 0000000180034fb0 f i GuRaycastTests.obj
 0001:00033fe0       ?raycast_box@@YAIAEBVPxGeometry@physx@@AEBV?$PxTransformT@M@2@AEBV?$PxVec3T@M@2@2MV?$PxFlags@W4Enum@PxHitFlag@physx@@G@2@IPEIAUPxGeomRaycastHit@2@IPEAUPxQueryThreadContext@2@@Z 0000000180034fe0 f   GuRaycastTests.obj
 0001:00034630       ?raycast_sphere@@YAIAEBVPxGeometry@physx@@AEBV?$PxTransformT@M@2@AEBV?$PxVec3T@M@2@2MV?$PxFlags@W4Enum@PxHitFlag@physx@@G@2@IPEIAUPxGeomRaycastHit@2@IPEAUPxQueryThreadContext@2@@Z 0000000180035630 f   GuRaycastTests.obj
 0001:000347c0       ?raycast_capsule@@YAIAEBVPxGeometry@physx@@AEBV?$PxTransformT@M@2@AEBV?$PxVec3T@M@2@2MV?$PxFlags@W4Enum@PxHitFlag@physx@@G@2@IPEIAUPxGeomRaycastHit@2@IPEAUPxQueryThreadContext@2@@Z 00000001800357c0 f   GuRaycastTests.obj
 0001:00034d20       ?raycast_plane@@YAIAEBVPxGeometry@physx@@AEBV?$PxTransformT@M@2@AEBV?$PxVec3T@M@2@2MV?$PxFlags@W4Enum@PxHitFlag@physx@@G@2@IPEIAUPxGeomRaycastHit@2@IPEAUPxQueryThreadContext@2@@Z 0000000180035d20 f   GuRaycastTests.obj
 0001:00034e90       ?raycast_convexMesh@@YAIAEBVPxGeometry@physx@@AEBV?$PxTransformT@M@2@AEBV?$PxVec3T@M@2@2MV?$PxFlags@W4Enum@PxHitFlag@physx@@G@2@IPEIAUPxGeomRaycastHit@2@IPEAUPxQueryThreadContext@2@@Z 0000000180035e90 f   GuRaycastTests.obj
 0001:00035990       ?raycast_triangleMesh@@YAIAEBVPxGeometry@physx@@AEBV?$PxTransformT@M@2@AEBV?$PxVec3T@M@2@2MV?$PxFlags@W4Enum@PxHitFlag@physx@@G@2@IPEIAUPxGeomRaycastHit@2@IPEAUPxQueryThreadContext@2@@Z 0000000180036990 f   GuRaycastTests.obj
 0001:00035a20       ?raycast_heightField@@YAIAEBVPxGeometry@physx@@AEBV?$PxTransformT@M@2@AEBV?$PxVec3T@M@2@2MV?$PxFlags@W4Enum@PxHitFlag@physx@@G@2@IPEIAUPxGeomRaycastHit@2@IPEAUPxQueryThreadContext@2@@Z 0000000180036a20 f   GuRaycastTests.obj
 0001:000376d0       ??Dphysx@@YA?AV?$PxMat34T@M@0@AEBVPxMeshScale@0@AEBV?$PxTransformT@M@0@@Z 00000001800386d0 f i GuRaycastTests.obj
 0001:000381b0       ?getRaycastFuncTable@Gu@physx@@YAAEAY0L@Q6AIAEBVPxGeometry@2@AEBV?$PxTransformT@M@2@AEBV?$PxVec3T@M@2@2MV?$PxFlags@W4Enum@PxHitFlag@physx@@G@2@IPEIAUPxGeomRaycastHit@2@IPEAUPxQueryThreadContext@2@@ZXZ 00000001800391b0 f   GuRaycastTests.obj
 0001:000381c0       ?supportLocal@ConvexShape@Gu@physx@@QEBA?AV?$PxVec3T@M@3@AEBV43@@Z 00000001800391c0 f i GuRaycastTests.obj
 0001:00038270       ??Dphysx@@YA?AV?$PxMat34T@M@0@AEBV?$PxTransformT@M@0@AEBVPxMeshScale@0@@Z 0000000180039270 f i GuSweepMTD.obj
 0001:000387b0       ??_E?$MeshHitCallback@UPxGeomRaycastHit@physx@@@Gu@physx@@UEAAPEAXI@Z 00000001800397b0 f i GuSweepMTD.obj
 0001:000387b0       ??_G?$MeshHitCallback@UPxGeomRaycastHit@physx@@@Gu@physx@@UEAAPEAXI@Z 00000001800397b0 f i GuSweepMTD.obj
 0001:000387e0       ??_EMeshMTDGenerationCallback@@UEAAPEAXI@Z 00000001800397e0 f i GuSweepMTD.obj
 0001:000387e0       ??_GMeshMTDGenerationCallback@@UEAAPEAXI@Z 00000001800397e0 f i GuSweepMTD.obj
 0001:00038810       ??_EMidPhaseQueryLocalReport@@UEAAPEAXI@Z 0000000180039810 f i GuSweepMTD.obj
 0001:00038810       ??_ERTreeCookerRemap@@UEAAPEAXI@Z 0000000180039810 f i GuCookingTriangleMesh.obj
 0001:00038810       ??_GMidPhaseQueryLocalReport@@UEAAPEAXI@Z 0000000180039810 f i GuSweepMTD.obj
 0001:00038810       ??_GRTreeCookerRemap@@UEAAPEAXI@Z 0000000180039810 f i GuCookingTriangleMesh.obj
 0001:00038840       ?computeBox_HeightFieldMTD@Gu@physx@@YA_NAEBVPxHeightFieldGeometry@2@AEBV?$PxTransformT@M@2@AEBVBox@12@1M_NAEAUPxGeomSweepHit@2@@Z 0000000180039840 f   GuSweepMTD.obj
 0001:00039600       ?computeBox_TriangleMeshMTD@Gu@physx@@YA_NAEBVPxTriangleMeshGeometry@2@AEBV?$PxTransformT@M@2@AEBVBox@12@1M_NAEAUPxGeomSweepHit@2@@Z 000000018003a600 f   GuSweepMTD.obj
 0001:0003a640       ?computeCapsule_CapsuleMTD@Gu@physx@@YA_NAEBVCapsule@12@0AEAUPxGeomSweepHit@2@@Z 000000018003b640 f   GuSweepMTD.obj
 0001:0003a880       ?computeCapsule_HeightFieldMTD@Gu@physx@@YA_NAEBVPxHeightFieldGeometry@2@AEBV?$PxTransformT@M@2@AEAVCapsuleV@12@M_NAEAUPxGeomSweepHit@2@@Z 000000018003b880 f   GuSweepMTD.obj
 0001:0003b050       ?computeCapsule_TriangleMeshMTD@Gu@physx@@YA_NAEBVPxTriangleMeshGeometry@2@AEBV?$PxTransformT@M@2@AEAVCapsuleV@12@M_NAEAUPxGeomSweepHit@2@@Z 000000018003c050 f   GuSweepMTD.obj
 0001:0003b8f0       ?computeConvex_HeightFieldMTD@Gu@physx@@YA_NAEBVPxHeightFieldGeometry@2@AEBV?$PxTransformT@M@2@AEBVPxConvexMeshGeometry@2@1M_NAEAUPxGeomSweepHit@2@@Z 000000018003c8f0 f   GuSweepMTD.obj
 0001:0003cbf0       ?computeConvex_TriangleMeshMTD@Gu@physx@@YA_NAEBVPxTriangleMeshGeometry@2@AEBV?$PxTransformT@M@2@AEBVPxConvexMeshGeometry@2@1M_NAEAUPxGeomSweepHit@2@@Z 000000018003dbf0 f   GuSweepMTD.obj
 0001:0003e1f0       ?computePlane_BoxMTD@Gu@physx@@YA_NAEBVPxPlane@2@AEBVBox@12@AEAUPxGeomSweepHit@2@@Z 000000018003f1f0 f   GuSweepMTD.obj
 0001:0003e490       ?computePlane_CapsuleMTD@Gu@physx@@YA_NAEBVPxPlane@2@AEBVCapsule@12@AEAUPxGeomSweepHit@2@@Z 000000018003f490 f   GuSweepMTD.obj
 0001:0003e5b0       ?computePlane_ConvexMTD@Gu@physx@@YA_NAEBVPxPlane@2@AEBVPxConvexMeshGeometry@2@AEBV?$PxTransformT@M@2@AEAUPxGeomSweepHit@2@@Z 000000018003f5b0 f   GuSweepMTD.obj
 0001:0003f0e0       ?computeSphere_CapsuleMTD@Gu@physx@@YA_NAEBVSphere@12@AEBVCapsule@12@AEAUPxGeomSweepHit@2@@Z 00000001800400e0 f   GuSweepMTD.obj
 0001:0003f290       ?computeSphere_SphereMTD@Gu@physx@@YA_NAEBVSphere@12@0AEAUPxGeomSweepHit@2@@Z 0000000180040290 f   GuSweepMTD.obj
 0001:0003f380       ?getInverse@?$PxMat33T@M@physx@@QEBA?BV12@XZ 0000000180040380 f i GuSweepMTD.obj
 0001:0003f5d0       ?growAndPushBack@?$PxArray@IV?$PxReflectionAllocator@I@physx@@@physx@@IEAAAEAIAEBI@Z 00000001800405d0 f i GuSweepMTD.obj
 0001:0003f6e0       ?init@FastVertex2ShapeScaling@Cm@physx@@QEAAXAEBV?$PxVec3T@M@3@AEBV?$PxQuatT@M@3@@Z 00000001800406e0 f i GuSweepMTD.obj
 0001:0003ffd0       ?processHit@MeshMTDGenerationCallback@@UEAA_NAEBUPxGeomRaycastHit@physx@@AEBV?$PxVec3T@M@3@11AEAMPEBI@Z 0000000180040fd0 f i GuSweepMTD.obj
 0001:00040020       ?recreate@?$PxArray@IV?$PxReflectionAllocator@I@physx@@@physx@@IEAAXI@Z 0000000180041020 f i GuSweepMTD.obj
 0001:00040110       ?reportTouchedTris@MidPhaseQueryLocalReport@@UEAA_NIPEBI@Z 0000000180041110 f i GuSweepMTD.obj
 0001:00040180       ??$gjkPenetration@U?$LocalConvex@VCapsuleV@Gu@physx@@@Gu@physx@@U?$LocalConvex@VConvexHullV@Gu@physx@@@23@@Gu@physx@@YA?AW4GjkStatus@01@AEBU?$LocalConvex@VCapsuleV@Gu@physx@@@01@AEBU?$LocalConvex@VConvexHullV@Gu@physx@@@01@AEBT__m128@@2_NPEIAE4AEAEAEAUGjkOutput@01@@Z 0000000180041180 f i GuSweepSharedTests.obj
 0001:000401f0       ??$gjkPenetration@U?$LocalConvex@VCapsuleV@Gu@physx@@@Gu@physx@@U?$LocalConvex@VConvexHullV@Gu@physx@@@23@@Gu@physx@@YA?AW4GjkStatus@01@AEBU?$LocalConvex@VCapsuleV@Gu@physx@@@01@AEBU?$LocalConvex@VConvexHullV@Gu@physx@@@01@AEBT__m128@@2_NPEIAE4PEIAT5@5AEAEAEAUGjkOutput@01@@Z 00000001800411f0 f i GuSweepSharedTests.obj
 0001:00041710       ??$gjkPenetration@U?$RelativeConvex@VBoxV@Gu@physx@@@Gu@physx@@U?$LocalConvex@VConvexHullV@Gu@physx@@@23@@Gu@physx@@YA?AW4GjkStatus@01@AEBU?$RelativeConvex@VBoxV@Gu@physx@@@01@AEBU?$LocalConvex@VConvexHullV@Gu@physx@@@01@AEBT__m128@@2_NPEIAE4AEAEAEAUGjkOutput@01@@Z 0000000180042710 f i GuSweepSharedTests.obj
 0001:00041780       ??$gjkPenetration@U?$RelativeConvex@VBoxV@Gu@physx@@@Gu@physx@@U?$LocalConvex@VConvexHullV@Gu@physx@@@23@@Gu@physx@@YA?AW4GjkStatus@01@AEBU?$RelativeConvex@VBoxV@Gu@physx@@@01@AEBU?$LocalConvex@VConvexHullV@Gu@physx@@@01@AEBT__m128@@2_NPEIAE4PEIAT5@5AEAEAEAUGjkOutput@01@@Z 0000000180042780 f i GuSweepSharedTests.obj
 0001:00042d00       ??$gjkPenetration@U?$RelativeConvex@VConvexHullV@Gu@physx@@@Gu@physx@@U?$LocalConvex@VConvexHullV@Gu@physx@@@23@@Gu@physx@@YA?AW4GjkStatus@01@AEBU?$RelativeConvex@VConvexHullV@Gu@physx@@@01@AEBU?$LocalConvex@VConvexHullV@Gu@physx@@@01@AEBT__m128@@2_NPEIAE4AEAEAEAUGjkOutput@01@@Z 0000000180043d00 f i GuSweepSharedTests.obj
 0001:00042d70       ??$gjkPenetration@U?$RelativeConvex@VConvexHullV@Gu@physx@@@Gu@physx@@U?$LocalConvex@VConvexHullV@Gu@physx@@@23@@Gu@physx@@YA?AW4GjkStatus@01@AEBU?$RelativeConvex@VConvexHullV@Gu@physx@@@01@AEBU?$LocalConvex@VConvexHullV@Gu@physx@@@01@AEBT__m128@@2_NPEIAE4PEIAT5@5AEAEAEAUGjkOutput@01@@Z 0000000180043d70 f i GuSweepSharedTests.obj
 0001:00044390       ??$gjkRaycast@U?$LocalConvex@VCapsuleV@Gu@physx@@@Gu@physx@@U?$LocalConvex@VConvexHullV@Gu@physx@@@23@@Gu@physx@@YA_NAEBU?$LocalConvex@VCapsuleV@Gu@physx@@@01@AEBU?$LocalConvex@VConvexHullV@Gu@physx@@@01@AEBT__m128@@222AEAT4@33M@Z 0000000180045390 f i GuSweepSharedTests.obj
 0001:000450f0       ??$gjkRaycast@U?$RelativeConvex@VBoxV@Gu@physx@@@Gu@physx@@U?$LocalConvex@VConvexHullV@Gu@physx@@@23@@Gu@physx@@YA_NAEBU?$RelativeConvex@VBoxV@Gu@physx@@@01@AEBU?$LocalConvex@VConvexHullV@Gu@physx@@@01@AEBT__m128@@222AEAT4@33M@Z 00000001800460f0 f i GuSweepSharedTests.obj
 0001:00045ee0       ??$gjkRaycast@U?$RelativeConvex@VConvexHullV@Gu@physx@@@Gu@physx@@U?$LocalConvex@VConvexHullV@Gu@physx@@@23@@Gu@physx@@YA_NAEBU?$RelativeConvex@VConvexHullV@Gu@physx@@@01@AEBU?$LocalConvex@VConvexHullV@Gu@physx@@@01@AEBT__m128@@222AEAT4@33M@Z 0000000180046ee0 f i GuSweepSharedTests.obj
 0001:00046cb0       ??$gjkRaycastPenetration@U?$RelativeConvex@VConvexHullV@Gu@physx@@@Gu@physx@@U?$LocalConvex@VConvexHullV@Gu@physx@@@23@@Gu@physx@@YA_NAEBU?$RelativeConvex@VConvexHullV@Gu@physx@@@01@AEBU?$LocalConvex@VConvexHullV@Gu@physx@@@01@AEBT__m128@@222AEAT4@33M_N@Z 0000000180047cb0 f i GuSweepSharedTests.obj
 0001:00047880       ?sweepBox_ConvexGeom@@YA_NAEBVPxGeometry@physx@@AEBV?$PxTransformT@M@2@AEBVPxBoxGeometry@2@1AEBVBox@Gu@2@AEBV?$PxVec3T@M@2@MAEAUPxGeomSweepHit@2@V?$PxFlags@W4Enum@PxHitFlag@physx@@G@2@MPEAUPxQueryThreadContext@2@@Z 0000000180048880 f   GuSweepSharedTests.obj
 0001:000486a0       ?sweepBox_PlaneGeom@@YA_NAEBVPxGeometry@physx@@AEBV?$PxTransformT@M@2@AEBVPxBoxGeometry@2@1AEBVBox@Gu@2@AEBV?$PxVec3T@M@2@MAEAUPxGeomSweepHit@2@V?$PxFlags@W4Enum@PxHitFlag@physx@@G@2@MPEAUPxQueryThreadContext@2@@Z 00000001800496a0 f   GuSweepSharedTests.obj
 0001:00048a70       ?sweepCapsuleTriangles@Gu@physx@@YA_NIPEBVPxTriangle@2@_NAEBVPxCapsuleGeometry@2@AEBV?$PxTransformT@M@2@AEBV?$PxVec3T@M@2@MAEAUPxGeomSweepHit@2@PEBIMV?$PxFlags@W4Enum@PxHitFlag@physx@@G@2@@Z 0000000180049a70 f   GuSweepSharedTests.obj
 0001:00048c60       ?sweepCapsule_CapsuleGeom@@YA_NAEBVPxGeometry@physx@@AEBV?$PxTransformT@M@2@AEBVPxCapsuleGeometry@2@1AEBVCapsule@Gu@2@AEBV?$PxVec3T@M@2@MAEAUPxGeomSweepHit@2@V?$PxFlags@W4Enum@PxHitFlag@physx@@G@2@MPEAUPxQueryThreadContext@2@@Z 0000000180049c60 f   GuSweepSharedTests.obj
 0001:00048e40       ?sweepCapsule_ConvexGeom@@YA_NAEBVPxGeometry@physx@@AEBV?$PxTransformT@M@2@AEBVPxCapsuleGeometry@2@1AEBVCapsule@Gu@2@AEBV?$PxVec3T@M@2@MAEAUPxGeomSweepHit@2@V?$PxFlags@W4Enum@PxHitFlag@physx@@G@2@MPEAUPxQueryThreadContext@2@@Z 0000000180049e40 f   GuSweepSharedTests.obj
 0001:00049b70       ?sweepCapsule_PlaneGeom@@YA_NAEBVPxGeometry@physx@@AEBV?$PxTransformT@M@2@AEBVPxCapsuleGeometry@2@1AEBVCapsule@Gu@2@AEBV?$PxVec3T@M@2@MAEAUPxGeomSweepHit@2@V?$PxFlags@W4Enum@PxHitFlag@physx@@G@2@MPEAUPxQueryThreadContext@2@@Z 000000018004ab70 f   GuSweepSharedTests.obj
 0001:00049e50       ?sweepCapsule_SphereGeom@@YA_NAEBVPxGeometry@physx@@AEBV?$PxTransformT@M@2@AEBVPxCapsuleGeometry@2@1AEBVCapsule@Gu@2@AEBV?$PxVec3T@M@2@MAEAUPxGeomSweepHit@2@V?$PxFlags@W4Enum@PxHitFlag@physx@@G@2@MPEAUPxQueryThreadContext@2@@Z 000000018004ae50 f   GuSweepSharedTests.obj
 0001:00049ff0       ?sweepConvex_BoxGeom@@YA_NAEBVPxGeometry@physx@@AEBV?$PxTransformT@M@2@AEBVPxConvexMeshGeometry@2@1AEBV?$PxVec3T@M@2@MAEAUPxGeomSweepHit@2@V?$PxFlags@W4Enum@PxHitFlag@physx@@G@2@MPEAUPxQueryThreadContext@2@@Z 000000018004aff0 f   GuSweepSharedTests.obj
 0001:0004a210       ?sweepConvex_CapsuleGeom@@YA_NAEBVPxGeometry@physx@@AEBV?$PxTransformT@M@2@AEBVPxConvexMeshGeometry@2@1AEBV?$PxVec3T@M@2@MAEAUPxGeomSweepHit@2@V?$PxFlags@W4Enum@PxHitFlag@physx@@G@2@MPEAUPxQueryThreadContext@2@@Z 000000018004b210 f   GuSweepSharedTests.obj
 0001:0004a440       ?sweepConvex_ConvexGeom@@YA_NAEBVPxGeometry@physx@@AEBV?$PxTransformT@M@2@AEBVPxConvexMeshGeometry@2@1AEBV?$PxVec3T@M@2@MAEAUPxGeomSweepHit@2@V?$PxFlags@W4Enum@PxHitFlag@physx@@G@2@MPEAUPxQueryThreadContext@2@@Z 000000018004b440 f   GuSweepSharedTests.obj
 0001:0004b450       ?sweepConvex_PlaneGeom@@YA_NAEBVPxGeometry@physx@@AEBV?$PxTransformT@M@2@AEBVPxConvexMeshGeometry@2@1AEBV?$PxVec3T@M@2@MAEAUPxGeomSweepHit@2@V?$PxFlags@W4Enum@PxHitFlag@physx@@G@2@MPEAUPxQueryThreadContext@2@@Z 000000018004c450 f   GuSweepSharedTests.obj
 0001:0004b890       ?sweepConvex_SphereGeom@@YA_NAEBVPxGeometry@physx@@AEBV?$PxTransformT@M@2@AEBVPxConvexMeshGeometry@2@1AEBV?$PxVec3T@M@2@MAEAUPxGeomSweepHit@2@V?$PxFlags@W4Enum@PxHitFlag@physx@@G@2@MPEAUPxQueryThreadContext@2@@Z 000000018004c890 f   GuSweepSharedTests.obj
 0001:0004c450       ?sweepConvex_ConvexCoreGeom@@YA_NAEBVPxGeometry@physx@@AEBV?$PxTransformT@M@2@AEBVPxConvexMeshGeometry@2@1AEBV?$PxVec3T@M@2@MAEAUPxGeomSweepHit@2@V?$PxFlags@W4Enum@PxHitFlag@physx@@G@2@MPEAUPxQueryThreadContext@2@@Z 000000018004d450 f   GuSweepTests.obj
 0001:0004e2e0       ?sweepConvexCore_HeightFieldGeom@@YA_NAEBVPxGeometry@physx@@AEBV?$PxTransformT@M@2@AEBVPxConvexCoreGeometry@2@1AEBV?$PxVec3T@M@2@MAEAUPxGeomSweepHit@2@V?$PxFlags@W4Enum@PxHitFlag@physx@@G@2@MPEAUPxQueryThreadContext@2@@Z 000000018004f2e0 f   GuSweepTests.obj
 0001:0004eb10       ?sweepCapsule_BoxGeom@@YA_NAEBVPxGeometry@physx@@AEBV?$PxTransformT@M@2@AEBVPxCapsuleGeometry@2@1AEBVCapsule@Gu@2@AEBV?$PxVec3T@M@2@MAEAUPxGeomSweepHit@2@V?$PxFlags@W4Enum@PxHitFlag@physx@@G@2@MPEAUPxQueryThreadContext@2@@Z 000000018004fb10 f   GuSweepTests.obj
 0001:0004f3c0       ?sweepBox_SphereGeom@@YA_NAEBVPxGeometry@physx@@AEBV?$PxTransformT@M@2@AEBVPxBoxGeometry@2@1AEBVBox@Gu@2@AEBV?$PxVec3T@M@2@MAEAUPxGeomSweepHit@2@V?$PxFlags@W4Enum@PxHitFlag@physx@@G@2@MPEAUPxQueryThreadContext@2@@Z 00000001800503c0 f   GuSweepTests.obj
 0001:0004faa0       ?sweepBox_CapsuleGeom@@YA_NAEBVPxGeometry@physx@@AEBV?$PxTransformT@M@2@AEBVPxBoxGeometry@2@1AEBVBox@Gu@2@AEBV?$PxVec3T@M@2@MAEAUPxGeomSweepHit@2@V?$PxFlags@W4Enum@PxHitFlag@physx@@G@2@MPEAUPxQueryThreadContext@2@@Z 0000000180050aa0 f   GuSweepTests.obj
 0001:00050370       ?sweepBox_BoxGeom@@YA_NAEBVPxGeometry@physx@@AEBV?$PxTransformT@M@2@AEBVPxBoxGeometry@2@1AEBVBox@Gu@2@AEBV?$PxVec3T@M@2@MAEAUPxGeomSweepHit@2@V?$PxFlags@W4Enum@PxHitFlag@physx@@G@2@MPEAUPxQueryThreadContext@2@@Z 0000000180051370 f   GuSweepTests.obj
 0001:00050c50       ??$gjkPenetration@U?$LocalConvex@VCapsuleV@Gu@physx@@@Gu@physx@@U?$LocalConvex@VBoxV@Gu@physx@@@23@@Gu@physx@@YA?AW4GjkStatus@01@AEBU?$LocalConvex@VCapsuleV@Gu@physx@@@01@AEBU?$LocalConvex@VBoxV@Gu@physx@@@01@AEBT__m128@@2_NPEIAE4AEAEAEAUGjkOutput@01@@Z 0000000180051c50 f i GuSweepTests.obj
 0001:00050cc0       ??$gjkPenetration@U?$LocalConvex@VCapsuleV@Gu@physx@@@Gu@physx@@U?$LocalConvex@VBoxV@Gu@physx@@@23@@Gu@physx@@YA?AW4GjkStatus@01@AEBU?$LocalConvex@VCapsuleV@Gu@physx@@@01@AEBU?$LocalConvex@VBoxV@Gu@physx@@@01@AEBT__m128@@2_NPEIAE4PEIAT5@5AEAEAEAUGjkOutput@01@@Z 0000000180051cc0 f i GuSweepTests.obj
 0001:00052140       ??$gjkPenetration@U?$RelativeConvex@VBoxV@Gu@physx@@@Gu@physx@@U?$LocalConvex@VBoxV@Gu@physx@@@23@@Gu@physx@@YA?AW4GjkStatus@01@AEBU?$RelativeConvex@VBoxV@Gu@physx@@@01@AEBU?$LocalConvex@VBoxV@Gu@physx@@@01@AEBT__m128@@2_NPEIAE4AEAEAEAUGjkOutput@01@@Z 0000000180053140 f i GuSweepTests.obj
 0001:000521b0       ??$gjkPenetration@U?$RelativeConvex@VBoxV@Gu@physx@@@Gu@physx@@U?$LocalConvex@VBoxV@Gu@physx@@@23@@Gu@physx@@YA?AW4GjkStatus@01@AEBU?$RelativeConvex@VBoxV@Gu@physx@@@01@AEBU?$LocalConvex@VBoxV@Gu@physx@@@01@AEBT__m128@@2_NPEIAE4PEIAT5@5AEAEAEAUGjkOutput@01@@Z 00000001800531b0 f i GuSweepTests.obj
 0001:00053660       ??$gjkRaycast@U?$LocalConvex@VCapsuleV@Gu@physx@@@Gu@physx@@U?$LocalConvex@VBoxV@Gu@physx@@@23@@Gu@physx@@YA_NAEBU?$LocalConvex@VCapsuleV@Gu@physx@@@01@AEBU?$LocalConvex@VBoxV@Gu@physx@@@01@AEBT__m128@@222AEAT4@33M@Z 0000000180054660 f i GuSweepTests.obj
 0001:00054240       ??$gjkRaycast@U?$LocalConvex@VTriangleV@Gu@physx@@@Gu@physx@@U?$LocalConvex@VBoxV@Gu@physx@@@23@@Gu@physx@@YA_NAEBU?$LocalConvex@VTriangleV@Gu@physx@@@01@AEBU?$LocalConvex@VBoxV@Gu@physx@@@01@AEBT__m128@@222AEAT4@33M@Z 0000000180055240 f i GuSweepTests.obj
 0001:00054e90       ??$gjkRaycast@U?$RelativeConvex@VBoxV@Gu@physx@@@Gu@physx@@U?$LocalConvex@VBoxV@Gu@physx@@@23@@Gu@physx@@YA_NAEBU?$RelativeConvex@VBoxV@Gu@physx@@@01@AEBU?$LocalConvex@VBoxV@Gu@physx@@@01@AEBT__m128@@222AEAT4@33M@Z 0000000180055e90 f i GuSweepTests.obj
 0001:00055b60       ?getSweepFuncTable@Gu@physx@@YAAEBUGeomSweepFuncs@12@XZ 0000000180056b60 f   GuSweepTests.obj
 0001:00055b70       ?getSweepMargin@?$LocalConvex@VTetrahedronV@Gu@physx@@@Gu@physx@@UEBA?AT__m128@@XZ 0000000180056b70 f i GuCookingTetrahedronMesh.obj
 0001:00055b70       ?getSweepMargin@?$LocalConvex@VTriangleV@Gu@physx@@@Gu@physx@@UEBA?AT__m128@@XZ 0000000180056b70 f i GuSweepTests.obj
 0001:00055b70       ?getSweepMargin@?$RelativeConvex@VTriangleV@Gu@physx@@@Gu@physx@@UEBA?AT__m128@@XZ 0000000180056b70 f i GuCCDSweepPrimitives.obj
 0001:00055d30       ?support@?$LocalConvex@VBoxV@Gu@physx@@@Gu@physx@@UEBA?AT__m128@@AEBT4@@Z 0000000180056d30 f i GuSweepTests.obj
 0001:00055d60       ?support@?$LocalConvex@VBoxV@Gu@physx@@@Gu@physx@@UEBA?AT__m128@@AEBT4@AEAH@Z 0000000180056d60 f i GuSweepTests.obj
 0001:00055da0       ?support@?$LocalConvex@VTriangleV@Gu@physx@@@Gu@physx@@UEBA?AT__m128@@AEBT4@@Z 0000000180056da0 f i GuSweepTests.obj
 0001:00055e30       ?support@?$LocalConvex@VTriangleV@Gu@physx@@@Gu@physx@@UEBA?AT__m128@@AEBT4@AEAH@Z 0000000180056e30 f i GuSweepTests.obj
 0001:00056510       ?supportPoint@?$LocalConvex@VBoxV@Gu@physx@@@Gu@physx@@UEBA?AT__m128@@H@Z 0000000180057510 f i GuSweepTests.obj
 0001:00056550       ?supportPoint@?$LocalConvex@VTetrahedronV@Gu@physx@@@Gu@physx@@UEBA?AT__m128@@H@Z 0000000180057550 f i GuCookingTetrahedronMesh.obj
 0001:00056550       ?supportPoint@?$LocalConvex@VTriangleV@Gu@physx@@@Gu@physx@@UEBA?AT__m128@@H@Z 0000000180057550 f i GuSweepTests.obj
 0001:00056570       ?sweepBoxTriangles@Gu@physx@@YA_NIPEBVPxTriangle@2@_NAEBVPxBoxGeometry@2@AEBV?$PxTransformT@M@2@AEBV?$PxVec3T@M@2@MAEAUPxGeomSweepHit@2@PEBIMV?$PxFlags@W4Enum@PxHitFlag@physx@@G@2@@Z 0000000180057570 f   GuSweepTests.obj
 0001:00056fe0       ??$PxSort@HU?$Comparer@V?$PxVec3T@M@physx@@@MeshAnalyzer@Gu@physx@@V?$PxReflectionAllocator@H@4@@physx@@YAXPEAHIAEBU?$Comparer@V?$PxVec3T@M@physx@@@MeshAnalyzer@Gu@0@AEBV?$PxReflectionAllocator@H@0@I@Z 0000000180057fe0 f i GuSDF.obj
 0001:00057610       ??$PxSort@HU?$PxLess@H@physx@@V?$PxReflectionAllocator@H@2@@physx@@YAXPEAHIAEBU?$PxLess@H@0@AEBV?$PxReflectionAllocator@H@0@I@Z 0000000180058610 f i GuSDF.obj
 0001:00057a50       ??$copy@V?$PxReflectionAllocator@I@physx@@@?$PxArray@IV?$PxReflectionAllocator@I@physx@@@physx@@IEAAXAEBV01@@Z 0000000180058a50 f i GuSDF.obj
 0001:00057ac0       ??$copy@V?$PxReflectionAllocator@M@physx@@@?$PxArray@MV?$PxReflectionAllocator@M@physx@@@physx@@IEAAXAEBV01@@Z 0000000180058ac0 f i GuSDF.obj
 0001:00057b20       ??$copy@V?$PxReflectionAllocator@V?$PxVec3T@M@physx@@@physx@@@?$PxArray@V?$PxVec3T@M@physx@@V?$PxReflectionAllocator@V?$PxVec3T@M@physx@@@2@@physx@@IEAAXAEBV01@@Z 0000000180058b20 f i GuSDF.obj
 0001:00057b80       ??$mapDuplicatePoints@V?$PxVec3T@M@physx@@M@MeshAnalyzer@Gu@physx@@SAXPEBV?$PxVec3T@M@2@IAEAV?$PxArray@HV?$PxReflectionAllocator@H@physx@@@2@M@Z 0000000180058b80 f i GuSDF.obj
 0001:00057f00       ??$splitRanges@V?$PxVec3T@M@physx@@M@MeshAnalyzer@Gu@physx@@CAXAEAV?$PxArray@URange@MeshAnalyzer@Gu@physx@@V?$PxReflectionAllocator@URange@MeshAnalyzer@Gu@physx@@@4@@2@AEBV?$PxArray@HV?$PxReflectionAllocator@H@physx@@@2@PEBV?$PxVec3T@M@2@HM@Z 0000000180058f00 f i GuSDF.obj
 0001:00058170       ??$traverseBVH@VClosestDistanceToTrimeshTraversalController@Gu@physx@@@Gu@physx@@YAXPEBUBVHNode@01@AEAVClosestDistanceToTrimeshTraversalController@01@H@Z 0000000180059170 f i GuSDF.obj
 0001:00058560       ??$traverseBVH@VLineSegmentTrimeshIntersectionTraversalController@Gu@physx@@@Gu@physx@@YAXPEBUBVHNode@01@AEAVLineSegmentTrimeshIntersectionTraversalController@01@H@Z 0000000180059560 f i GuSDF.obj
 0001:00058a60       ??0?$PxThreadT@V?$PxReflectionAllocator@VPxThreadImpl@physx@@@physx@@@physx@@QEAA@P6APEAXPEAX@Z0PEBDAEBV?$PxReflectionAllocator@VPxThreadImpl@physx@@@1@@Z 0000000180059a60 f i GuSDF.obj
 0001:00058b20       ??0CellToPoint@Gu@physx@@QEAA@I@Z 0000000180059b20 f i GuSDF.obj
 0001:00058c20       ??0IsosurfaceThreadData@Gu@physx@@QEAA@AEBU012@@Z 0000000180059c20 f i GuSDF.obj
 0001:00058ca0       ??1CellToPoint@Gu@physx@@QEAA@XZ 0000000180059ca0 f i GuSDF.obj
 0001:00058d80       ??1IsosurfaceThreadData@Gu@physx@@QEAA@XZ 0000000180059d80 f i GuSDF.obj
 0001:00058e30       ??1SDF@Gu@physx@@QEAA@XZ   0000000180059e30 f   GuSDF.obj
 0001:00058ed0       ??_E?$PxThreadT@V?$PxReflectionAllocator@VPxThreadImpl@physx@@@physx@@@physx@@UEAAPEAXI@Z 0000000180059ed0 f i GuSDF.obj
 0001:00058ed0       ??_G?$PxThreadT@V?$PxReflectionAllocator@VPxThreadImpl@physx@@@physx@@@physx@@UEAAPEAXI@Z 0000000180059ed0 f i GuSDF.obj
 0001:00058f80       ??_EPxRunnable@physx@@UEAAPEAXI@Z 0000000180059f80 f i GuSDF.obj
 0001:00058f80       ??_GPxRunnable@physx@@UEAAPEAXI@Z 0000000180059f80 f i GuSDF.obj
 0001:00058fb0       ?PxCreatePointOntoTriangleMeshProjector@Gu@physx@@YAPEAVPxPointOntoTriangleMeshProjector@12@PEBV?$PxVec3T@M@2@PEBII@Z 0000000180059fb0 f   GuSDF.obj
 0001:000590b0       ?SDFUsingWindingNumbers@Gu@physx@@YAXAEAV?$PxArray@UBVHNode@Gu@physx@@V?$PxReflectionAllocator@UBVHNode@Gu@physx@@@3@@2@AEAV?$PxHashMap@IU?$ClusterApproximationT@MV?$PxVec3T@M@physx@@@Gu@physx@@U?$PxHash@I@3@VPxAllocator@3@@2@PEBV?$PxVec3T@M@2@PEBIIIIIPEAMAEAUGridQueryPointSampler@12@PEAV52@I_N7@Z 000000018005a0b0 f   GuSDF.obj
 0001:000595d0       ?SDFUsingWindingNumbers@Gu@physx@@YAXPEBV?$PxVec3T@M@2@PEBIIIIIPEAMV32@3PEAV32@_NIPEAVPxSDFBuilder@2@@Z 000000018005a5d0 f   GuSDF.obj
 0001:00059aa0       ?SDFUsingWindingNumbersSparse@Gu@physx@@YAXPEBV?$PxVec3T@M@2@PEBIIIIIAEBV32@2MIAEAV?$PxArray@MV?$PxReflectionAllocator@M@physx@@@2@AEAV?$PxArray@IV?$PxReflectionAllocator@I@physx@@@2@33AEAM5IPEAVPxSDFBuilder@2@@Z 000000018005aaa0 f   GuSDF.obj
 0001:0005a4f0       ?allocate@?$PxArray@IV?$PxReflectionAllocator@I@physx@@@physx@@IEAAPEAIIPEAI@Z 000000018005b4f0 f i GuSDF.obj
 0001:0005a570       ?allocate@?$PxArray@MV?$PxReflectionAllocator@M@physx@@@physx@@IEAAPEAMIPEAI@Z 000000018005b570 f i GuSDF.obj
 0001:0005a5f0       ?allocate@?$PxArray@V?$PxVec3T@M@physx@@V?$PxReflectionAllocator@V?$PxVec3T@M@physx@@@2@@physx@@IEAAPEAV?$PxVec3T@M@2@IPEAI@Z 000000018005b5f0 f i GuSDF.obj
 0001:0005a670       ?allocateSdfs@SDF@Gu@physx@@QEAAPEAMAEBV?$PxVec3T@M@3@AEBMIIIIIIIMMI@Z 000000018005b670 f   GuSDF.obj
 0001:0005a880       ?analyzeAndFixMesh@Gu@physx@@YAXPEBV?$PxVec3T@M@2@PEBIIAEAV?$PxArray@IV?$PxReflectionAllocator@I@physx@@@2@@Z 000000018005b880 f   GuSDF.obj
 0001:0005b0d0       ?buildTree@Gu@physx@@YAXPEBIIPEBV?$PxVec3T@M@2@AEAV?$PxArray@UBVHNode@Gu@physx@@V?$PxReflectionAllocator@UBVHNode@Gu@physx@@@3@@2@M@Z 000000018005c0d0 f   GuSDF.obj
 0001:0005b300       ?computeIsosurfaceTrianglesThreadJob@Gu@physx@@YAPEAXPEAX@Z 000000018005c300 f   GuSDF.obj
 0001:0005b6d0       ?computeIsosurfaceVerticesThreadJob@Gu@physx@@YAPEAXPEAX@Z 000000018005c6d0 f   GuSDF.obj
 0001:0005bb90       ?computeSDFThreadJob@Gu@physx@@YAPEAXPEAX@Z 000000018005cb90 f   GuSDF.obj
 0001:0005c640       ?convertSparseSDFTo3DTextureLayout@Gu@physx@@YAXIIIIPEAIPEBMIAEAV?$PxArray@MV?$PxReflectionAllocator@M@physx@@@2@AEAI33@Z 000000018005d640 f   GuSDF.obj
 0001:0005c9c0       ?copy@?$PxArray@MV?$PxReflectionAllocator@M@physx@@@physx@@KAXPEAM0PEBM@Z 000000018005d9c0 f i GuSDF.obj
 0001:0005ca20       ?copy@?$PxArray@V?$PxVec3T@M@physx@@V?$PxReflectionAllocator@V?$PxVec3T@M@physx@@@2@@physx@@KAXPEAV?$PxVec3T@M@2@0PEBV32@@Z 000000018005da20 f i GuSDF.obj
 0001:0005caf0       ?create@?$PxHashBase@V?$PxPair@$$CBUSortedTriangle@Gu@physx@@H@physx@@USortedTriangle@Gu@2@UTriangleHash@42@UGetKey@?$PxHashMapBase@USortedTriangle@Gu@physx@@HUTriangleHash@23@VPxAllocator@3@@2@VPxAllocator@2@$00@physx@@QEAAPEAV?$PxPair@$$CBUSortedTriangle@Gu@physx@@H@2@AEBUSortedTriangle@Gu@2@AEA_N@Z 000000018005daf0 f i GuSDF.obj
 0001:0005cc20       ?create@?$PxHashBase@V?$PxPair@$$CB_KH@physx@@_KU?$PxHash@_K@2@UGetKey@?$PxHashMapBase@_KHU?$PxHash@_K@physx@@VPxAllocator@2@@2@VPxAllocator@2@$00@physx@@QEAAPEAV?$PxPair@$$CB_KH@2@AEB_KAEA_N@Z 000000018005dc20 f i GuMeshAnalysis.obj
 0001:0005cc20       ?create@?$PxHashBase@V?$PxPair@$$CB_KI@physx@@_KU?$PxHash@_K@2@UGetKey@?$PxHashMapBase@_KIU?$PxHash@_K@physx@@VPxAllocator@2@@2@VPxAllocator@2@$00@physx@@QEAAPEAV?$PxPair@$$CB_KI@2@AEB_KAEA_N@Z 000000018005dc20 f i GuSDF.obj
 0001:0005cdb0       ?createTriangles@Gu@physx@@YAXHHHMQEAMAEBUCellToPoint@12@AEBV?$PxArray@V?$PxVec3T@M@physx@@V?$PxReflectionAllocator@V?$PxVec3T@M@physx@@@2@@2@AEAV?$PxArray@IV?$PxReflectionAllocator@I@physx@@@2@@Z 000000018005ddb0 f i GuSDF.obj
 0001:0005d670       ?decodeDense@SDF@Gu@physx@@QEBAMHHH@Z 000000018005e670 f   GuSDF.obj
 0001:0005d970       ?decodeSparse@SDF@Gu@physx@@QEBAMHHH@Z 000000018005e970 f   GuSDF.obj
 0001:0005d980       ?exportExtraData@SDF@Gu@physx@@QEAAXAEAVPxSerializationContext@3@@Z 000000018005e980 f   GuSDF.obj
 0001:0005da20       ?extractIsosurfaceFromSDF@Gu@physx@@YAXAEBVSDF@12@AEAV?$PxArray@V?$PxVec3T@M@physx@@V?$PxReflectionAllocator@V?$PxVec3T@M@physx@@@2@@2@AEAV?$PxArray@IV?$PxReflectionAllocator@I@physx@@@2@I@Z 000000018005ea20 f   GuSDF.obj
 0001:0005e320       ?extractIsosurfaceFromSDFSerial@Gu@physx@@YAXAEBVSDF@12@AEAV?$PxArray@V?$PxVec3T@M@physx@@V?$PxReflectionAllocator@V?$PxVec3T@M@physx@@@2@@2@AEAV?$PxArray@IV?$PxReflectionAllocator@I@physx@@@2@@Z 000000018005f320 f   GuSDF.obj
 0001:0005f150       ?find@CellToPoint@Gu@physx@@QEBAPEBV?$PxPair@$$CB_KI@3@HHH@Z 0000000180060150 f i GuSDF.obj
 0001:0005f260       ?fixSdfForNonClosedGeometry@Gu@physx@@YAXIIIPEAMAEBV?$PxVec3T@M@2@@Z 0000000180060260 f   GuSDF.obj
 0001:000602f0       ?generatePointInCell@Gu@physx@@YA_NAEBVSDF@12@HHHAEAV?$PxVec3T@M@2@QEAY111M@Z 00000001800612f0 f   GuSDF.obj
 0001:000606e0       ?growAndPushBack@?$PxArray@HV?$PxInlineAllocator@$0EAA@V?$PxReflectionAllocator@H@physx@@@physx@@@physx@@IEAAAEAHAEBH@Z 00000001800616e0 f i GuSDF.obj
 0001:00060840       ?growAndPushBack@?$PxArray@MV?$PxReflectionAllocator@M@physx@@@physx@@IEAAAEAMAEBM@Z 0000000180061840 f i GuSDF.obj
 0001:00060980       ?growAndPushBack@?$PxArray@PEAV?$PxThreadT@V?$PxReflectionAllocator@VPxThreadImpl@physx@@@physx@@@physx@@V?$PxReflectionAllocator@PEAV?$PxThreadT@V?$PxReflectionAllocator@VPxThreadImpl@physx@@@physx@@@physx@@@2@@physx@@IEAAAEAPEAV?$PxThreadT@V?$PxReflectionAllocator@VPxThreadImpl@physx@@@physx@@@2@AEBQEAV32@@Z 0000000180061980 f i GuSDF.obj
 0001:00060a90       ?growAndPushBack@?$PxArray@UIsosurfaceThreadData@Gu@physx@@V?$PxReflectionAllocator@UIsosurfaceThreadData@Gu@physx@@@3@@physx@@IEAAAEAUIsosurfaceThreadData@Gu@2@AEBU342@@Z 0000000180061a90 f i GuSDF.obj
 0001:00060c50       ?growAndPushBack@?$PxArray@UMutation@Gu@physx@@V?$PxReflectionAllocator@UMutation@Gu@physx@@@3@@physx@@IEAAAEAUMutation@Gu@2@AEBU342@@Z 0000000180061c50 f i GuSDF.obj
 0001:00060d60       ?growAndPushBack@?$PxArray@URange@Gu@physx@@V?$PxReflectionAllocator@URange@Gu@physx@@@3@@physx@@IEAAAEAURange@Gu@2@AEBU342@@Z 0000000180061d60 f i GuSDF.obj
 0001:00060e90       ?growAndPushBack@?$PxArray@URange@MeshAnalyzer@Gu@physx@@V?$PxReflectionAllocator@URange@MeshAnalyzer@Gu@physx@@@4@@physx@@IEAAAEAURange@MeshAnalyzer@Gu@2@AEBU3452@@Z 0000000180061e90 f i GuSDF.obj
 0001:00060fa0       ?growAndPushBack@?$PxArray@USDFCalculationData@Gu@physx@@V?$PxReflectionAllocator@USDFCalculationData@Gu@physx@@@3@@physx@@IEAAAEAUSDFCalculationData@Gu@2@AEBU342@@Z 0000000180061fa0 f i GuSDF.obj
 0001:00061120       ?growAndPushBack@?$PxArray@V?$PxVec3T@M@physx@@V?$PxReflectionAllocator@V?$PxVec3T@M@physx@@@2@@physx@@IEAAAEAV?$PxVec3T@M@2@AEBV32@@Z 0000000180062120 f i GuSDF.obj
 0001:00061240       ?importExtraData@SDF@Gu@physx@@QEAAXAEAVPxDeserializationContext@3@@Z 0000000180062240 f   GuSDF.obj
 0001:000612b0       ?populateSubgridCache@Gu@physx@@YAXAEBVSDF@12@AEAV?$PxArray@MV?$PxReflectionAllocator@M@physx@@@2@HHH@Z 00000001800622b0 f i GuSDF.obj
 0001:00061650       ?projectPoint@PointOntoTriangleMeshProjector@Gu@physx@@UEAA?AV?$PxVec3T@M@3@AEBV43@@Z 0000000180062650 f i GuSDF.obj
 0001:000616c0       ?projectPoint@PointOntoTriangleMeshProjector@Gu@physx@@UEAA?AV?$PxVec3T@M@3@AEBV43@AEAI@Z 00000001800626c0 f i GuSDF.obj
 0001:00061740       ?recreate@?$PxArray@HV?$PxReflectionAllocator@H@physx@@@physx@@IEAAXI@Z 0000000180062740 f i GuSDF.obj
 0001:00061830       ?recreate@?$PxArray@MV?$PxReflectionAllocator@M@physx@@@physx@@IEAAXI@Z 0000000180062830 f i GuSDF.obj
 0001:00061950       ?recreate@?$PxArray@PEAUMap@Gu@physx@@V?$PxReflectionAllocator@PEAUMap@Gu@physx@@@3@@physx@@IEAAXI@Z 0000000180062950 f i GuSDF.obj
 0001:00061a40       ?recreate@?$PxArray@UBVHNode@Gu@physx@@V?$PxReflectionAllocator@UBVHNode@Gu@physx@@@3@@physx@@IEAAXI@Z 0000000180062a40 f i GuSDF.obj
 0001:00061c80       ?recreate@?$PxArray@V?$PxVec3T@M@physx@@V?$PxReflectionAllocator@V?$PxVec3T@M@physx@@@2@@physx@@IEAAXI@Z 0000000180062c80 f i GuSDF.obj
 0001:00061d60       ?release@PointOntoTriangleMeshProjector@Gu@physx@@UEAAXXZ 0000000180062d60 f i GuSDF.obj
 0001:00061db0       ?reserveInternal@?$PxHashBase@V?$PxPair@$$CBIU?$ClusterApproximationT@MV?$PxVec3T@M@physx@@@Gu@physx@@@physx@@IU?$PxHash@I@2@UGetKey@?$PxHashMapBase@IU?$ClusterApproximationT@MV?$PxVec3T@M@physx@@@Gu@physx@@U?$PxHash@I@3@VPxAllocator@3@@2@VPxAllocator@2@$00@physx@@AEAAXI@Z 0000000180062db0 f i GuSDF.obj
 0001:00061fc0       ?reserveInternal@?$PxHashBase@V?$PxPair@$$CBUSortedTriangle@Gu@physx@@H@physx@@USortedTriangle@Gu@2@UTriangleHash@42@UGetKey@?$PxHashMapBase@USortedTriangle@Gu@physx@@HUTriangleHash@23@VPxAllocator@3@@2@VPxAllocator@2@$00@physx@@AEAAXI@Z 0000000180062fc0 f i GuSDF.obj
 0001:00062170       ?reserveInternal@?$PxHashBase@V?$PxPair@$$CB_KH@physx@@_KU?$PxHash@_K@2@UGetKey@?$PxHashMapBase@_KHU?$PxHash@_K@physx@@VPxAllocator@2@@2@VPxAllocator@2@$00@physx@@AEAAXI@Z 0000000180063170 f i GuSDF.obj
 0001:00062170       ?reserveInternal@?$PxHashBase@V?$PxPair@$$CB_KI@physx@@_KU?$PxHash@_K@2@UGetKey@?$PxHashMapBase@_KIU?$PxHash@_K@physx@@VPxAllocator@2@@2@VPxAllocator@2@$00@physx@@AEAAXI@Z 0000000180063170 f i GuSDF.obj
 0001:00062360       ?resize@?$PxArray@IV?$PxReflectionAllocator@I@physx@@@physx@@QEAAXIAEBI@Z 0000000180063360 f i GuSDF.obj
 0001:00062420       ?resize@?$PxArray@MV?$PxReflectionAllocator@M@physx@@@physx@@QEAAXIAEBM@Z 0000000180063420 f i GuSDF.obj
 0001:00062520       ?resize@?$PxArray@PEAUMap@Gu@physx@@V?$PxReflectionAllocator@PEAUMap@Gu@physx@@@3@@physx@@QEAAXIAEBQEAUMap@Gu@2@@Z 0000000180063520 f i GuSDF.obj
 0001:000625e0       ?resize@?$PxArray@UBVHNode@Gu@physx@@V?$PxReflectionAllocator@UBVHNode@Gu@physx@@@3@@physx@@QEAAXIAEBUBVHNode@Gu@2@@Z 00000001800635e0 f i GuSDF.obj
 0001:00062770       ?sampleSDFDirect@DenseSDF@Gu@physx@@QEAAMAEBV?$PxVec3T@M@3@@Z 0000000180063770 f i GuSDF.obj
 0001:00062910       ?signedVolume@Gu@physx@@YAMPEBV?$PxVec3T@M@2@PEBII1I@Z 0000000180063910 f   GuSDF.obj
 0001:00062e50       ?windingNumbers@Gu@physx@@YAXPEBV?$PxVec3T@M@2@PEBIIIIIPEAMV32@3PEAV32@@Z 0000000180063e50 f   GuSDF.obj
 0001:000632a0       ?windingNumbersInsideCheck@Gu@physx@@YAXPEBV?$PxVec3T@M@2@PEBIIIIIPEA_NV32@3PEAV32@@Z 00000001800642a0 f   GuSDF.obj
 0001:00063c60       ??$gjk@U?$RelativeConvex@UCustomConvexV@@@Gu@physx@@U?$LocalConvex@UCustomConvexV@@@23@@Gu@physx@@YA?AW4GjkStatus@01@AEBU?$RelativeConvex@UCustomConvexV@@@01@AEBU?$LocalConvex@UCustomConvexV@@@01@AEBT__m128@@2AEAT5@333@Z 0000000180064c60 f i GuGjkQuery.obj
 0001:000649f0       ??$gjkPenetration@U?$RelativeConvex@UCustomConvexV@@@Gu@physx@@U?$LocalConvex@UCustomConvexV@@@23@@Gu@physx@@YA?AW4GjkStatus@01@AEBU?$RelativeConvex@UCustomConvexV@@@01@AEBU?$LocalConvex@UCustomConvexV@@@01@AEBT__m128@@2_NPEIAE4PEIAT5@5AEAEAEAUGjkOutput@01@@Z 00000001800659f0 f i GuGjkQuery.obj
 0001:00065f80       ??$gjkPenetration@U?$RelativeConvex@UCustomConvexV@@@Gu@physx@@U?$LocalConvex@UCustomConvexV@@@23@@Gu@physx@@YA?AW4GjkStatus@01@AEBU?$RelativeConvex@UCustomConvexV@@@01@AEBU?$LocalConvex@UCustomConvexV@@@01@AEBT__m128@@2_NPEIAT5@4AEAEAEAUGjkOutput@01@@Z 0000000180066f80 f i GuGjkQuery.obj
 0001:00065fe0       ??$gjkRaycast@U?$RelativeConvex@UCustomConvexV@@@Gu@physx@@U?$LocalConvex@UCustomConvexV@@@23@@Gu@physx@@YA_NAEBU?$RelativeConvex@UCustomConvexV@@@01@AEBU?$LocalConvex@UCustomConvexV@@@01@AEBT__m128@@222AEAT4@33M@Z 0000000180066fe0 f i GuGjkQuery.obj
 0001:00066d50       ??$gjkRaycast@U?$RelativeConvex@UCustomConvexV@@@Gu@physx@@U?$LocalConvex@UPointConvexV@@@23@@Gu@physx@@YA_NAEBU?$RelativeConvex@UCustomConvexV@@@01@AEBU?$LocalConvex@UPointConvexV@@@01@AEBT__m128@@222AEAT4@33M@Z 0000000180067d50 f i GuGjkQuery.obj
 0001:000679b0       ?overlap@PxGjkQuery@physx@@SA_NAEBUSupport@12@0AEBV?$PxTransformT@M@2@1@Z 00000001800689b0 f   GuGjkQuery.obj
 0001:00067d40       ?proximityInfo@PxGjkQuery@physx@@SA_NAEBUSupport@12@0AEBV?$PxTransformT@M@2@1MMAEAV?$PxVec3T@M@2@22AEAM@Z 0000000180068d40 f   GuGjkQuery.obj
 0001:00068b00       ?raycast@PxGjkQuery@physx@@SA_NAEBUSupport@12@AEBV?$PxTransformT@M@2@AEBV?$PxVec3T@M@2@2MAEAMAEAV52@4@Z 0000000180069b00 f   GuGjkQuery.obj
 0001:00068ff0       ?support@?$LocalConvex@UCustomConvexV@@@Gu@physx@@UEBA?AT__m128@@AEBT4@@Z 0000000180069ff0 f i GuGjkQuery.obj
 0001:00069070       ?support@?$LocalConvex@UCustomConvexV@@@Gu@physx@@UEBA?AT__m128@@AEBT4@AEAH@Z 000000018006a070 f i GuGjkQuery.obj
 0001:000690f0       ?support@?$LocalConvex@UPointConvexV@@@Gu@physx@@UEBA?AT__m128@@AEBT4@@Z 000000018006a0f0 f i GuGjkQuery.obj
 0001:000690f0       ?supportPoint@?$LocalConvex@UPointConvexV@@@Gu@physx@@UEBA?AT__m128@@H@Z 000000018006a0f0 f i GuGjkQuery.obj
 0001:00069100       ?support@?$LocalConvex@UPointConvexV@@@Gu@physx@@UEBA?AT__m128@@AEBT4@AEAH@Z 000000018006a100 f i GuGjkQuery.obj
 0001:00069120       ?support@?$RelativeConvex@UCustomConvexV@@@Gu@physx@@UEBA?AT__m128@@AEBT4@@Z 000000018006a120 f i GuGjkQuery.obj
 0001:000691f0       ?support@?$RelativeConvex@UCustomConvexV@@@Gu@physx@@UEBA?AT__m128@@AEBT4@AEAH@Z 000000018006a1f0 f i GuGjkQuery.obj
 0001:000692d0       ?supportPoint@?$LocalConvex@UCustomConvexV@@@Gu@physx@@UEBA?AT__m128@@H@Z 000000018006a2d0 f i GuGjkQuery.obj
 0001:00069340       ?supportPoint@?$RelativeConvex@UCustomConvexV@@@Gu@physx@@UEBA?AT__m128@@H@Z 000000018006a340 f i GuGjkQuery.obj
 0001:000693e0       ?sweep@PxGjkQuery@physx@@SA_NAEBUSupport@12@0AEBV?$PxTransformT@M@2@1AEBV?$PxVec3T@M@2@MAEAMAEAV52@4@Z 000000018006a3e0 f   GuGjkQuery.obj
 0001:00069ba0       ??$approximateCluster@MV?$PxVec3T@M@physx@@@Gu@physx@@YAXAEBV?$PxArray@HV?$PxReflectionAllocator@H@physx@@@1@IIPEBIPEBV?$PxVec3T@M@1@AEBV?$PxArray@MV?$PxReflectionAllocator@M@physx@@@1@AEBV?$PxArray@V?$PxVec3T@M@physx@@V?$PxReflectionAllocator@V?$PxVec3T@M@physx@@@2@@1@4AEAU?$ClusterApproximationT@MV?$PxVec3T@M@physx@@@01@@Z 000000018006aba0 f i GuWindingNumber.obj
 0001:0006a1e0       ??$precomputeClusterInformation@MV?$PxVec3T@M@physx@@@Gu@physx@@YAXHPEBUBVHNode@01@PEBIIPEBV?$PxVec3T@M@1@AEAV?$PxHashMap@IU?$ClusterApproximationT@MV?$PxVec3T@M@physx@@@Gu@physx@@U?$PxHash@I@3@VPxAllocator@3@@1@V?$PxArray@MV?$PxReflectionAllocator@M@physx@@@1@AEBV?$PxArray@V?$PxVec3T@M@physx@@V?$PxReflectionAllocator@V?$PxVec3T@M@physx@@@2@@1@5@Z 000000018006b1e0 f i GuWindingNumber.obj
 0001:0006a5b0       ??$precomputeClusterInformation@MV?$PxVec3T@M@physx@@@Gu@physx@@YAXPEBUBVHNode@01@PEBIIPEBV?$PxVec3T@M@1@AEAV?$PxHashMap@IU?$ClusterApproximationT@MV?$PxVec3T@M@physx@@@Gu@physx@@U?$PxHash@I@3@VPxAllocator@3@@1@H@Z 000000018006b5b0 f i GuWindingNumber.obj
 0001:0006a9c0       ??$traverseBVH@V?$WindingNumberTraversalController@MV?$PxVec3T@M@physx@@@Gu@physx@@@Gu@physx@@YAXPEBUBVHNode@01@AEAV?$WindingNumberTraversalController@MV?$PxVec3T@M@physx@@@01@H@Z 000000018006b9c0 f i GuWindingNumber.obj
 0001:0006af10       ?computeWindingNumber@Gu@physx@@YAMAEBV?$PxVec3T@M@2@PEBIIPEBV32@@Z 000000018006bf10 f   GuWindingNumber.obj
 0001:0006b240       ?computeWindingNumber@Gu@physx@@YAMPEBUBVHNode@12@AEBV?$PxVec3T@M@2@AEBV?$PxHashMap@IU?$ClusterApproximationT@MV?$PxVec3T@M@physx@@@Gu@physx@@U?$PxHash@I@3@VPxAllocator@3@@2@PEBIPEBV42@@Z 000000018006c240 f   GuWindingNumber.obj
 0001:0006b2b0       ?computeWindingNumber@Gu@physx@@YAMPEBUBVHNode@12@AEBV?$PxVec3T@M@2@MAEBV?$PxHashMap@IU?$ClusterApproximationT@MV?$PxVec3T@M@physx@@@Gu@physx@@U?$PxHash@I@3@VPxAllocator@3@@2@PEBIPEBV42@@Z 000000018006c2b0 f   GuWindingNumber.obj
 0001:0006b320       ?create@?$PxHashBase@V?$PxPair@$$CBIU?$ClusterApproximationT@MV?$PxVec3T@M@physx@@@Gu@physx@@@physx@@IU?$PxHash@I@2@UGetKey@?$PxHashMapBase@IU?$ClusterApproximationT@MV?$PxVec3T@M@physx@@@Gu@physx@@U?$PxHash@I@3@VPxAllocator@3@@2@VPxAllocator@2@$00@physx@@QEAAPEAV?$PxPair@$$CBIU?$ClusterApproximationT@MV?$PxVec3T@M@physx@@@Gu@physx@@@2@AEBIAEA_N@Z 000000018006c320 f i GuWindingNumber.obj
 0001:0006b470       ?growAndPushBack@?$PxArray@HV?$PxReflectionAllocator@H@physx@@@physx@@IEAAAEAHAEBH@Z 000000018006c470 f i GuWindingNumber.obj
 0001:0006b580       ?growAndPushBack@?$PxArray@USection@Gu@physx@@V?$PxReflectionAllocator@USection@Gu@physx@@@3@@physx@@IEAAAEAUSection@Gu@2@AEBU342@@Z 000000018006c580 f i GuWindingNumber.obj
 0001:0006b690       ?precomputeClusterInformation@Gu@physx@@YAXPEBUBVHNode@12@PEBIIPEBV?$PxVec3T@M@2@AEAV?$PxHashMap@IU?$ClusterApproximationT@MV?$PxVec3T@M@physx@@@Gu@physx@@U?$PxHash@I@3@VPxAllocator@3@@2@H@Z 000000018006c690 f   GuWindingNumber.obj
 0001:0006b6a0       ?resize@?$PxArray@V?$PxVec3T@M@physx@@V?$PxReflectionAllocator@V?$PxVec3T@M@physx@@@2@@physx@@QEAAXIAEBV?$PxVec3T@M@2@@Z 000000018006c6a0 f i GuWindingNumber.obj
 0001:0006b790       ?computeMassInfo@Gu@physx@@YAXAEBVPxConvexCoreGeometry@2@AEAMAEAV?$PxMat33T@M@2@AEAV?$PxVec3T@M@2@@Z 000000018006c790 f   GuConvexGeometry.obj
 0001:0006c1a0       ?coneRadiusAtHeight@aux@@YAMMMMM@Z 000000018006d1a0 f   GuConvexGeometry.obj
 0001:0006e850       ?isGPUCompatible@Gu@physx@@YA_NAEBVPxConvexCoreGeometry@2@@Z 000000018006f850 f   GuConvexGeometry.obj
 0001:0006e890       ?isValid@PxConvexCoreGeometry@physx@@QEBA_NXZ 000000018006f890 f   GuConvexGeometry.obj
 0001:0006e960       ?makeConvexShape@Gu@physx@@YA_NAEBVPxGeometry@2@AEBV?$PxTransformT@M@2@AEAUConvexShape@12@@Z 000000018006f960 f   GuConvexGeometry.obj
 0001:0006eaf0       ?visualize@Gu@physx@@YAXAEBVPxConvexCoreGeometry@2@AEBV?$PxTransformT@M@2@_NAEBVPxBounds3@2@AEAVPxRenderOutput@2@@Z 000000018006faf0 f   GuConvexGeometry.obj
 0001:0006f030       ?generateContacts@Gu@physx@@YAIAEBVPxPlane@2@AEBUConvexShape@12@MAEAV?$PxVec3T@M@2@QEAV52@QEAM@Z 0000000180070030 f   GuConvexSupport.obj
 0001:0006f560       ?SweepAnyShapeHeightfield@Gu@physx@@YAMAEBUCCDShape@12@0AEBUPxTransformPadded@2@111MAEAV?$PxVec3T@M@2@2MAEAIM@Z 0000000180070560 f   GuCCDSweepConvexMesh.obj
 0001:00070b10       ?SweepAnyShapeMesh@Gu@physx@@YAMAEBUCCDShape@12@0AEBUPxTransformPadded@2@111MAEAV?$PxVec3T@M@2@2MAEAIM@Z 0000000180071b10 f   GuCCDSweepConvexMesh.obj
 0001:000720d0       ?SweepEstimateAnyShapeHeightfield@Gu@physx@@YAMAEBUCCDShape@12@0MM@Z 00000001800730d0 f   GuCCDSweepConvexMesh.obj
 0001:00072d30       ?SweepEstimateAnyShapeMesh@Gu@physx@@YAMAEBUCCDShape@12@0MM@Z 0000000180073d30 f   GuCCDSweepConvexMesh.obj
 0001:000739f0       ?growAndPushBack@?$PxArray@IV?$PxInlineAllocator@$0BAA@V?$PxReflectionAllocator@I@physx@@@physx@@@physx@@IEAAAEAIAEBI@Z 00000001800749f0 f i GuCCDSweepConvexMesh.obj
 0001:000740a0       ?recreate@?$PxArray@IV?$PxInlineAllocator@$0BAA@V?$PxReflectionAllocator@I@physx@@@physx@@@physx@@IEAAXI@Z 00000001800750a0 f i GuCCDSweepConvexMesh.obj
 0001:00074240       ?resize@?$PxArray@IV?$PxInlineAllocator@$0BAA@V?$PxReflectionAllocator@I@physx@@@physx@@@physx@@QEAAXIAEBI@Z 0000000180075240 f i GuCCDSweepConvexMesh.obj
 0001:00074310       ?transformBoxOrthonormal@physx@@YA?AVBox@Gu@1@AEBV231@AEBV?$PxTransformT@M@1@@Z 0000000180075310 f i GuCCDSweepConvexMesh.obj
 0001:000747a0       ?UnimplementedSweep@Gu@physx@@YAMAEBUCCDShape@12@0AEBUPxTransformPadded@2@111MAEAV?$PxVec3T@M@2@2MAEAIM@Z 00000001800757a0 f   GuCCDSweepPrimitives.obj
 0001:000784a0       ?UnimplementedTriangleSweep@Gu@physx@@YAMAEBVPxGeometry@2@0AEBUPxTransformPadded@2@111MAEAV?$PxVec3T@M@2@2AEBVFastVertex2ShapeScaling@Cm@2@AEAVTriangleV@12@M@Z 00000001800794a0 f   GuCCDSweepPrimitives.obj
 0001:000784b0       ??$SweepGeomTriangles@VCapsuleV@Gu@physx@@@Gu@physx@@YAMAEBVPxGeometry@1@0AEBUPxTransformPadded@1@111MAEAV?$PxVec3T@M@1@2AEBVFastVertex2ShapeScaling@Cm@1@AEAVTriangleV@01@M@Z 00000001800794b0 f i GuCCDSweepPrimitives.obj
 0001:00078be0       ??$SweepGeomTriangles@VBoxV@Gu@physx@@@Gu@physx@@YAMAEBVPxGeometry@1@0AEBUPxTransformPadded@1@111MAEAV?$PxVec3T@M@1@2AEBVFastVertex2ShapeScaling@Cm@1@AEAVTriangleV@01@M@Z 0000000180079be0 f i GuCCDSweepPrimitives.obj
 0001:00079330       ??$SweepGeomTriangles@VConvexHullV@Gu@physx@@@Gu@physx@@YAMAEBVPxGeometry@1@0AEBUPxTransformPadded@1@111MAEAV?$PxVec3T@M@1@2AEBVFastVertex2ShapeScaling@Cm@1@AEAVTriangleV@01@M@Z 000000018007a330 f i GuCCDSweepPrimitives.obj
 0001:00079e10       ?supportPoint@?$RelativeConvex@VCapsuleV@Gu@physx@@@Gu@physx@@UEBA?AT__m128@@H@Z 000000018007ae10 f i GuCCDSweepPrimitives.obj
 0001:00079e70       ?support@?$RelativeConvex@VCapsuleV@Gu@physx@@@Gu@physx@@UEBA?AT__m128@@AEBT4@@Z 000000018007ae70 f i GuCCDSweepPrimitives.obj
 0001:00079f20       ?support@?$RelativeConvex@VCapsuleV@Gu@physx@@@Gu@physx@@UEBA?AT__m128@@AEBT4@AEAH@Z 000000018007af20 f i GuCCDSweepPrimitives.obj
 0001:00079fe0       ?supportPoint@?$RelativeConvex@VTriangleV@Gu@physx@@@Gu@physx@@UEBA?AT__m128@@H@Z 000000018007afe0 f i GuCCDSweepPrimitives.obj
 0001:0007a030       ?support@?$RelativeConvex@VTriangleV@Gu@physx@@@Gu@physx@@UEBA?AT__m128@@AEBT4@@Z 000000018007b030 f i GuCCDSweepPrimitives.obj
 0001:0007a130       ?support@?$RelativeConvex@VTriangleV@Gu@physx@@@Gu@physx@@UEBA?AT__m128@@AEBT4@AEAH@Z 000000018007b130 f i GuCCDSweepPrimitives.obj
 0001:0007a270       ??$gjkPenetration@U?$RelativeConvex@VCapsuleV@Gu@physx@@@Gu@physx@@U?$LocalConvex@VBoxV@Gu@physx@@@23@@Gu@physx@@YA?AW4GjkStatus@01@AEBU?$RelativeConvex@VCapsuleV@Gu@physx@@@01@AEBU?$LocalConvex@VBoxV@Gu@physx@@@01@AEBT__m128@@2_NPEIAE4AEAEAEAUGjkOutput@01@@Z 000000018007b270 f i GuCCDSweepPrimitives.obj
 0001:0007a2e0       ??$gjkPenetration@U?$RelativeConvex@VCapsuleV@Gu@physx@@@Gu@physx@@U?$LocalConvex@VBoxV@Gu@physx@@@23@@Gu@physx@@YA?AW4GjkStatus@01@AEBU?$RelativeConvex@VCapsuleV@Gu@physx@@@01@AEBU?$LocalConvex@VBoxV@Gu@physx@@@01@AEBT__m128@@2_NPEIAE4PEIAT5@5AEAEAEAUGjkOutput@01@@Z 000000018007b2e0 f i GuCCDSweepPrimitives.obj
 0001:0007b7d0       ??$gjkPenetration@U?$RelativeConvex@VCapsuleV@Gu@physx@@@Gu@physx@@U?$LocalConvex@VCapsuleV@Gu@physx@@@23@@Gu@physx@@YA?AW4GjkStatus@01@AEBU?$RelativeConvex@VCapsuleV@Gu@physx@@@01@AEBU?$LocalConvex@VCapsuleV@Gu@physx@@@01@AEBT__m128@@2_NPEIAE4AEAEAEAUGjkOutput@01@@Z 000000018007c7d0 f i GuCCDSweepPrimitives.obj
 0001:0007b840       ??$gjkPenetration@U?$RelativeConvex@VCapsuleV@Gu@physx@@@Gu@physx@@U?$LocalConvex@VCapsuleV@Gu@physx@@@23@@Gu@physx@@YA?AW4GjkStatus@01@AEBU?$RelativeConvex@VCapsuleV@Gu@physx@@@01@AEBU?$LocalConvex@VCapsuleV@Gu@physx@@@01@AEBT__m128@@2_NPEIAE4PEIAT5@5AEAEAEAUGjkOutput@01@@Z 000000018007c840 f i GuCCDSweepPrimitives.obj
 0001:0007cd50       ??$gjkPenetration@U?$RelativeConvex@VCapsuleV@Gu@physx@@@Gu@physx@@U?$LocalConvex@VConvexHullV@Gu@physx@@@23@@Gu@physx@@YA?AW4GjkStatus@01@AEBU?$RelativeConvex@VCapsuleV@Gu@physx@@@01@AEBU?$LocalConvex@VConvexHullV@Gu@physx@@@01@AEBT__m128@@2_NPEIAE4AEAEAEAUGjkOutput@01@@Z 000000018007dd50 f i GuCCDSweepPrimitives.obj
 0001:0007cdc0       ??$gjkPenetration@U?$RelativeConvex@VCapsuleV@Gu@physx@@@Gu@physx@@U?$LocalConvex@VConvexHullV@Gu@physx@@@23@@Gu@physx@@YA?AW4GjkStatus@01@AEBU?$RelativeConvex@VCapsuleV@Gu@physx@@@01@AEBU?$LocalConvex@VConvexHullV@Gu@physx@@@01@AEBT__m128@@2_NPEIAE4PEIAT5@5AEAEAEAUGjkOutput@01@@Z 000000018007ddc0 f i GuCCDSweepPrimitives.obj
 0001:0007e340       ??$gjkPenetration@U?$RelativeConvex@VTriangleV@Gu@physx@@@Gu@physx@@U?$LocalConvex@VBoxV@Gu@physx@@@23@@Gu@physx@@YA?AW4GjkStatus@01@AEBU?$RelativeConvex@VTriangleV@Gu@physx@@@01@AEBU?$LocalConvex@VBoxV@Gu@physx@@@01@AEBT__m128@@2_NPEIAE4AEAEAEAUGjkOutput@01@@Z 000000018007f340 f i GuCCDSweepPrimitives.obj
 0001:0007e3b0       ??$gjkPenetration@U?$RelativeConvex@VTriangleV@Gu@physx@@@Gu@physx@@U?$LocalConvex@VBoxV@Gu@physx@@@23@@Gu@physx@@YA?AW4GjkStatus@01@AEBU?$RelativeConvex@VTriangleV@Gu@physx@@@01@AEBU?$LocalConvex@VBoxV@Gu@physx@@@01@AEBT__m128@@2_NPEIAE4PEIAT5@5AEAEAEAUGjkOutput@01@@Z 000000018007f3b0 f i GuCCDSweepPrimitives.obj
 0001:0007f910       ??$gjkPenetration@U?$RelativeConvex@VTriangleV@Gu@physx@@@Gu@physx@@U?$LocalConvex@VCapsuleV@Gu@physx@@@23@@Gu@physx@@YA?AW4GjkStatus@01@AEBU?$RelativeConvex@VTriangleV@Gu@physx@@@01@AEBU?$LocalConvex@VCapsuleV@Gu@physx@@@01@AEBT__m128@@2_NPEIAE4AEAEAEAUGjkOutput@01@@Z 0000000180080910 f i GuCCDSweepPrimitives.obj
 0001:0007f980       ??$gjkPenetration@U?$RelativeConvex@VTriangleV@Gu@physx@@@Gu@physx@@U?$LocalConvex@VCapsuleV@Gu@physx@@@23@@Gu@physx@@YA?AW4GjkStatus@01@AEBU?$RelativeConvex@VTriangleV@Gu@physx@@@01@AEBU?$LocalConvex@VCapsuleV@Gu@physx@@@01@AEBT__m128@@2_NPEIAE4PEIAT5@5AEAEAEAUGjkOutput@01@@Z 0000000180080980 f i GuCCDSweepPrimitives.obj
 0001:00080ef0       ??$gjkPenetration@U?$RelativeConvex@VTriangleV@Gu@physx@@@Gu@physx@@U?$LocalConvex@VConvexHullV@Gu@physx@@@23@@Gu@physx@@YA?AW4GjkStatus@01@AEBU?$RelativeConvex@VTriangleV@Gu@physx@@@01@AEBU?$LocalConvex@VConvexHullV@Gu@physx@@@01@AEBT__m128@@2_NPEIAE4AEAEAEAUGjkOutput@01@@Z 0000000180081ef0 f i GuCCDSweepPrimitives.obj
 0001:00080f60       ??$gjkPenetration@U?$RelativeConvex@VTriangleV@Gu@physx@@@Gu@physx@@U?$LocalConvex@VConvexHullV@Gu@physx@@@23@@Gu@physx@@YA?AW4GjkStatus@01@AEBU?$RelativeConvex@VTriangleV@Gu@physx@@@01@AEBU?$LocalConvex@VConvexHullV@Gu@physx@@@01@AEBT__m128@@2_NPEIAE4PEIAT5@5AEAEAEAUGjkOutput@01@@Z 0000000180081f60 f i GuCCDSweepPrimitives.obj
 0001:00082540       ??$gjkRaycast@U?$RelativeConvex@VCapsuleV@Gu@physx@@@Gu@physx@@U?$LocalConvex@VBoxV@Gu@physx@@@23@@Gu@physx@@YA_NAEBU?$RelativeConvex@VCapsuleV@Gu@physx@@@01@AEBU?$LocalConvex@VBoxV@Gu@physx@@@01@AEBT__m128@@222AEAT4@33M@Z 0000000180083540 f i GuCCDSweepPrimitives.obj
 0001:000831e0       ??$gjkRaycast@U?$RelativeConvex@VCapsuleV@Gu@physx@@@Gu@physx@@U?$LocalConvex@VCapsuleV@Gu@physx@@@23@@Gu@physx@@YA_NAEBU?$RelativeConvex@VCapsuleV@Gu@physx@@@01@AEBU?$LocalConvex@VCapsuleV@Gu@physx@@@01@AEBT__m128@@222AEAT4@33M@Z 00000001800841e0 f i GuCCDSweepPrimitives.obj
 0001:00083ee0       ??$gjkRaycast@U?$RelativeConvex@VCapsuleV@Gu@physx@@@Gu@physx@@U?$LocalConvex@VConvexHullV@Gu@physx@@@23@@Gu@physx@@YA_NAEBU?$RelativeConvex@VCapsuleV@Gu@physx@@@01@AEBU?$LocalConvex@VConvexHullV@Gu@physx@@@01@AEBT__m128@@222AEAT4@33M@Z 0000000180084ee0 f i GuCCDSweepPrimitives.obj
 0001:00084d00       ??$gjkRaycast@U?$RelativeConvex@VTriangleV@Gu@physx@@@Gu@physx@@U?$LocalConvex@VBoxV@Gu@physx@@@23@@Gu@physx@@YA_NAEBU?$RelativeConvex@VTriangleV@Gu@physx@@@01@AEBU?$LocalConvex@VBoxV@Gu@physx@@@01@AEBT__m128@@222AEAT4@33M@Z 0000000180085d00 f i GuCCDSweepPrimitives.obj
 0001:00085a10       ??$gjkRaycast@U?$RelativeConvex@VTriangleV@Gu@physx@@@Gu@physx@@U?$LocalConvex@VCapsuleV@Gu@physx@@@23@@Gu@physx@@YA_NAEBU?$RelativeConvex@VTriangleV@Gu@physx@@@01@AEBU?$LocalConvex@VCapsuleV@Gu@physx@@@01@AEBT__m128@@222AEAT4@33M@Z 0000000180086a10 f i GuCCDSweepPrimitives.obj
 0001:000867b0       ??$gjkRaycast@U?$RelativeConvex@VTriangleV@Gu@physx@@@Gu@physx@@U?$LocalConvex@VConvexHullV@Gu@physx@@@23@@Gu@physx@@YA_NAEBU?$RelativeConvex@VTriangleV@Gu@physx@@@01@AEBU?$LocalConvex@VConvexHullV@Gu@physx@@@01@AEBT__m128@@222AEAT4@33M@Z 00000001800877b0 f i GuCCDSweepPrimitives.obj
 0001:00087660       ?SweepShapeShape@Gu@physx@@YAMAEBUCCDShape@12@0AEBUPxTransformPadded@2@111MAEAV?$PxVec3T@M@2@2MAEAIM@Z 0000000180088660 f   GuCCDSweepPrimitives.obj
 0001:00087680       ?SweepShapeTriangle@Gu@physx@@YAMAEBVPxGeometry@2@0AEBUPxTransformPadded@2@111MAEAV?$PxVec3T@M@2@2AEBVFastVertex2ShapeScaling@Cm@2@AEAVTriangleV@12@M@Z 0000000180088680 f   GuCCDSweepPrimitives.obj
 0001:000876a0       ?barycentricCoordinates@Gu@physx@@YAXAEBT__m128@@000AEAT3@1@Z 00000001800886a0 f   GuBarycentricCoordinates.obj
 0001:000877e0       ?barycentricCoordinates@Gu@physx@@YAXAEBT__m128@@00AEAT3@@Z 00000001800887e0 f   GuBarycentricCoordinates.obj
 0001:00087850       ??$?_UV?$PxReflectionAllocator@VAdjTriangle@Gu@physx@@@physx@@@PxUserAllocated@physx@@SAPEAX_KV?$PxReflectionAllocator@VAdjTriangle@Gu@physx@@@1@PEBDH@Z 0000000180088850 f i GuAdjacencies.obj
 0001:00087930       ??0AdjacenciesBuilder@Gu@physx@@QEAA@XZ 0000000180088930 f   GuAdjacencies.obj
 0001:00087940       ??1AdjacenciesBuilder@Gu@physx@@QEAA@XZ 0000000180088940 f   GuAdjacencies.obj
 0001:00087a90       ?ComputeNbBoundaryEdges@Adjacencies@Gu@physx@@QEBAIXZ 0000000180088a90 f   GuAdjacencies.obj
 0001:00087d20       ?Init@AdjacenciesBuilder@Gu@physx@@QEAA_NAEBUADJACENCIESCREATE@23@@Z 0000000180088d20 f   GuAdjacencies.obj
 0001:00088280       ??0EdgeList@Gu@physx@@QEAA@XZ 0000000180089280 f   GuEdgeList.obj
 0001:000882a0       ??1EdgeList@Gu@physx@@QEAA@XZ 00000001800892a0 f   GuEdgeList.obj
 0001:00088350       ?computeActiveEdges@EdgeList@Gu@physx@@AEAA_NIPEBIPEBGPEBV?$PxVec3T@M@3@M@Z 0000000180089350 f   GuEdgeList.obj
 0001:000896b0       ?createEdgesToFaces@EdgeList@Gu@physx@@AEAA_NIPEBIPEBG@Z 000000018008a6b0 f   GuEdgeList.obj
 0001:00089910       ?createFacesToEdges@EdgeList@Gu@physx@@AEAA_NIPEBIPEBG@Z 000000018008a910 f   GuEdgeList.obj
 0001:00089d80       ?init@EdgeList@Gu@physx@@QEAA_NAEBUEDGELISTCREATE@23@@Z 000000018008ad80 f   GuEdgeList.obj
 0001:00089eb0       ?addAxis@SeparatingAxes@Gu@physx@@QEAA_NAEBV?$PxVec3T@M@3@@Z 000000018008aeb0 f   GuSeparatingAxes.obj
 0001:00089f70       ??$kmeans_cluster@V?$PxVec3T@M@physx@@M@@YAIPEBV?$PxVec3T@M@physx@@IIPEAV01@PEAIMM@Z 000000018008af70 f i GuQuantizer.obj
 0001:0008a900       ??_EQuantizer@Gu@physx@@MEAAPEAXI@Z 000000018008b900 f i GuQuantizer.obj
 0001:0008a900       ??_GQuantizer@Gu@physx@@MEAAPEAXI@Z 000000018008b900 f i GuQuantizer.obj
 0001:0008a930       ??_EQuantizerImpl@@EEAAPEAXI@Z 000000018008b930 f i GuQuantizer.obj
 0001:0008a930       ??_GQuantizerImpl@@EEAAPEAXI@Z 000000018008b930 f i GuQuantizer.obj
 0001:0008aa00       ?createQuantizer@Gu@physx@@YAPEAVQuantizer@12@XZ 000000018008ba00 f   GuQuantizer.obj
 0001:0008aab0       ?getDenormalizeCenter@QuantizerImpl@@UEBAAEBV?$PxVec3T@M@physx@@XZ 000000018008bab0 f i GuQuantizer.obj
 0001:0008aac0       ?getCurrentAABBTreeBounds@PruningPool@Gu@physx@@QEBAAEBVAABBTreeBounds@23@XZ 000000018008bac0 f i GuIncrementalAABBPrunerCore.obj
 0001:0008aac0       ?getDenormalizeScale@QuantizerImpl@@UEBAAEBV?$PxVec3T@M@physx@@XZ 000000018008bac0 f i GuQuantizer.obj
 0001:0008aad0       ?kmeansQuantize3D@QuantizerImpl@@UEAAPEBV?$PxVec3T@M@physx@@IPEBV23@I_NIAEAI@Z 000000018008bad0 f i GuQuantizer.obj
 0001:0008ad40       ?normalizeInput@QuantizerImpl@@AEAAXIPEBV?$PxVec3T@M@physx@@I@Z 000000018008bd40 f i GuQuantizer.obj
 0001:0008b1a0       ?release@QuantizerImpl@@UEAAXXZ 000000018008c1a0 f i GuQuantizer.obj
 0001:0008b1c0       ??0MeshCleaner@Gu@physx@@QEAA@IPEBV?$PxVec3T@M@2@IPEBIMM@Z 000000018008c1c0 f   GuMeshCleaner.obj
 0001:0008bbf0       ??1MeshCleaner@Gu@physx@@QEAA@XZ 000000018008cbf0 f   GuMeshCleaner.obj
 0001:0008bc80       ??0ReducedVertexCloud@Gu@physx@@QEAA@PEBV?$PxVec3T@M@2@I@Z 000000018008cc80 f   GuVertexReducer.obj
 0001:0008bca0       ??1ReducedVertexCloud@Gu@physx@@QEAA@XZ 000000018008cca0 f   GuVertexReducer.obj
 0001:0008bcb0       ?clean@ReducedVertexCloud@Gu@physx@@QEAAAEAV123@XZ 000000018008ccb0 f   GuVertexReducer.obj
 0001:0008bd20       ?reduce@ReducedVertexCloud@Gu@physx@@QEAA_NPEAUREDUCEDCLOUD@23@@Z 000000018008cd20 f   GuVertexReducer.obj
 0001:0008bfc0       ?buildConsistentTriangleOrientationMap@MeshAnalyzer@Gu@physx@@SA_NPEBU?$IndexedTriangleT@H@23@IAEAV?$PxArray@_NV?$PxReflectionAllocator@_N@physx@@@3@AEAV?$PxHashMap@_KHU?$PxHash@_K@physx@@VPxAllocator@2@@3@AEAV?$PxArray@V?$PxArray@IV?$PxReflectionAllocator@I@physx@@@physx@@V?$PxReflectionAllocator@V?$PxArray@IV?$PxReflectionAllocator@I@physx@@@physx@@@2@@3@@Z 000000018008cfc0 f   GuMeshAnalysis.obj
 0001:0008c500       ?buildTriangleAdjacency@MeshAnalyzer@Gu@physx@@SA_NPEBU?$IndexedTriangleT@H@23@IAEAV?$PxArray@HV?$PxReflectionAllocator@H@physx@@@3@AEAV?$PxHashMap@_KHU?$PxHash@_K@physx@@VPxAllocator@2@@3@@Z 000000018008d500 f   GuMeshAnalysis.obj
 0001:0008c810       ?checkConsistentTriangleOrientation@MeshAnalyzer@Gu@physx@@SA_NPEBU?$IndexedTriangleT@H@23@I@Z 000000018008d810 f   GuMeshAnalysis.obj
 0001:0008c960       ?checkMeshWatertightness@MeshAnalyzer@Gu@physx@@SA_NPEBU?$IndexedTriangleT@H@23@I_N@Z 000000018008d960 f   GuMeshAnalysis.obj
 0001:0008cb30       ?destroy@?$PxArray@V?$PxArray@IV?$PxReflectionAllocator@I@physx@@@physx@@V?$PxReflectionAllocator@V?$PxArray@IV?$PxReflectionAllocator@I@physx@@@physx@@@2@@physx@@KAXPEAV?$PxArray@IV?$PxReflectionAllocator@I@physx@@@2@0@Z 000000018008db30 f i GuMeshAnalysis.obj
 0001:0008cba0       ?erase@?$PxHashBase@V?$PxPair@$$CB_KH@physx@@_KU?$PxHash@_K@2@UGetKey@?$PxHashMapBase@_KHU?$PxHash@_K@physx@@VPxAllocator@2@@2@VPxAllocator@2@$00@physx@@QEAA_NAEB_K@Z 000000018008dba0 f i GuMeshAnalysis.obj
 0001:0008cd50       ?growAndPushBack@?$PxArray@V?$PxArray@IV?$PxReflectionAllocator@I@physx@@@physx@@V?$PxReflectionAllocator@V?$PxArray@IV?$PxReflectionAllocator@I@physx@@@physx@@@2@@physx@@IEAAAEAV?$PxArray@IV?$PxReflectionAllocator@I@physx@@@2@AEBV32@@Z 000000018008dd50 f i GuMeshAnalysis.obj
 0001:0008ce90       ?makeTriOrientationConsistent@MeshAnalyzer@Gu@physx@@SA_NPEAU?$IndexedTriangleT@H@23@I_N@Z 000000018008de90 f   GuMeshAnalysis.obj
 0001:0008d000       ?recreate@?$PxArray@_NV?$PxReflectionAllocator@_N@physx@@@physx@@IEAAXI@Z 000000018008e000 f i GuMeshAnalysis.obj
 0001:0008d0f0       ?resize@?$PxArray@HV?$PxReflectionAllocator@H@physx@@@physx@@QEAAXIAEBH@Z 000000018008e0f0 f i GuMeshAnalysis.obj
 0001:0008d1b0       ?resize@?$PxArray@_NV?$PxReflectionAllocator@_N@physx@@@physx@@QEAAXIAEB_N@Z 000000018008e1b0 f i GuMeshAnalysis.obj
 0001:0008d270       ?contactBoxBox@Gu@physx@@YA_NAEBVPxGeometry@2@0AEBUPxTransformPadded@2@1AEBUNarrowPhaseParams@12@AEAUCache@12@AEAVPxContactBuffer@2@PEAVPxRenderOutput@2@@Z 000000018008e270 f   GuContactBoxBox.obj
 0001:00091430       ?contactCapsuleBox@Gu@physx@@YA_NAEBVPxGeometry@2@0AEBUPxTransformPadded@2@1AEBUNarrowPhaseParams@12@AEAUCache@12@AEAVPxContactBuffer@2@PEAVPxRenderOutput@2@@Z 0000000180092430 f   GuContactCapsuleBox.obj
 0001:00091c40       ?contactCapsuleCapsule@Gu@physx@@YA_NAEBVPxGeometry@2@0AEBUPxTransformPadded@2@1AEBUNarrowPhaseParams@12@AEAUCache@12@AEAVPxContactBuffer@2@PEAVPxRenderOutput@2@@Z 0000000180092c40 f   GuContactCapsuleCapsule.obj
 0001:00094610       ?contactCapsuleConvex@Gu@physx@@YA_NAEBVPxGeometry@2@0AEBUPxTransformPadded@2@1AEBUNarrowPhaseParams@12@AEAUCache@12@AEAVPxContactBuffer@2@PEAVPxRenderOutput@2@@Z 0000000180095610 f   GuContactCapsuleConvex.obj
 0001:00096b40       ?contactCapsuleHeightfield@Gu@physx@@YA_NAEBVPxGeometry@2@0AEBUPxTransformPadded@2@1AEBUNarrowPhaseParams@12@AEAUCache@12@AEAVPxContactBuffer@2@PEAVPxRenderOutput@2@@Z 0000000180097b40 f   GuContactCapsuleMesh.obj
 0001:00097350       ?contactCapsuleMesh@Gu@physx@@YA_NAEBVPxGeometry@2@0AEBUPxTransformPadded@2@1AEBUNarrowPhaseParams@12@AEAUCache@12@AEAVPxContactBuffer@2@PEAVPxRenderOutput@2@@Z 0000000180098350 f   GuContactCapsuleMesh.obj
 0001:00098730       ?transformQueryBounds@FastVertex2ShapeScaling@Cm@physx@@QEBAXAEAV?$PxVec3T@M@3@0AEAV?$PxMat33T@M@3@@Z 0000000180099730 f i GuContactCapsuleMesh.obj
 0001:0009ca10       ?contactBoxConvex@Gu@physx@@YA_NAEBVPxGeometry@2@0AEBUPxTransformPadded@2@1AEBUNarrowPhaseParams@12@AEAUCache@12@AEAVPxContactBuffer@2@PEAVPxRenderOutput@2@@Z 000000018009da10 f   GuContactConvexConvex.obj
 0001:0009cbe0       ?contactConvexConvex@Gu@physx@@YA_NAEBVPxGeometry@2@0AEBUPxTransformPadded@2@1AEBUNarrowPhaseParams@12@AEAUCache@12@AEAVPxContactBuffer@2@PEAVPxRenderOutput@2@@Z 000000018009dbe0 f   GuContactConvexConvex.obj
 0001:0009d060       ?transformPlaneToShapeSpace@FastVertex2ShapeScaling@Cm@physx@@QEBAXAEBV?$PxVec3T@M@3@MAEAV43@AEAM@Z 000000018009e060 f i GuContactConvexConvex.obj
 0001:0009d510       ??_EConvexMeshContactGenerationCallback@@UEAAPEAXI@Z 000000018009e510 f i GuContactConvexMesh.obj
 0001:0009d510       ??_GConvexMeshContactGenerationCallback@@UEAAPEAXI@Z 000000018009e510 f i GuContactConvexMesh.obj
 0001:0009d570       ?addData@?$CacheMap@UCachedEdge@Gu@physx@@$0IA@@Gu@physx@@QEAA_NAEBUCachedEdge@23@@Z 000000018009e570 f i GuContactConvexMesh.obj
 0001:0009d650       ?addData@?$CacheMap@UCachedVertex@Gu@physx@@$0IA@@Gu@physx@@QEAA_NAEBUCachedVertex@23@@Z 000000018009e650 f i GuContactConvexMesh.obj
 0001:0009da20       ?contactBoxHeightfield@Gu@physx@@YA_NAEBVPxGeometry@2@0AEBUPxTransformPadded@2@1AEBUNarrowPhaseParams@12@AEAUCache@12@AEAVPxContactBuffer@2@PEAVPxRenderOutput@2@@Z 000000018009ea20 f   GuContactConvexMesh.obj
 0001:0009dba0       ?contactBoxMesh@Gu@physx@@YA_NAEBVPxGeometry@2@0AEBUPxTransformPadded@2@1AEBUNarrowPhaseParams@12@AEAUCache@12@AEAVPxContactBuffer@2@PEAVPxRenderOutput@2@@Z 000000018009eba0 f   GuContactConvexMesh.obj
 0001:0009dd70       ?contactConvexHeightfield@Gu@physx@@YA_NAEBVPxGeometry@2@0AEBUPxTransformPadded@2@1AEBUNarrowPhaseParams@12@AEAUCache@12@AEAVPxContactBuffer@2@PEAVPxRenderOutput@2@@Z 000000018009ed70 f   GuContactConvexMesh.obj
 0001:0009dec0       ?contactConvexMesh@Gu@physx@@YA_NAEBVPxGeometry@2@0AEBUPxTransformPadded@2@1AEBUNarrowPhaseParams@12@AEAUCache@12@AEAVPxContactBuffer@2@PEAVPxRenderOutput@2@@Z 000000018009eec0 f   GuContactConvexMesh.obj
 0001:000a15b0       ?processHit@ConvexMeshContactGenerationCallback@@UEAA_NAEBUPxGeomRaycastHit@physx@@AEBV?$PxVec3T@M@3@11AEAMPEBI@Z 00000001800a25b0 f i GuContactConvexMesh.obj
 0001:000a1f70       ?recreate@?$PxArray@IV?$PxInlineAllocator@$0BBAA@V?$PxReflectionAllocator@I@physx@@@physx@@@physx@@IEAAXI@Z 00000001800a2f70 f i GuContactConvexMesh.obj
 0001:000a3ef0       ?addPatch@Contact@Gu@physx@@IEAAXAEBV?$PxVec3T@M@3@AEBUPoint@123@@Z 00000001800a4ef0 f i GuContactConvexCoreMesh.obj
 0001:000a42f0       ?addPatchPoint@Contact@Gu@physx@@IEAAXIAEBUPoint@123@@Z 00000001800a52f0 f i GuContactConvexCoreMesh.obj
 0001:000a45f0       ?contactConvexCoreHeightfield@Gu@physx@@YA_NAEBVPxGeometry@2@0AEBUPxTransformPadded@2@1AEBUNarrowPhaseParams@12@AEAUCache@12@AEAVPxContactBuffer@2@PEAVPxRenderOutput@2@@Z 00000001800a55f0 f   GuContactConvexCoreMesh.obj
 0001:000a4dd0       ?contactConvexCoreTrimesh@Gu@physx@@YA_NAEBVPxGeometry@2@0AEBUPxTransformPadded@2@1AEBUNarrowPhaseParams@12@AEAUCache@12@AEAVPxContactBuffer@2@PEAVPxRenderOutput@2@@Z 00000001800a5dd0 f   GuContactConvexCoreMesh.obj
 0001:000a5540       ?getTriangleVertexIndices@HeightField@Gu@physx@@QEBAXIAEAI00@Z 00000001800a6540 f i GuContactConvexCoreMesh.obj
 0001:000a6550       ?contactConvexCoreConvex@Gu@physx@@YA_NAEBVPxGeometry@2@0AEBUPxTransformPadded@2@1AEBUNarrowPhaseParams@12@AEAUCache@12@AEAVPxContactBuffer@2@PEAVPxRenderOutput@2@@Z 00000001800a7550 f   GuContactConvexCoreConvex.obj
 0001:000a6990       ?contactPlaneConvexCore@Gu@physx@@YA_NAEBVPxGeometry@2@0AEBUPxTransformPadded@2@1AEBUNarrowPhaseParams@12@AEAUCache@12@AEAVPxContactBuffer@2@PEAVPxRenderOutput@2@@Z 00000001800a7990 f   GuContactPlaneConvexCore.obj
 0001:000a6d70       ?contactPlaneBox@Gu@physx@@YA_NAEBVPxGeometry@2@0AEBUPxTransformPadded@2@1AEBUNarrowPhaseParams@12@AEAUCache@12@AEAVPxContactBuffer@2@PEAVPxRenderOutput@2@@Z 00000001800a7d70 f   GuContactPlaneBox.obj
 0001:000a7a40       ?contactPlaneCapsule@Gu@physx@@YA_NAEBVPxGeometry@2@0AEBUPxTransformPadded@2@1AEBUNarrowPhaseParams@12@AEAUCache@12@AEAVPxContactBuffer@2@PEAVPxRenderOutput@2@@Z 00000001800a8a40 f   GuContactPlaneCapsule.obj
 0001:000a8110       ?contactPlaneConvex@Gu@physx@@YA_NAEBVPxGeometry@2@0AEBUPxTransformPadded@2@1AEBUNarrowPhaseParams@12@AEAUCache@12@AEAVPxContactBuffer@2@PEAVPxRenderOutput@2@@Z 00000001800a9110 f   GuContactPlaneConvex.obj
 0001:000a89b0       ?contactPlaneMesh@Gu@physx@@YA_NAEBVPxGeometry@2@0AEBUPxTransformPadded@2@1AEBUNarrowPhaseParams@12@AEAUCache@12@AEAVPxContactBuffer@2@PEAVPxRenderOutput@2@@Z 00000001800a99b0 f   GuContactPlaneMesh.obj
 0001:000a9b70       ?reduce@?$BufferedPatch@$05$0EA@$00@Gu@physx@@QEAAXXZ 00000001800aab70 f i GuContactPlaneMesh.obj
 0001:000abbd0       ?contactPolygonPolygonExt@Gu@physx@@YA_NIPEBV?$PxVec3T@M@2@PEBEAEBV?$PxMat34T@M@2@AEBVPxPlane@2@AEBV?$PxMat33T@M@2@I01234AEBV32@22IIAEAVPxContactBuffer@2@_N5M@Z 00000001800acbd0 f   GuContactPolygonPolygon.obj
 0001:000ad390       ?findRotationMatrixFromZ@Gu@physx@@YA?AV?$PxMat33T@M@2@AEBV?$PxVec3T@M@2@@Z 00000001800ae390 f   GuContactPolygonPolygon.obj
 0001:000add60       ??$PxSort@PEAV?$BufferedPatch@$04$0CA@$00@Gu@physx@@UPatchPenetrationPredicate@?$SDFContactReduction@$04$0CHBA@$0CA@@23@V?$PxReflectionAllocator@PEAV?$BufferedPatch@$04$0CA@$00@Gu@physx@@@3@@physx@@YAXPEAPEAV?$BufferedPatch@$04$0CA@$00@Gu@0@IAEBUPatchPenetrationPredicate@?$SDFContactReduction@$04$0CHBA@$0CA@@20@AEBV?$PxReflectionAllocator@PEAV?$BufferedPatch@$04$0CA@$00@Gu@physx@@@0@I@Z 00000001800aed60 f i GuContactMeshMesh.obj
 0001:000ae2c0       ??$copy@V?$PxReflectionAllocator@V?$BufferedPatch@$04$0CA@$00@Gu@physx@@@physx@@@?$PxArray@V?$BufferedPatch@$04$0CA@$00@Gu@physx@@V?$PxReflectionAllocator@V?$BufferedPatch@$04$0CA@$00@Gu@physx@@@3@@physx@@IEAAXAEBV01@@Z 00000001800af2c0 f i GuContactMeshMesh.obj
 0001:000ae320       ??$sdfTriangleCollision@$0A@$0CA@$00@Gu@physx@@YAMAEIBUCollisionSDF@01@AEIBV?$PxVec3T@M@1@11AEAV31@2M@Z 00000001800af320 f i GuContactMeshMesh.obj
 0001:000aeb30       ??0?$BufferedPatch@$04$0CA@$00@Gu@physx@@QEAA@AEBV012@@Z 00000001800afb30 f i GuContactMeshMesh.obj
 0001:000aec00       ??0CollisionSDF@Gu@physx@@QEAA@AEBVSDF@12@@Z 00000001800afc00 f i GuContactMeshMesh.obj
 0001:000aedf0       ?TriLerpWithGradient@CollisionSDF@Gu@physx@@SAMMMMMMMMMMMMPEAV?$PxVec3T@M@3@@Z 00000001800afdf0 f i GuContactMeshMesh.obj
 0001:000aefd0       ?addContact@?$BufferedPatch@$04$0CA@$00@Gu@physx@@QEAAXAEBUTinyContact@23@@Z 00000001800affd0 f i GuContactMeshMesh.obj
 0001:000af080       ?allocate@?$PxArray@V?$BufferedPatch@$04$0CA@$00@Gu@physx@@V?$PxReflectionAllocator@V?$BufferedPatch@$04$0CA@$00@Gu@physx@@@3@@physx@@IEAAPEAV?$BufferedPatch@$04$0CA@$00@Gu@2@IPEAI@Z 00000001800b0080 f i GuContactMeshMesh.obj
 0001:000af100       ?clampToBox@CollisionSDF@Gu@physx@@QEBA?AV?$PxVec3T@M@3@AEBV43@@Z 00000001800b0100 f i GuContactMeshMesh.obj
 0001:000af1c0       ?contactMeshMesh@Gu@physx@@YA_NAEBVPxGeometry@2@0AEBUPxTransformPadded@2@1AEBUNarrowPhaseParams@12@AEAUCache@12@AEAVPxContactBuffer@2@PEAVPxRenderOutput@2@@Z 00000001800b01c0 f   GuContactMeshMesh.obj
 0001:000af470       ?copy@?$PxArray@V?$BufferedPatch@$04$0CA@$00@Gu@physx@@V?$PxReflectionAllocator@V?$BufferedPatch@$04$0CA@$00@Gu@physx@@@3@@physx@@KAXPEAV?$BufferedPatch@$04$0CA@$00@Gu@2@0PEBV342@@Z 00000001800b0470 f i GuContactMeshMesh.obj
 0001:000af560       ?cullPatches@?$SDFContactReduction@$04$0CHBA@$0CA@@Gu@physx@@QEAAXM@Z 00000001800b0560 f i GuContactMeshMesh.obj
 0001:000af930       ?dist@CollisionSDF@Gu@physx@@QEBAMAEBV?$PxVec3T@M@3@PEAV43@@Z 00000001800b0930 f i GuContactMeshMesh.obj
 0001:000afae0       ?distUsingGradient@CollisionSDF@Gu@physx@@QEBAMAEBV?$PxVec3T@M@3@AEAV43@AEBM@Z 00000001800b0ae0 f i GuContactMeshMesh.obj
 0001:000afd90       ?evaluateCoarse@CollisionSDF@Gu@physx@@QEBAMAEBV?$PxVec3T@M@3@PEAV43@@Z 00000001800b0d90 f i GuContactMeshMesh.obj
 0001:000afee0       ?evaluateSubgrid@CollisionSDF@Gu@physx@@QEBAMIAEBV?$PxVec3T@M@3@PEAV43@@Z 00000001800b0ee0 f i GuContactMeshMesh.obj
 0001:000b0290       ?flushToContactBuffer@?$SDFContactReduction@$04$0CHBA@$0CA@@Gu@physx@@QEAAIAEAVPxContactBuffer@3@@Z 00000001800b1290 f i GuContactMeshMesh.obj
 0001:000b07e0       ?grad@CollisionSDF@Gu@physx@@QEBA?AV?$PxVec3T@M@3@AEBV43@@Z 00000001800b17e0 f i GuContactMeshMesh.obj
 0001:000b0b70       ?growAndPushBack@?$PxArray@PEAV?$BufferedPatch@$04$0CA@$00@Gu@physx@@V?$PxReflectionAllocator@PEAV?$BufferedPatch@$04$0CA@$00@Gu@physx@@@3@@physx@@IEAAAEAPEAV?$BufferedPatch@$04$0CA@$00@Gu@2@AEBQEAV342@@Z 00000001800b1b70 f i GuContactMeshMesh.obj
 0001:000b0c80       ?growAndPushBack@?$PxArray@V?$BufferedPatch@$04$0CA@$00@Gu@physx@@V?$PxReflectionAllocator@V?$BufferedPatch@$04$0CA@$00@Gu@physx@@@3@@physx@@IEAAAEAV?$BufferedPatch@$04$0CA@$00@Gu@2@AEBV342@@Z 00000001800b1c80 f i GuContactMeshMesh.obj
 0001:000b0d90       ?recreate@?$PxArray@PEAV?$BufferedPatch@$04$0CA@$00@Gu@physx@@V?$PxReflectionAllocator@PEAV?$BufferedPatch@$04$0CA@$00@Gu@physx@@@3@@physx@@IEAAXI@Z 00000001800b1d90 f i GuContactMeshMesh.obj
 0001:000b0e80       ?recreate@?$PxArray@V?$BufferedPatch@$04$0CA@$00@Gu@physx@@V?$PxReflectionAllocator@V?$BufferedPatch@$04$0CA@$00@Gu@physx@@@3@@physx@@IEAAXI@Z 00000001800b1e80 f i GuContactMeshMesh.obj
 0001:000b0f60       ?reduce@?$BufferedPatch@$04$0CA@$00@Gu@physx@@QEAAXXZ 00000001800b1f60 f i GuContactMeshMesh.obj
 0001:000b1b20       ?sample@CollisionSDF@Gu@physx@@QEBAMV?$PxVec3T@M@3@PEAV43@@Z 00000001800b2b20 f i GuContactMeshMesh.obj
 0001:000b1ce0       ?sdfMeshCollision@@YAIAEIBUPxTransformPadded@physx@@AEIBVPxTriangleMeshGeometry@2@01AEAV?$SDFContactReduction@$04$0CHBA@$0CA@@Gu@2@M_N@Z 00000001800b2ce0 f   GuContactMeshMesh.obj
 0001:000b4af0       ?contactSphereBox@Gu@physx@@YA_NAEBVPxGeometry@2@0AEBUPxTransformPadded@2@1AEBUNarrowPhaseParams@12@AEAUCache@12@AEAVPxContactBuffer@2@PEAVPxRenderOutput@2@@Z 00000001800b5af0 f   GuContactSphereBox.obj
 0001:000b50c0       ?contactSphereCapsule@Gu@physx@@YA_NAEBVPxGeometry@2@0AEBUPxTransformPadded@2@1AEBUNarrowPhaseParams@12@AEAUCache@12@AEAVPxContactBuffer@2@PEAVPxRenderOutput@2@@Z 00000001800b60c0 f   GuContactSphereCapsule.obj
 0001:000b5e60       ?contactSphereHeightfield@Gu@physx@@YA_NAEBVPxGeometry@2@0AEBUPxTransformPadded@2@1AEBUNarrowPhaseParams@12@AEAUCache@12@AEAVPxContactBuffer@2@PEAVPxRenderOutput@2@@Z 00000001800b6e60 f   GuContactSphereMesh.obj
 0001:000b6880       ?contactSphereMesh@Gu@physx@@YA_NAEBVPxGeometry@2@0AEBUPxTransformPadded@2@1AEBUNarrowPhaseParams@12@AEAUCache@12@AEAVPxContactBuffer@2@PEAVPxRenderOutput@2@@Z 00000001800b7880 f   GuContactSphereMesh.obj
 0001:000b8c20       ?contactSpherePlane@Gu@physx@@YA_NAEBVPxGeometry@2@0AEBUPxTransformPadded@2@1AEBUNarrowPhaseParams@12@AEAUCache@12@AEAVPxContactBuffer@2@PEAVPxRenderOutput@2@@Z 00000001800b9c20 f   GuContactSpherePlane.obj
 0001:000b8e30       ?contactSphereSphere@Gu@physx@@YA_NAEBVPxGeometry@2@0AEBUPxTransformPadded@2@1AEBUNarrowPhaseParams@12@AEAUCache@12@AEAVPxContactBuffer@2@PEAVPxRenderOutput@2@@Z 00000001800b9e30 f   GuContactSphereSphere.obj
 0001:000b8fb0       ?contactCustomGeometryGeometry@Gu@physx@@YA_NAEBVPxGeometry@2@0AEBUPxTransformPadded@2@1AEBUNarrowPhaseParams@12@AEAUCache@12@AEAVPxContactBuffer@2@PEAVPxRenderOutput@2@@Z 00000001800b9fb0 f   GuContactCustomGeometry.obj
 0001:000b9010       ?contactGeometryCustomGeometry@Gu@physx@@YA_NAEBVPxGeometry@2@0AEBUPxTransformPadded@2@1AEBUNarrowPhaseParams@12@AEAUCache@12@AEAVPxContactBuffer@2@PEAVPxRenderOutput@2@@Z 00000001800ba010 f   GuContactCustomGeometry.obj
 0001:000b90d0       ?selectNormal@Gu@physx@@YA_NEMM@Z 00000001800ba0d0 f   GuFeatureCode.obj
 0001:000b9150       ??0BigConvexData@physx@@QEAA@XZ 00000001800ba150 f   GuBigConvexData.obj
 0001:000b9170       ??1BigConvexData@physx@@QEAA@XZ 00000001800ba170 f   GuBigConvexData.obj
 0001:000b9230       ??4BigConvexData@physx@@QEAAAEAV01@AEBV01@@Z 00000001800ba230 f i GuBigConvexData.obj
 0001:000b9250       ?ComputeNearestOffset@BigConvexData@physx@@QEBAIAEBV?$PxVec3T@M@2@@Z 00000001800ba250 f   GuBigConvexData.obj
 0001:000b9350       ?ComputeOffset@BigConvexData@physx@@QEBAIAEBV?$PxVec3T@M@2@@Z 00000001800ba350 f   GuBigConvexData.obj
 0001:000b9450       ?CreateOffsets@BigConvexData@physx@@IEAAXXZ 00000001800ba450 f   GuBigConvexData.obj
 0001:000b94a0       ?GetAdjacentVerts@BigConvexData@physx@@QEBAPEBEXZ 00000001800ba4a0 f i GuBigConvexData.obj
 0001:000b94a0       ?getDeformableVolumeAuxData@DeformableVolumeMesh@Gu@physx@@UEAAPEAVPxDeformableVolumeAuxData@3@XZ 00000001800ba4a0 f i GuTetrahedronMesh.obj
 0001:000b94a0       ?getDeformableVolumeAuxData@DeformableVolumeMesh@Gu@physx@@UEBAPEBVPxDeformableVolumeAuxData@3@XZ 00000001800ba4a0 f i GuTetrahedronMesh.obj
 0001:000b94a0       ?getTransforms@PruningPool@Gu@physx@@QEAAPEAV?$PxTransformT@M@3@XZ 00000001800ba4a0 f i GuIncrementalAABBPrunerCore.obj
 0001:000b94a0       ?getTransforms@PruningPool@Gu@physx@@QEBAPEBV?$PxTransformT@M@3@XZ 00000001800ba4a0 f i GuIncrementalAABBPrunerCore.obj
 0001:000b94a0       ?getTriangles@TriangleMesh@Gu@physx@@UEBAPEBXXZ 00000001800ba4a0 f i GuTriangleMesh.obj
 0001:000b94b0       ?GetNbNeighbors@BigConvexData@physx@@QEBAGI@Z 00000001800ba4b0 f i GuBigConvexData.obj
 0001:000b94b0       ?GetValency@BigConvexData@physx@@QEBAGI@Z 00000001800ba4b0 f i GuBigConvexData.obj
 0001:000b94c0       ?GetNbSamples@BigConvexData@physx@@QEBAIXZ 00000001800ba4c0 f i GuBigConvexData.obj
 0001:000b94d0       ?GetNbVerts@BigConvexData@physx@@QEBAIXZ 00000001800ba4d0 f i GuBigConvexData.obj
 0001:000b94d0       ?getNbVertices@TetrahedronMesh@Gu@physx@@UEBAIXZ 00000001800ba4d0 f i GuTetrahedronMesh.obj
 0001:000b94d0       ?getNbVertices@TriangleMesh@Gu@physx@@UEBAIXZ 00000001800ba4d0 f i GuTriangleMesh.obj
 0001:000b94e0       ?GetNeighbors@BigConvexData@physx@@QEBAPEBEI@Z 00000001800ba4e0 f i GuBigConvexData.obj
 0001:000b94f0       ?GetOffset@BigConvexData@physx@@QEBAGI@Z 00000001800ba4f0 f i GuBigConvexData.obj
 0001:000b9500       ?GetSubdiv@BigConvexData@physx@@QEBAIXZ 00000001800ba500 f i GuBigConvexData.obj
 0001:000b9510       ?Load@BigConvexData@physx@@QEAA_NAEAVPxInputStream@2@@Z 00000001800ba510 f   GuBigConvexData.obj
 0001:000b9620       ?VLoad@BigConvexData@physx@@IEAA_NAEAVPxInputStream@2@@Z 00000001800ba620 f   GuBigConvexData.obj
 0001:000b97c0       ?exportExtraData@BigConvexData@physx@@QEAAXAEAVPxSerializationContext@2@@Z 00000001800ba7c0 f   GuBigConvexData.obj
 0001:000b9840       ?importExtraData@BigConvexData@physx@@QEAAXAEAVPxDeserializationContext@2@@Z 00000001800ba840 f   GuBigConvexData.obj
 0001:000b98b0       ?findUniqueConvexEdges@Gu@physx@@YAIIPEIAUConvexEdge@12@IPEIBUHullPolygonData@12@PEIBE@Z 00000001800ba8b0 f   GuConvexHelper.obj
 0001:000b99f0       ?getConvexData@Gu@physx@@YA_NAEBVPxConvexMeshGeometry@2@AEAVFastVertex2ShapeScaling@Cm@2@AEAVPxBounds3@2@AEAUPolygonalData@12@@Z 00000001800ba9f0 f   GuConvexHelper.obj
 0001:000b9c70       ?getScaledConvex@Gu@physx@@YAXAEAPEAV?$PxVec3T@M@2@AEAPEAEPEAV32@PEAE_NPEBV32@PEBEIAEBVFastVertex2ShapeScaling@Cm@2@@Z 00000001800bac70 f   GuConvexHelper.obj
 0001:000b9da0       ??0ConvexMesh@Gu@physx@@QEAA@PEAVMeshFactory@12@@Z 00000001800bada0 f   GuConvexMesh.obj
 0001:000b9e30       ??0ConvexMesh@Gu@physx@@QEAA@PEAVMeshFactory@12@AEAUConvexHullInitData@12@@Z 00000001800bae30 f   GuConvexMesh.obj
 0001:000b9f70       ??_EConvexMesh@Gu@physx@@UEAAPEAXI@Z 00000001800baf70 f i GuConvexMesh.obj
 0001:000b9f70       ??_GConvexMesh@Gu@physx@@UEAAPEAXI@Z 00000001800baf70 f i GuConvexMesh.obj
 0001:000ba080       ??_EPxBVH@physx@@MEAAPEAXI@Z 00000001800bb080 f i GuBVH.obj
 0001:000ba080       ??_EPxBase@physx@@MEAAPEAXI@Z 00000001800bb080 f i GuConvexMesh.obj
 0001:000ba080       ??_GPxBVH@physx@@MEAAPEAXI@Z 00000001800bb080 f i GuBVH.obj
 0001:000ba080       ??_GPxBase@physx@@MEAAPEAXI@Z 00000001800bb080 f i GuConvexMesh.obj
 0001:000ba0b0       ?acquireReference@ConvexMesh@Gu@physx@@UEAAXXZ 00000001800bb0b0 f   GuConvexMesh.obj
 0001:000ba0b0       ?acquireReference@DeformableVolumeAuxData@Gu@physx@@UEAAXXZ 00000001800bb0b0 f   GuTetrahedronMesh.obj
 0001:000ba0b0       ?acquireReference@DeformableVolumeMesh@Gu@physx@@UEAAXXZ 00000001800bb0b0 f   GuTetrahedronMesh.obj
 0001:000ba0b0       ?acquireReference@HeightField@Gu@physx@@UEAAXXZ 00000001800bb0b0 f   GuHeightField.obj
 0001:000ba0b0       ?acquireReference@TetrahedronMesh@Gu@physx@@UEAAXXZ 00000001800bb0b0 f   GuTetrahedronMesh.obj
 0001:000ba0b0       ?acquireReference@TriangleMesh@Gu@physx@@UEAAXXZ 00000001800bb0b0 f   GuTriangleMesh.obj
 0001:000ba570       ?createObject@ConvexMesh@Gu@physx@@SAPEAV123@AEAPEAEAEAVPxDeserializationContext@3@@Z 00000001800bb570 f   GuConvexMesh.obj
 0001:000ba690       ?exportExtraData@ConvexMesh@Gu@physx@@UEAAXAEAVPxSerializationContext@3@@Z 00000001800bb690 f   GuConvexMesh.obj
 0001:000ba790       ?getConcreteTypeName@PxConvexMesh@physx@@UEBAPEBDXZ 00000001800bb790 f i GuConvexMesh.obj
 0001:000ba7a0       ?getIndexBuffer@ConvexMesh@Gu@physx@@UEBAPEBEXZ 00000001800bb7a0 f i GuConvexMesh.obj
 0001:000ba7e0       ?getLocalBounds@ConvexMesh@Gu@physx@@UEBA?AVPxBounds3@3@XZ 00000001800bb7e0 f   GuConvexMesh.obj
 0001:000ba870       ?getMassInformation@ConvexMesh@Gu@physx@@UEBAXAEAMAEAV?$PxMat33T@M@3@AEAV?$PxVec3T@M@3@@Z 00000001800bb870 f   GuConvexMesh.obj
 0001:000ba8e0       ?getNbPolygons@ConvexMesh@Gu@physx@@UEBAIXZ 00000001800bb8e0 f i GuConvexMesh.obj
 0001:000ba8f0       ?getNbVertices@ConvexMesh@Gu@physx@@UEBAIXZ 00000001800bb8f0 f i GuConvexMesh.obj
 0001:000ba900       ?getPolygonData@ConvexMesh@Gu@physx@@UEBA_NIAEAUPxHullPolygon@3@@Z 00000001800bb900 f   GuConvexMesh.obj
 0001:000ba950       ?getReferenceCount@ConvexMesh@Gu@physx@@UEBAIXZ 00000001800bb950 f   GuConvexMesh.obj
 0001:000ba950       ?getReferenceCount@DeformableVolumeAuxData@Gu@physx@@UEBAIXZ 00000001800bb950 f   GuTetrahedronMesh.obj
 0001:000ba950       ?getReferenceCount@DeformableVolumeMesh@Gu@physx@@UEBAIXZ 00000001800bb950 f   GuTetrahedronMesh.obj
 0001:000ba950       ?getReferenceCount@HeightField@Gu@physx@@UEBAIXZ 00000001800bb950 f   GuHeightField.obj
 0001:000ba950       ?getReferenceCount@TetrahedronMesh@Gu@physx@@UEBAIXZ 00000001800bb950 f   GuTetrahedronMesh.obj
 0001:000ba950       ?getReferenceCount@TriangleMesh@Gu@physx@@UEBAIXZ 00000001800bb950 f   GuTriangleMesh.obj
 0001:000ba960       ?getSDF@ConvexMesh@Gu@physx@@UEBAPEBMXZ 00000001800bb960 f   GuConvexMesh.obj
 0001:000ba970       ?getVertices@ConvexMesh@Gu@physx@@UEBAPEBV?$PxVec3T@M@3@XZ 00000001800bb970 f i GuConvexMesh.obj
 0001:000ba990       ?isGpuCompatible@ConvexMesh@Gu@physx@@UEBA_NXZ 00000001800bb990 f   GuConvexMesh.obj
 0001:000ba9d0       ?isKindOf@PxBase@physx@@MEBA_NPEBD@Z 00000001800bb9d0 f i GuConvexMesh.obj
 0001:000ba9f0       ?isKindOf@PxConvexMesh@physx@@MEBA_NPEBD@Z 00000001800bb9f0 f i GuConvexMesh.obj
 0001:000baa80       ?isReleasable@PxBase@physx@@UEBA_NXZ 00000001800bba80 f i GuConvexMesh.obj
 0001:000baa90       ?load@ConvexMesh@Gu@physx@@QEAA_NAEAVPxInputStream@3@@Z 00000001800bba90 f   GuConvexMesh.obj
 0001:000bb010       ?onRefCountZero@ConvexMesh@Gu@physx@@UEAAXXZ 00000001800bc010 f   GuConvexMesh.obj
 0001:000bb140       ?release@ConvexMesh@Gu@physx@@UEAAXXZ 00000001800bc140 f   GuConvexMesh.obj
 0001:000bb140       ?release@DeformableVolumeAuxData@Gu@physx@@UEAAXXZ 00000001800bc140 f   GuTetrahedronMesh.obj
 0001:000bb140       ?release@DeformableVolumeMesh@Gu@physx@@UEAAXXZ 00000001800bc140 f   GuTetrahedronMesh.obj
 0001:000bb140       ?release@HeightField@Gu@physx@@UEAAXXZ 00000001800bc140 f   GuHeightField.obj
 0001:000bb140       ?release@TetrahedronMesh@Gu@physx@@UEAAXXZ 00000001800bc140 f   GuTetrahedronMesh.obj
 0001:000bb140       ?release@TriangleMesh@Gu@physx@@UEAAXXZ 00000001800bc140 f   GuTriangleMesh.obj
 0001:000bb170       ??Dphysx@@YA?AV?$PxMat34T@M@0@AEBVPxMeshScale@0@AEBV10@@Z 00000001800bc170 f i GuConvexUtilsInternal.obj
 0001:000bb6e0       ?computeHullOBB@Gu@physx@@YAXAEAVBox@12@AEBVPxBounds3@2@MAEBV?$PxMat34T@M@2@2AEBVFastVertex2ShapeScaling@Cm@2@_N@Z 00000001800bc6e0 f   GuConvexUtilsInternal.obj
 0001:000bbb90       ?computeOBBAroundConvex@Gu@physx@@YAXAEAVBox@12@AEBVPxConvexMeshGeometry@2@PEBVPxConvexMesh@2@AEBV?$PxTransformT@M@2@@Z 00000001800bcb90 f   GuConvexUtilsInternal.obj
 0001:000bc3e0       ?computeVertexSpaceOBB@Gu@physx@@YAXAEAVBox@12@AEBV312@AEBV?$PxTransformT@M@2@AEBVPxMeshScale@2@@Z 00000001800bd3e0 f   GuConvexUtilsInternal.obj
 0001:000bc710       ?transform@physx@@YA?AVBox@Gu@1@AEBV?$PxMat34T@M@1@AEBV231@@Z 00000001800bd710 f i GuConvexUtilsInternal.obj
 0001:000bc960       ?localSearch@physx@@YAXAEAIAEBV?$PxVec3T@M@1@PEBV21@PEBUBigConvexRawData@Gu@1@@Z 00000001800bd960 f   GuHillClimbing.obj
 0001:000bcaa0       ??0PCMPolygonalBox@Gu@physx@@QEAA@AEBV?$PxVec3T@M@2@@Z 00000001800bdaa0 f   GuPCMShapeConvex.obj
 0001:000bcaa0       ??0PolygonalBox@Gu@physx@@QEAA@AEBV?$PxVec3T@M@2@@Z 00000001800bdaa0 f   GuShapeConvex.obj
 0001:000bdf60       ?getPolygonalData@PolygonalBox@Gu@physx@@QEBAXPEIAUPolygonalData@23@@Z 00000001800bef60 f   GuShapeConvex.obj
 0001:000bdfd0       ?getPolygonalData_Convex@Gu@physx@@YAXPEIAUPolygonalData@12@PEIBUConvexHullData@12@AEBVFastVertex2ShapeScaling@Cm@2@@Z 00000001800befd0 f   GuShapeConvex.obj
 0001:000be140       ?distancePointBoxSquared@Gu@physx@@YAMAEBV?$PxVec3T@M@2@00AEBV?$PxMat33T@M@2@PEAV32@@Z 00000001800bf140 f   GuDistancePointBox.obj
 0001:000be290       ?closestPtPointTriangle@Gu@physx@@YA?AV?$PxVec3T@M@2@AEBV32@000AEAM1@Z 00000001800bf290 f   GuDistancePointTriangle.obj
 0001:000be7b0       ?distancePointTriangleSquared2UnitBox@Gu@physx@@YA?AT__m128@@AEBT3@000AEAT3@11@Z 00000001800bf7b0 f   GuDistancePointTriangle.obj
 0001:000be8d0       ?distancePointTriangleSquared@Gu@physx@@YA?AT__m128@@AEBT3@000AEAT3@11@Z 00000001800bf8d0 f   GuDistancePointTriangle.obj
 0001:000bf620       ?distanceSegmentBoxSquared@Gu@physx@@YAMAEBV?$PxVec3T@M@2@000AEBV?$PxMat33T@M@2@PEAMPEAV32@@Z 00000001800c0620 f   GuDistanceSegmentBox.obj
 0001:000bfea0       ?distanceSegmentSegmentSquared4@Gu@physx@@YA?AT__m128@@AEBT3@000000000AEAT3@1@Z 00000001800c0ea0 f   GuDistanceSegmentSegment.obj
 0001:000c01b0       ?distanceSegmentSegmentSquared@Gu@physx@@YA?AT__m128@@AEBT3@000AEAT3@1@Z 00000001800c11b0 f   GuDistanceSegmentSegment.obj
 0001:000c0370       ?distanceSegmentSegmentSquared@Gu@physx@@YAMAEBV?$PxVec3T@M@2@000PEAM1@Z 00000001800c1370 f   GuDistanceSegmentSegment.obj
 0001:000c0600       ?distanceSegmentSegmentSquared@Gu@physx@@YAMAEBV?$PxVec3T@M@2@0M00MPEAM1@Z 00000001800c1600 f   GuDistanceSegmentSegment.obj
 0001:000c0d40       ?distanceSegmentTriangleSquared@Gu@physx@@YA?AT__m128@@AEBT3@0000AEAT3@1@Z 00000001800c1d40 f   GuDistanceSegmentTriangle.obj
 0001:000c1480       ?distanceSegmentTriangleSquared@Gu@physx@@YAMAEBV?$PxVec3T@M@2@0000PEAM11@Z 00000001800c2480 f   GuDistanceSegmentTriangle.obj
 0001:000c2af0       ?distanceTriangleTriangleSquared@Gu@physx@@YAMAEAV?$PxVec3T@M@2@0QEBVPxVec3Padded@2@1@Z 00000001800c3af0 f   GuDistanceTriangleTriangle.obj
 0001:000c3640       ?closestPtPointTetrahedron@Gu@physx@@YA?AV?$PxVec3T@M@2@AEBV32@0000AEBV?$PxVec4T@M@2@@Z 00000001800c4640 f   GuDistancePointTetrahedron.obj
 0001:000c46a0       ?PenetrationDepth@EPA@Gu@physx@@QEAA?AW4GjkStatus@23@AEBUGjkConvex@23@0PEIBT__m128@@1E_NT6@AEAUGjkOutput@23@@Z 00000001800c56a0 f   GuEPA.obj
 0001:000c5140       ?addFacet@EPA@Gu@physx@@QEAAPEAVFacet@23@IIIAEBT__m128@@@Z 00000001800c6140 f   GuEPA.obj
 0001:000c5570       ?epaPenetration@Gu@physx@@YA?AW4GjkStatus@12@AEBUGjkConvex@12@0PEIBE1E_NT__m128@@AEAUGjkOutput@12@@Z 00000001800c6570 f   GuEPA.obj
 0001:000c56e0       ?epaPenetration@Gu@physx@@YA?AW4GjkStatus@12@AEBUGjkConvex@12@0PEIBT__m128@@1E_NT5@AEAUGjkOutput@12@@Z 00000001800c66e0 f   GuEPA.obj
 0001:000c5790       ?silhouette@Facet@Gu@physx@@QEAAXAEBT__m128@@PEIBT4@1AEAVEdgeBuffer@23@AEAV?$InlineDeferredIDPool@$0EA@@Cm@3@@Z 00000001800c6790 f   GuEPA.obj
 0001:000c5960       ?closestPtPointTetrahedron@Gu@physx@@YA?AT__m128@@PEIAT3@00AEAI@Z 00000001800c6960 f   GuGJKSimplex.obj
 0001:000c60e0       ?closestPtPointTetrahedron@Gu@physx@@YA?AT__m128@@PEIAT3@00PEIAH1AEAI@Z 00000001800c70e0 f   GuGJKSimplex.obj
 0001:000c7b80       ??$gjk@UGjkConvex@Gu@physx@@U123@@Gu@physx@@YA?AW4GjkStatus@01@AEBUGjkConvex@01@0AEBT__m128@@1AEAT4@222@Z 00000001800c8b80 f i GuGJKTest.obj
 0001:000c87a0       ??$gjkPenetration@UGjkConvex@Gu@physx@@U123@@Gu@physx@@YA?AW4GjkStatus@01@AEBUGjkConvex@01@0AEBT__m128@@1_NPEIAE3AEAEAEAUGjkOutput@01@@Z 00000001800c97a0 f i GuGJKTest.obj
 0001:000c8810       ??$gjkPenetration@UGjkConvex@Gu@physx@@U123@@Gu@physx@@YA?AW4GjkStatus@01@AEBUGjkConvex@01@0AEBT__m128@@1_NPEIAE3PEIAT4@4AEAEAEAUGjkOutput@01@@Z 00000001800c9810 f i GuGJKTest.obj
 0001:000c9c90       ??$gjkRaycast@UGjkConvex@Gu@physx@@U123@@Gu@physx@@YA_NAEBUGjkConvex@01@0AEBT__m128@@111AEAT3@22M@Z 00000001800cac90 f i GuGJKTest.obj
 0001:000ca820       ?testEpaPenetration@Gu@physx@@YA?AW4GjkStatus@12@AEBUGjkConvex@12@0PEBE1EAEAUGjkOutput@12@@Z 00000001800cb820 f   GuGJKTest.obj
 0001:000ca870       ?testGjk@Gu@physx@@YA?AW4GjkStatus@12@AEBUGjkConvex@12@0AEBT__m128@@1AEAT5@222@Z 00000001800cb870 f   GuGJKTest.obj
 0001:000ca880       ?testGjkPenetration@Gu@physx@@YA?AW4GjkStatus@12@AEBUGjkConvex@12@0AEBT__m128@@1PEAE2AEAEAEAUGjkOutput@12@@Z 00000001800cb880 f   GuGJKTest.obj
 0001:000ca8d0       ?testGjkRaycast@Gu@physx@@YA_NAEBUGjkConvex@12@0AEBT__m128@@111AEAT4@22M@Z 00000001800cb8d0 f   GuGJKTest.obj
 0001:000ca8e0       ??0HeightField@Gu@physx@@QEAA@PEAVMeshFactory@12@@Z 00000001800cb8e0 f   GuHeightField.obj
 0001:000ca930       ??0HeightField@Gu@physx@@QEAA@PEAVMeshFactory@12@AEAUHeightFieldData@12@@Z 00000001800cb930 f   GuHeightField.obj
 0001:000ca9e0       ??1HeightField@Gu@physx@@UEAA@XZ 00000001800cb9e0 f   GuHeightField.obj
 0001:000caa60       ??_EHeightField@Gu@physx@@UEAAPEAXI@Z 00000001800cba60 f i GuHeightField.obj
 0001:000caa60       ??_GHeightField@Gu@physx@@UEAAPEAXI@Z 00000001800cba60 f i GuHeightField.obj
 0001:000cab10       ?computeCellCoordinates@HeightField@Gu@physx@@QEBAIMMAEAM0@Z 00000001800cbb10 f   GuHeightField.obj
 0001:000cac30       ?createObject@HeightField@Gu@physx@@SAPEAV123@AEAPEAEAEAVPxDeserializationContext@3@@Z 00000001800cbc30 f   GuHeightField.obj
 0001:000cac80       ?exportExtraData@HeightField@Gu@physx@@UEAAXAEAVPxSerializationContext@3@@Z 00000001800cbc80 f   GuHeightField.obj
 0001:000cacd0       ?getConcreteTypeName@PxHeightField@physx@@UEBAPEBDXZ 00000001800cbcd0 f i GuHeightField.obj
 0001:000cace0       ?getConvexEdgeThreshold@HeightField@Gu@physx@@UEBAMXZ 00000001800cbce0 f i GuHeightField.obj
 0001:000cacf0       ?getFlags@HeightField@Gu@physx@@UEBA?AV?$PxFlags@W4Enum@PxHeightFieldFlag@physx@@G@3@XZ 00000001800cbcf0 f i GuHeightField.obj
 0001:000cad00       ?getFormat@HeightField@Gu@physx@@UEBA?AW4Enum@PxHeightFieldFormat@3@XZ 00000001800cbd00 f i GuHeightField.obj
 0001:000cad10       ?getHeight@HeightField@Gu@physx@@UEBAMMM@Z 00000001800cbd10 f i GuHeightField.obj
 0001:000cae30       ?getNbColumns@HeightField@Gu@physx@@UEBAIXZ 00000001800cbe30 f i GuHeightField.obj
 0001:000cae40       ?getNbBounds@BVH@Gu@physx@@UEBAIXZ 00000001800cbe40 f i GuBVH.obj
 0001:000cae40       ?getNbPrimitives@SourceMesh@Gu@physx@@UEBAIXZ 00000001800cbe40 f i GuBV4.obj
 0001:000cae40       ?getNbPrimitives@TetrahedronSourceMesh@Gu@physx@@UEBAIXZ 00000001800cbe40 f i GuBV4.obj
 0001:000cae40       ?getNbRows@HeightField@Gu@physx@@UEBAIXZ 00000001800cbe40 f i GuHeightField.obj
 0001:000cae50       ?getSample@HeightField@Gu@physx@@UEBAAEBUPxHeightFieldSample@3@II@Z 00000001800cbe50 f i GuHeightField.obj
 0001:000cae60       ?getSampleStride@HeightField@Gu@physx@@UEBAIXZ 00000001800cbe60 f i GuHeightField.obj
 0001:000cae70       ?getTimestamp@HeightField@Gu@physx@@UEBAIXZ 00000001800cbe70 f i GuHeightField.obj
 0001:000cae80       ?getTriangleMaterialIndex@HeightField@Gu@physx@@UEBAGI@Z 00000001800cbe80 f i GuHeightField.obj
 0001:000caeb0       ?getTriangleNormal@HeightField@Gu@physx@@UEBA?AV?$PxVec3T@M@3@I@Z 00000001800cbeb0 f i GuHeightField.obj
 0001:000caed0       ?getTriangleNormalInternal@HeightField@Gu@physx@@QEBA?AV?$PxVec3T@M@3@I@Z 00000001800cbed0 f i GuHeightField.obj
 0001:000cb020       ?isKindOf@PxHeightField@physx@@MEBA_NPEBD@Z 00000001800cc020 f i GuHeightField.obj
 0001:000cb0b0       ?load@HeightField@Gu@physx@@QEAA_NAEAVPxInputStream@3@@Z 00000001800cc0b0 f   GuHeightField.obj
 0001:000cb410       ?loadFromDesc@HeightField@Gu@physx@@QEAA_NAEBVPxHeightFieldDesc@3@@Z 00000001800cc410 f   GuHeightField.obj
 0001:000cb610       ?modifySamples@HeightField@Gu@physx@@UEAA_NHHAEBVPxHeightFieldDesc@3@_N@Z 00000001800cc610 f   GuHeightField.obj
 0001:000cb990       ?onRefCountZero@HeightField@Gu@physx@@UEAAXXZ 00000001800cc990 f   GuHeightField.obj
 0001:000cba60       ?releaseMemory@HeightField@Gu@physx@@QEAAXXZ 00000001800cca60 f   GuHeightField.obj
 0001:000cbab0       ?save@HeightField@Gu@physx@@QEAA_NAEAVPxOutputStream@3@_N@Z 00000001800ccab0 f   GuHeightField.obj
 0001:000cbcf0       ?saveCells@HeightField@Gu@physx@@UEBAIPEAXI@Z 00000001800cccf0 f   GuHeightField.obj
 0001:000cbd30       ?computeLocalBounds@HeightFieldUtil@Gu@physx@@QEBAXAEAVPxBounds3@3@@Z 00000001800ccd30 f   GuHeightFieldUtil.obj
 0001:000cc1f0       ?getTriangle@HeightFieldUtil@Gu@physx@@QEBAIAEBV?$PxTransformT@M@3@AEAVPxTriangle@3@PEAI2I_N3@Z 00000001800cd1f0 f   GuHeightFieldUtil.obj
 0001:000cccf0       ?getTriangleAdjacencyIndices@HeightField@Gu@physx@@QEBAXIIIIAEAI00@Z 00000001800cdcf0 f i GuHeightFieldUtil.obj
 0001:000ccec0       ?overlapAABBTriangles@HeightFieldUtil@Gu@physx@@QEBAXAEBVPxBounds3@3@AEAVOverlapReport@23@I@Z 00000001800cdec0 f   GuHeightFieldUtil.obj
 0001:000cd320       ??$gjk@U?$RelativeConvex@VTriangleV@Gu@physx@@@Gu@physx@@U?$LocalConvex@VConvexHullV@Gu@physx@@@23@@Gu@physx@@YA?AW4GjkStatus@01@AEBU?$RelativeConvex@VTriangleV@Gu@physx@@@01@AEBU?$LocalConvex@VConvexHullV@Gu@physx@@@01@AEBT__m128@@2AEAT5@333@Z 00000001800ce320 f i GuOverlapTestsHF.obj
 0001:000ce240       ?GeomOverlapCallback_BoxHeightfield@@YA_NAEBVPxGeometry@physx@@AEBV?$PxTransformT@M@2@01PEAUTriggerCache@Gu@2@PEAUPxQueryThreadContext@2@@Z 00000001800cf240 f   GuOverlapTestsHF.obj
 0001:000ce7a0       ?GeomOverlapCallback_CapsuleHeightfield@@YA_NAEBVPxGeometry@physx@@AEBV?$PxTransformT@M@2@01PEAUTriggerCache@Gu@2@PEAUPxQueryThreadContext@2@@Z 00000001800cf7a0 f   GuOverlapTestsHF.obj
 0001:000ceda0       ?GeomOverlapCallback_ConvexHeightfield@@YA_NAEBVPxGeometry@physx@@AEBV?$PxTransformT@M@2@01PEAUTriggerCache@Gu@2@PEAUPxQueryThreadContext@2@@Z 00000001800cfda0 f   GuOverlapTestsHF.obj
 0001:000cf800       ?GeomOverlapCallback_SphereHeightfield@@YA_NAEBVPxGeometry@physx@@AEBV?$PxTransformT@M@2@01PEAUTriggerCache@Gu@2@PEAUPxQueryThreadContext@2@@Z 00000001800d0800 f   GuOverlapTestsHF.obj
 0001:000d03c0       ??$gjkRaycast@U?$LocalConvex@VTriangleV@Gu@physx@@@Gu@physx@@U?$LocalConvex@VConvexHullV@Gu@physx@@@23@@Gu@physx@@YA_NAEBU?$LocalConvex@VTriangleV@Gu@physx@@@01@AEBU?$LocalConvex@VConvexHullV@Gu@physx@@@01@AEBT__m128@@222AEAT4@33M@Z 00000001800d13c0 f i GuSweepsHF.obj
 0001:000d11a0       ??$traceSegment@VBoxTraceSegmentReport@@$0A@$00@HeightFieldTraceUtil@Gu@physx@@QEBAXAEBV?$PxVec3T@M@2@0MPEAVBoxTraceSegmentReport@@AEBVPxBounds3@2@_NPEBV32@@Z 00000001800d21a0 f i GuSweepsHF.obj
 0001:000d11a0       ??$traceSegment@VCapsuleTraceSegmentReport@@$0A@$00@HeightFieldTraceUtil@Gu@physx@@QEBAXAEBV?$PxVec3T@M@2@0MPEAVCapsuleTraceSegmentReport@@AEBVPxBounds3@2@_NPEBV32@@Z 00000001800d21a0 f i GuSweepsHF.obj
 0001:000d11a0       ??$traceSegment@VConvexTraceSegmentReport@@$0A@$00@HeightFieldTraceUtil@Gu@physx@@QEBAXAEBV?$PxVec3T@M@2@0MPEAVConvexTraceSegmentReport@@AEBVPxBounds3@2@_NPEBV32@@Z 00000001800d21a0 f i GuSweepsHF.obj
 0001:000d1970       ??0ConvexTraceSegmentReport@@QEAA@AEBVHeightFieldUtil@Gu@physx@@AEBUConvexHullData@23@AEBVPxMeshScale@3@AEBV?$PxTransformT@M@3@3AEBV?$PxVec3T@M@3@MV?$PxFlags@W4Enum@PxHitFlag@physx@@G@3@M@Z 00000001800d2970 f i GuSweepsHF.obj
 0001:000d22f0       ??_EBoxTraceSegmentReport@@UEAAPEAXI@Z 00000001800d32f0 f i GuSweepsHF.obj
 0001:000d22f0       ??_GBoxTraceSegmentReport@@UEAAPEAXI@Z 00000001800d32f0 f i GuSweepsHF.obj
 0001:000d2320       ??_ECapsuleTraceSegmentReport@@UEAAPEAXI@Z 00000001800d3320 f i GuSweepsHF.obj
 0001:000d2320       ??_GCapsuleTraceSegmentReport@@UEAAPEAXI@Z 00000001800d3320 f i GuSweepsHF.obj
 0001:000d2350       ??_EConvexTraceSegmentReport@@UEAAPEAXI@Z 00000001800d3350 f i GuSweepsHF.obj
 0001:000d2350       ??_GConvexTraceSegmentReport@@UEAAPEAXI@Z 00000001800d3350 f i GuSweepsHF.obj
 0001:000d2380       ??_EHeightFieldTraceSegmentReport@@UEAAPEAXI@Z 00000001800d3380 f i GuSweepsHF.obj
 0001:000d2380       ??_GHeightFieldTraceSegmentReport@@UEAAPEAXI@Z 00000001800d3380 f i GuSweepsHF.obj
 0001:000d23b0       ?finalizeHit@ConvexTraceSegmentReport@@QEAA_NAEAUPxGeomSweepHit@physx@@AEBVPxHeightFieldGeometry@3@AEBV?$PxTransformT@M@3@AEBVPxConvexMeshGeometry@3@2AEBV?$PxVec3T@M@3@M@Z 00000001800d33b0 f i GuSweepsHF.obj
 0001:000d25d0       ?onEvent@BoxTraceSegmentReport@@UEAA_NIPEBI@Z 00000001800d35d0 f i GuSweepsHF.obj
 0001:000d2a20       ?onEvent@CapsuleTraceSegmentReport@@UEAA_NIPEBI@Z 00000001800d3a20 f i GuSweepsHF.obj
 0001:000d2c40       ?onEvent@ConvexTraceSegmentReport@@UEAA_NIPEBI@Z 00000001800d3c40 f i GuSweepsHF.obj
 0001:000d3200       ?prepare@?$OverlapTraceSegment@VBoxTraceSegmentReport@@@HeightFieldTraceUtil@Gu@physx@@QEAAXAEBV?$PxVec3T@M@4@00AEAM1@Z 00000001800d4200 f i GuSweepsHF.obj
 0001:000d3200       ?prepare@?$OverlapTraceSegment@VCapsuleTraceSegmentReport@@@HeightFieldTraceUtil@Gu@physx@@QEAAXAEBV?$PxVec3T@M@4@00AEAM1@Z 00000001800d4200 f i GuSweepsHF.obj
 0001:000d3200       ?prepare@?$OverlapTraceSegment@VConvexTraceSegmentReport@@@HeightFieldTraceUtil@Gu@physx@@QEAAXAEBV?$PxVec3T@M@4@00AEAM1@Z 00000001800d4200 f i GuSweepsHF.obj
 0001:000d34c0       ?sweepBox_HeightFieldGeom@@YA_NAEBVPxGeometry@physx@@AEBV?$PxTransformT@M@2@AEBVPxBoxGeometry@2@1AEBVBox@Gu@2@AEBV?$PxVec3T@M@2@MAEAUPxGeomSweepHit@2@V?$PxFlags@W4Enum@PxHitFlag@physx@@G@2@MPEAUPxQueryThreadContext@2@@Z 00000001800d44c0 f   GuSweepsHF.obj
 0001:000d4300       ?sweepCapsule_HeightFieldGeom@@YA_NAEBVPxGeometry@physx@@AEBV?$PxTransformT@M@2@AEBVPxCapsuleGeometry@2@1AEBVCapsule@Gu@2@AEBV?$PxVec3T@M@2@MAEAUPxGeomSweepHit@2@V?$PxFlags@W4Enum@PxHitFlag@physx@@G@2@MPEAUPxQueryThreadContext@2@@Z 00000001800d5300 f   GuSweepsHF.obj
 0001:000d4c50       ?sweepConvex_HeightFieldGeom@@YA_NAEBVPxGeometry@physx@@AEBV?$PxTransformT@M@2@AEBVPxConvexMeshGeometry@2@1AEBV?$PxVec3T@M@2@MAEAUPxGeomSweepHit@2@V?$PxFlags@W4Enum@PxHitFlag@physx@@G@2@MPEAUPxQueryThreadContext@2@@Z 00000001800d5c50 f   GuSweepsHF.obj
 0001:000d5610       ?testVertexIndex@?$OverlapTraceSegment@VBoxTraceSegmentReport@@@HeightFieldTraceUtil@Gu@physx@@QEAA_NI@Z 00000001800d6610 f i GuSweepsHF.obj
 0001:000d5610       ?testVertexIndex@?$OverlapTraceSegment@VCapsuleTraceSegmentReport@@@HeightFieldTraceUtil@Gu@physx@@QEAA_NI@Z 00000001800d6610 f i GuSweepsHF.obj
 0001:000d5610       ?testVertexIndex@?$OverlapTraceSegment@VConvexTraceSegmentReport@@@HeightFieldTraceUtil@Gu@physx@@QEAA_NI@Z 00000001800d6610 f i GuSweepsHF.obj
 0001:000d5770       ?transformFast@PxBounds3@physx@@SA?AV12@AEBV?$PxTransformT@M@2@AEBV12@@Z 00000001800d6770 f i GuSweepsHF.obj
 0001:000d5b50       ?visitCells@?$OverlapTraceSegment@VBoxTraceSegmentReport@@@HeightFieldTraceUtil@Gu@physx@@QEAA_NAEBUOverlapRectangle@1234@@Z 00000001800d6b50 f i GuSweepsHF.obj
 0001:000d5b50       ?visitCells@?$OverlapTraceSegment@VCapsuleTraceSegmentReport@@@HeightFieldTraceUtil@Gu@physx@@QEAA_NAEBUOverlapRectangle@1234@@Z 00000001800d6b50 f i GuSweepsHF.obj
 0001:000d5b50       ?visitCells@?$OverlapTraceSegment@VConvexTraceSegmentReport@@@HeightFieldTraceUtil@Gu@physx@@QEAA_NAEBUOverlapRectangle@1234@@Z 00000001800d6b50 f i GuSweepsHF.obj
 0001:000d5d40       ?intersectOBBOBB@Gu@physx@@YA_NAEBV?$PxVec3T@M@2@0AEBV?$PxMat33T@M@2@001_N@Z 00000001800d6d40 f   GuIntersectionBoxBox.obj
 0001:000d6390       ?intersectCapsuleTriangle@Gu@physx@@YA_NAEBV?$PxVec3T@M@2@000AEBVCapsule@12@AEBUCapsuleTriangleOverlapData@12@@Z 00000001800d7390 f   GuIntersectionCapsuleTriangle.obj
 0001:000d6f80       ?intersectEdgeEdge@Gu@physx@@YA_NAEBV?$PxVec3T@M@2@0000AEAMAEAV32@@Z 00000001800d7f80 f   GuIntersectionEdgeEdge.obj
 0001:000d72b0       ?intersectRayAABB2@Gu@physx@@YA_NAEBT__m128@@0000AEAT3@1@Z 00000001800d82b0 f   GuIntersectionRayBox.obj
 0001:000d7370       ?intersectRayAABB2@Gu@physx@@YA_NAEBV?$PxVec3T@M@2@000MAEAM1@Z 00000001800d8370 f   GuIntersectionRayBox.obj
 0001:000d7520       ?intersectRayAABB@Gu@physx@@YAHAEBV?$PxVec3T@M@2@000AEAM1@Z 00000001800d8520 f   GuIntersectionRayBox.obj
 0001:000d7650       ?rayAABBIntersect2@Gu@physx@@YAIAEBV?$PxVec3T@M@2@000AEAV32@AEAM@Z 00000001800d8650 f   GuIntersectionRayBox.obj
 0001:000d7850       ?intersectRayCapsuleInternal@Gu@physx@@YAIAEBV?$PxVec3T@M@2@000MQEAM@Z 00000001800d8850 f   GuIntersectionRayCapsule.obj
 0001:000d7d10       ?intersectRaySphere@Gu@physx@@YA_NAEBV?$PxVec3T@M@2@0M0MAEAMPEAV32@@Z 00000001800d8d10 f   GuIntersectionRaySphere.obj
 0001:000d7e10       ?intersectRaySphereBasic@Gu@physx@@YA_NAEBV?$PxVec3T@M@2@0M0MAEAMPEAV32@@Z 00000001800d8e10 f   GuIntersectionRaySphere.obj
 0001:000d7f70       ?intersectSphereBox@Gu@physx@@YA_NAEBVSphere@12@AEBVBox@12@@Z 00000001800d8f70 f   GuIntersectionSphereBox.obj
 0001:000d81a0       ?intersectTetrahedronBox@Gu@physx@@YA_NAEBV?$PxVec3T@M@2@000AEBVPxBounds3@2@@Z 00000001800d91a0 f   GuIntersectionTetrahedronBox.obj
 0001:000d8570       ?intersectTriangleBox@Gu@physx@@YAHAEBVBoxPadded@12@AEBV?$PxVec3T@M@2@11@Z 00000001800d9570 f   GuIntersectionTriangleBox.obj
 0001:000d8b40       ?intersectTriangleBoxBV4@@YAHAEBV?$PxVec3T@M@physx@@00AEBV?$PxMat33T@M@2@00@Z 00000001800d9b40 f   GuIntersectionTriangleBox.obj
 0001:000d8f80       ?intersectTriangleBox_ReferenceCode@Gu@physx@@YAHAEBV?$PxVec3T@M@2@0000@Z 00000001800d9f80 f   GuIntersectionTriangleBox.obj
 0001:000d9760       ?intersectTriangleBox_Unsafe@Gu@physx@@YAHAEBV?$PxVec3T@M@2@0000@Z 00000001800da760 f   GuIntersectionTriangleBox.obj
 0001:000d9b20       ?intersectTriangleTriangle@Gu@physx@@YA_NAEBV?$PxVec3T@M@2@00000_N@Z 00000001800dab20 f   GuIntersectionTriangleTriangle.obj
 0001:000daf40       ??0BV4Tree@Gu@physx@@QEAA@W4PxEMPTY@2@@Z 00000001800dbf40 f   GuBV4.obj
 0001:000daf50       ??0BV4Tree@Gu@physx@@QEAA@XZ 00000001800dbf50 f   GuBV4.obj
 0001:000daf80       ??0SourceMesh@Gu@physx@@QEAA@XZ 00000001800dbf80 f   GuBV4.obj
 0001:000dafb0       ??0TetrahedronSourceMesh@Gu@physx@@QEAA@XZ 00000001800dbfb0 f   GuBV4.obj
 0001:000dafe0       ??1BV4Tree@Gu@physx@@QEAA@XZ 00000001800dbfe0 f   GuBV4.obj
 0001:000db040       ??1SourceMesh@Gu@physx@@UEAA@XZ 00000001800dc040 f   GuBV4.obj
 0001:000db040       ??1TetrahedronSourceMesh@Gu@physx@@UEAA@XZ 00000001800dc040 f   GuBV4.obj
 0001:000db090       ??4BV4Tree@Gu@physx@@QEAAXAEAV012@@Z 00000001800dc090 f   GuBV4.obj
 0001:000db120       ??4SourceMesh@Gu@physx@@QEAAXAEAV012@@Z 00000001800dc120 f   GuBV4.obj
 0001:000db170       ??_ESourceMesh@Gu@physx@@UEAAPEAXI@Z 00000001800dc170 f i GuBV4.obj
 0001:000db170       ??_ETetrahedronSourceMesh@Gu@physx@@UEAAPEAXI@Z 00000001800dc170 f i GuBV4.obj
 0001:000db170       ??_GSourceMesh@Gu@physx@@UEAAPEAXI@Z 00000001800dc170 f i GuBV4.obj
 0001:000db170       ??_GTetrahedronSourceMesh@Gu@physx@@UEAAPEAXI@Z 00000001800dc170 f i GuBV4.obj
 0001:000db210       ??_ESourceMeshBase@Gu@physx@@UEAAPEAXI@Z 00000001800dc210 f i GuBV4.obj
 0001:000db210       ??_GSourceMeshBase@Gu@physx@@UEAAPEAXI@Z 00000001800dc210 f i GuBV4.obj
 0001:000db2b0       ?exportExtraData@BV4Tree@Gu@physx@@QEAAXAEAVPxSerializationContext@3@@Z 00000001800dc2b0 f   GuBV4.obj
 0001:000db310       ?getPrimitiveBox@SourceMesh@Gu@physx@@UEAAXIAEAT__m128@@0@Z 00000001800dc310 f   GuBV4.obj
 0001:000db3b0       ?getPrimitiveBox@TetrahedronSourceMesh@Gu@physx@@UEAAXIAEAT__m128@@0@Z 00000001800dc3b0 f   GuBV4.obj
 0001:000db470       ?importExtraData@BV4Tree@Gu@physx@@QEAAXAEAVPxDeserializationContext@3@@Z 00000001800dc470 f   GuBV4.obj
 0001:000db4c0       ?init@BV32Tree@Gu@physx@@QEAA_NPEAVSourceMeshBase@23@AEBVPxBounds3@3@@Z 00000001800dc4c0 f   GuBV32.obj
 0001:000db4c0       ?init@BV4Tree@Gu@physx@@QEAA_NPEAVSourceMeshBase@23@AEBVPxBounds3@3@@Z 00000001800dc4c0 f   GuBV4.obj
 0001:000db560       ?load@BV4Tree@Gu@physx@@QEAA_NAEAVPxInputStream@3@_N@Z 00000001800dc560 f   GuBV4.obj
 0001:000db7a0       ?refit@BV4Tree@Gu@physx@@QEAA_NAEAVPxBounds3@3@M@Z 00000001800dc7a0 f   GuBV4.obj
 0001:000dbe10       ?refit@SourceMesh@Gu@physx@@UEAAXIAEAVPxBounds3@3@@Z 00000001800dce10 f   GuBV4.obj
 0001:000dbfb0       ?refit@TetrahedronSourceMesh@Gu@physx@@UEAAXIAEAVPxBounds3@3@@Z 00000001800dcfb0 f   GuBV4.obj
 0001:000dc1d0       ?remapTopology@SourceMesh@Gu@physx@@UEAAXPEBI@Z 00000001800dd1d0 f   GuBV4.obj
 0001:000dc470       ?remapTopology@TetrahedronSourceMesh@Gu@physx@@UEAAXPEBI@Z 00000001800dd470 f   GuBV4.obj
 0001:000dc720       ??0BV4_AABBTree@Gu@physx@@QEAA@XZ 00000001800dd720 f   GuBV4Build.obj
 0001:000dc730       ??0BVData@@QEAA@XZ         00000001800dd730 f   GuBV4Build.obj
 0001:000dc760       ??0BuildStats@Gu@physx@@QEAA@XZ 00000001800dd760 f i GuBV4Build.obj
 0001:000dc770       ??1BV4_AABBTree@Gu@physx@@QEAA@XZ 00000001800dd770 f   GuBV4Build.obj
 0001:000dc780       ??4BuildStats@Gu@physx@@QEAAAEAU012@$$QEAU012@@Z 00000001800dd780 f i GuBV4Build.obj
 0001:000dc790       ??4BuildStats@Gu@physx@@QEAAAEAU012@AEBU012@@Z 00000001800dd790 f i GuBV4Build.obj
 0001:000dc7a0       ?BuildBV4Ex@Gu@physx@@YA_NAEAVBV4Tree@12@AEAVSourceMeshBase@12@MI_NW4BV4_BuildStrategy@12@@Z 00000001800dd7a0 f   GuBV4Build.obj
 0001:000dd670       ?allocateNode@BV4BuildParams@@QEAAPEAUBV4Node@@XZ 00000001800de670 f   GuBV4Build.obj
 0001:000ddae0       ?buildFromMesh@BV4_AABBTree@Gu@physx@@QEAA_NAEAVSourceMeshBase@23@IW4BV4_BuildStrategy@23@@Z 00000001800deae0 f   GuBV4Build.obj
 0001:000de980       ?getCount@BuildStats@Gu@physx@@QEBAIXZ 00000001800df980 f i GuBV4Build.obj
 0001:000de980       ?getNbActiveObjects@PruningPool@Gu@physx@@QEBAIXZ 00000001800df980 f i GuIncrementalAABBPrunerCore.obj
 0001:000dea60       ?increaseCount@BuildStats@Gu@physx@@QEAAXI@Z 00000001800dfa60 f i GuBV4Build.obj
 0001:000df4a0       ?release@BV4_AABBTree@Gu@physx@@QEAAXXZ 00000001800e04a0 f   GuBV4Build.obj
 0001:000df550       ?releaseNodes@BV4BuildParams@@QEAAXXZ 00000001800e0550 f   GuBV4Build.obj
 0001:000df5c0       ?reset@BuildStats@Gu@physx@@QEAAXXZ 00000001800e05c0 f i GuBV4Build.obj
 0001:000df5d0       ?setCount@BuildStats@Gu@physx@@QEAAXI@Z 00000001800e05d0 f i GuBV4Build.obj
 0001:000dfc30       ?walk@BV4_AABBTree@Gu@physx@@QEBAIP6A_NPEBVAABBTreeNode@23@IPEAX@Z1@Z 00000001800e0c30 f   GuBV4Build.obj
 0001:000dfcf0       ?walkDistance@BV4_AABBTree@Gu@physx@@QEBAIP6A_NPEBVAABBTreeNode@23@IPEAX@ZP6A_N01@Z1@Z 00000001800e0cf0 f   GuBV4Build.obj
 0001:000e3c20       ?GenericSweep_AABB_CB@@YAXAEBVBox@Gu@physx@@AEBV?$PxVec3T@M@3@MAEBVBV4Tree@23@P6A_NPEAX111IAEAM@Z3I@Z 00000001800e4c20 f   GuBV4_AABBSweep.obj
 0001:000e3d80       ?Sweep_AABB_BV4@@YAHAEBVBox@Gu@physx@@AEBV?$PxVec3T@M@3@MAEBVBV4Tree@23@PEIAVSweepHit@23@I@Z 00000001800e4d80 f   GuBV4_AABBSweep.obj
 0001:000ecfe0       ?BV4_OverlapBoxAll@@YAIAEBVBox@Gu@physx@@AEBVBV4Tree@23@PEIBV?$PxMat44T@M@3@PEAIIAEA_N@Z 00000001800edfe0 f   GuBV4_BoxOverlap.obj
 0001:000ed800       ?BV4_OverlapBoxAny@@YAHAEBVBox@Gu@physx@@AEBVBV4Tree@23@PEIBV?$PxMat44T@M@3@@Z 00000001800ee800 f   GuBV4_BoxOverlap.obj
 0001:000ee010       ?BV4_OverlapBoxCB@@YAXAEBVBox@Gu@physx@@AEBVBV4Tree@23@P6A_NPEAXAEBV?$PxVec3T@M@3@333IPEBI@Z2@Z 00000001800ef010 f   GuBV4_BoxOverlap.obj
 0001:000ee6c0       ?BV4_OverlapBoxCB@@YAXAEBVBox@Gu@physx@@AEBVBV4Tree@23@P6A_NPEAXAEBV?$PxVec3T@M@3@33IPEBI@Z2@Z 00000001800ef6c0 f   GuBV4_BoxOverlap.obj
 0001:000eeb70       ?BV4_OverlapCapsuleAll@@YAIAEBVCapsule@Gu@physx@@AEBVBV4Tree@23@PEIBV?$PxMat44T@M@3@PEAIIAEA_N@Z 00000001800efb70 f   GuBV4_BoxOverlap.obj
 0001:000ef290       ?BV4_OverlapCapsuleAny@@YAHAEBVCapsule@Gu@physx@@AEBVBV4Tree@23@PEIBV?$PxMat44T@M@3@@Z 00000001800f0290 f   GuBV4_BoxOverlap.obj
 0001:000f1fd0       ?BV4_CapsuleSweepSingle@@YAHAEBVCapsule@Gu@physx@@AEBV?$PxVec3T@M@3@MAEBVBV4Tree@23@PEIAVSweepHit@23@I@Z 00000001800f2fd0 f   GuBV4_CapsuleSweep.obj
 0001:000f6010       ?BV4_CapsuleSweepSingleAA@@YAHAEBVCapsule@Gu@physx@@AEBV?$PxVec3T@M@3@MAEBVBV4Tree@23@PEIAVSweepHit@23@I@Z 00000001800f7010 f   GuBV4_CapsuleSweepAA.obj
 0001:00107050       ?BV4_OverlapMeshVsMesh@@YA_NAEAV?$PxReportCallback@UPxGeomIndexPair@physx@@@physx@@AEBVBV4Tree@Gu@2@1PEBV?$PxMat44T@M@2@2AEBV?$PxTransformT@M@2@3AEBVPxMeshScale@2@4V?$PxFlags@W4Enum@PxMeshMeshQueryFlag@physx@@I@2@M@Z 0000000180108050 f   GuBV4_MeshMeshOverlap.obj
 0001:001070d0       ?BV4_OverlapMeshVsMeshDistance@@YA_NAEAV?$PxReportCallback@UPxGeomIndexClosePair@physx@@@physx@@AEBVBV4Tree@Gu@2@1PEBV?$PxMat44T@M@2@2AEBV?$PxTransformT@M@2@3AEBVPxMeshScale@2@4V?$PxFlags@W4Enum@PxMeshMeshQueryFlag@physx@@I@2@M@Z 00000001801080d0 f   GuBV4_MeshMeshOverlap.obj
 0001:00110160       ??D?$PxMat33T@M@physx@@QEBA?BV?$PxVec3T@M@1@AEBV21@@Z 0000000180111160 f i GuBV4_OBBSweep.obj
 0001:001101f0       ?BV4_BoxSweepSingle@@YAHAEBVBox@Gu@physx@@AEBV?$PxVec3T@M@3@MAEBVBV4Tree@23@PEIBV?$PxMat44T@M@3@PEIAVSweepHit@23@I@Z 00000001801111f0 f   GuBV4_OBBSweep.obj
 0001:00110920       ?BV4_GenericSweepCB@@YAXAEBVBox@Gu@physx@@AEBV?$PxVec3T@M@3@MAEBVBV4Tree@23@P6A_NPEAX111IAEAM@Z3_N@Z 0000000180111920 f   GuBV4_OBBSweep.obj
 0001:00110b40       ?Sweep_OBB_BV4@@YAHAEBVBox@Gu@physx@@AEBV?$PxVec3T@M@3@MAEBVBV4Tree@23@PEIAVSweepHit@23@I@Z 0000000180111b40 f   GuBV4_OBBSweep.obj
 0001:00113700       ?BV4_RaycastCB@@YAXAEBV?$PxVec3T@M@physx@@0AEBVBV4Tree@Gu@2@PEIBV?$PxMat44T@M@2@MMIP6A?AW4HitCode@42@PEAX000IMMM@Z3@Z 0000000180114700 f   GuBV4_Raycast.obj
 0001:00113b20       ?BV4_RaycastSingle@@YAHAEBV?$PxVec3T@M@physx@@0AEBVBV4Tree@Gu@2@PEIBV?$PxMat44T@M@2@PEIAUPxGeomRaycastHit@2@MMIV?$PxFlags@W4Enum@PxHitFlag@physx@@G@2@@Z 0000000180114b20 f   GuBV4_Raycast.obj
 0001:001160a0       ?BV4_OverlapSphereAll@@YAIAEBVSphere@Gu@physx@@AEBVBV4Tree@23@PEIBV?$PxMat44T@M@3@PEAIIAEA_N@Z 00000001801170a0 f   GuBV4_SphereOverlap.obj
 0001:001163c0       ?BV4_OverlapSphereAny@@YAHAEBVSphere@Gu@physx@@AEBVBV4Tree@23@PEIBV?$PxMat44T@M@3@@Z 00000001801173c0 f   GuBV4_SphereOverlap.obj
 0001:001166a0       ?BV4_PointDistance@@YAXAEBV?$PxVec3T@M@physx@@AEBVBV4Tree@Gu@2@MAEAIAEAMAEAV12@@Z 00000001801176a0 f   GuBV4_SphereOverlap.obj
 0001:0011cf80       ?BV4_GenericSweepCB_Old@@YAXAEBV?$PxVec3T@M@physx@@00MAEBVBV4Tree@Gu@2@PEIBV?$PxMat44T@M@2@P6A_NPEAX000IAEAM@Z3@Z 000000018011df80 f   GuBV4_SphereSweep.obj
 0001:0011d380       ?BV4_SphereSweepSingle@@YAHAEBVSphere@Gu@physx@@AEBV?$PxVec3T@M@3@MAEBVBV4Tree@23@PEIBV?$PxMat44T@M@3@PEIAVSweepHit@23@I@Z 000000018011e380 f   GuBV4_SphereSweep.obj
 0001:0011e6a0       ?computeSweepData@physx@@YAMAEBVPxTriangleMeshGeometry@1@AEAV?$PxVec3T@M@1@11M@Z 000000018011f6a0 f i GuMidphaseBV4.obj
 0001:0011ea30       ?distanceMeshVsMesh_BV4@Gu@physx@@YA_NAEAV?$PxReportCallback@UPxGeomIndexClosePair@physx@@@2@AEBVTriangleMesh@12@AEBV?$PxTransformT@M@2@AEBVPxMeshScale@2@123V?$PxFlags@W4Enum@PxMeshMeshQueryFlag@physx@@I@2@M@Z 000000018011fa30 f   GuMidphaseBV4.obj
 0001:00120370       ?intersectBoxVsMesh_BV4@Gu@physx@@YA_NAEBVBox@12@AEBVTriangleMesh@12@AEBV?$PxTransformT@M@2@AEBVPxMeshScale@2@PEAULimitedResults@12@@Z 0000000180121370 f   GuMidphaseBV4.obj
 0001:00120e70       ?intersectCapsuleVsMesh_BV4@Gu@physx@@YA_NAEBVCapsule@12@AEBVTriangleMesh@12@AEBV?$PxTransformT@M@2@AEBVPxMeshScale@2@PEAULimitedResults@12@@Z 0000000180121e70 f   GuMidphaseBV4.obj
 0001:001216b0       ?intersectMeshVsMesh_BV4@Gu@physx@@YA_NAEAV?$PxReportCallback@UPxGeomIndexPair@physx@@@2@AEBVTriangleMesh@12@AEBV?$PxTransformT@M@2@AEBVPxMeshScale@2@123V?$PxFlags@W4Enum@PxMeshMeshQueryFlag@physx@@I@2@M@Z 00000001801226b0 f   GuMidphaseBV4.obj
 0001:00121f60       ?intersectOBB_BV4@Gu@physx@@YAXPEBVTetrahedronMesh@12@AEBVBox@12@AEAU?$TetMeshHitCallback@UPxGeomRaycastHit@physx@@@12@@Z 0000000180122f60 f   GuMidphaseBV4.obj
 0001:00121f80       ?intersectOBB_BV4@Gu@physx@@YAXPEBVTriangleMesh@12@AEBVBox@12@AEAU?$MeshHitCallback@UPxGeomRaycastHit@physx@@@12@_N3@Z 0000000180122f80 f   GuMidphaseBV4.obj
 0001:00121fa0       ?intersectSphereVsMesh_BV4@Gu@physx@@YA_NAEBVSphere@12@AEBVTriangleMesh@12@AEBV?$PxTransformT@M@2@AEBVPxMeshScale@2@PEAULimitedResults@12@@Z 0000000180122fa0 f   GuMidphaseBV4.obj
 0001:001226d0       ?pointMeshDistance_BV4@Gu@physx@@YAXPEBVTriangleMesh@12@AEBVPxTriangleMeshGeometry@2@AEBV?$PxTransformT@M@2@AEBV?$PxVec3T@M@2@MAEAIAEAMAEAV62@@Z 00000001801236d0 f   GuMidphaseBV4.obj
 0001:00122d80       ?raycast_triangleMesh_BV4@Gu@physx@@YAIPEBVTriangleMesh@12@AEBVPxTriangleMeshGeometry@2@AEBV?$PxTransformT@M@2@AEBV?$PxVec3T@M@2@3MV?$PxFlags@W4Enum@PxHitFlag@physx@@G@2@IPEIAUPxGeomRaycastHit@2@I@Z 0000000180123d80 f   GuMidphaseBV4.obj
 0001:00123bb0       ?sweepBox_MeshGeom_BV4@Gu@physx@@YA_NPEBVTriangleMesh@12@AEBVPxTriangleMeshGeometry@2@AEBV?$PxTransformT@M@2@AEBVBox@12@AEBV?$PxVec3T@M@2@MAEAUPxGeomSweepHit@2@V?$PxFlags@W4Enum@PxHitFlag@physx@@G@2@M@Z 0000000180124bb0 f   GuMidphaseBV4.obj
 0001:00125210       ?sweepCapsule_MeshGeom_BV4@Gu@physx@@YA_NPEBVTriangleMesh@12@AEBVPxTriangleMeshGeometry@2@AEBV?$PxTransformT@M@2@AEBVCapsule@12@AEBV?$PxVec3T@M@2@MAEAUPxGeomSweepHit@2@V?$PxFlags@W4Enum@PxHitFlag@physx@@G@2@M@Z 0000000180126210 f   GuMidphaseBV4.obj
 0001:00125d20       ?sweepConvex_MeshGeom_BV4@Gu@physx@@YAXPEBVTriangleMesh@12@AEBVBox@12@AEBV?$PxVec3T@M@2@MAEAUSweepConvexMeshHitCallback@12@_N@Z 0000000180126d20 f   GuMidphaseBV4.obj
 0001:00125d60       ?transform@PxMeshScale@physx@@QEBA?AV?$PxVec3T@M@2@AEBV32@@Z 0000000180126d60 f i GuMidphaseBV4.obj
 0001:00125fa0       ?findOverlapHeightField@PxMeshQuery@physx@@SAIAEBVPxGeometry@2@AEBV?$PxTransformT@M@2@AEBVPxHeightFieldGeometry@2@1PEAIIIAEA_NV?$PxFlags@W4Enum@PxGeometryQueryFlag@physx@@I@2@@Z 0000000180126fa0 f   GuMeshQuery.obj
 0001:00126710       ?findOverlapTriangleMesh@PxMeshQuery@physx@@SAIAEBVPxGeometry@2@AEBV?$PxTransformT@M@2@AEBVPxTriangleMeshGeometry@2@1PEAIIIAEA_NV?$PxFlags@W4Enum@PxGeometryQueryFlag@physx@@I@2@@Z 0000000180127710 f   GuMeshQuery.obj
 0001:00126a30       ?findOverlapTriangleMesh@PxMeshQuery@physx@@SA_NAEAV?$PxReportCallback@UPxGeomIndexClosePair@physx@@@2@AEBVPxTriangleMeshGeometry@2@AEBV?$PxTransformT@M@2@12V?$PxFlags@W4Enum@PxGeometryQueryFlag@physx@@I@2@V?$PxFlags@W4Enum@PxMeshMeshQueryFlag@physx@@I@2@M@Z 0000000180127a30 f   GuMeshQuery.obj
 0001:00126b60       ?findOverlapTriangleMesh@PxMeshQuery@physx@@SA_NAEAV?$PxReportCallback@UPxGeomIndexPair@physx@@@2@AEBVPxTriangleMeshGeometry@2@AEBV?$PxTransformT@M@2@12V?$PxFlags@W4Enum@PxGeometryQueryFlag@physx@@I@2@V?$PxFlags@W4Enum@PxMeshMeshQueryFlag@physx@@I@2@M@Z 0000000180127b60 f   GuMeshQuery.obj
 0001:00126c90       ?getTriangle@PxMeshQuery@physx@@SAXAEBVPxHeightFieldGeometry@2@AEBV?$PxTransformT@M@2@IAEAVPxTriangle@2@PEAI3@Z 0000000180127c90 f   GuMeshQuery.obj
 0001:00126d10       ?getTriangle@PxMeshQuery@physx@@SAXAEBVPxTriangleMeshGeometry@2@AEBV?$PxTransformT@M@2@IAEAVPxTriangle@2@PEAI3@Z 0000000180127d10 f   GuMeshQuery.obj
 0001:00127210       ?sweep@PxMeshQuery@physx@@SA_NAEBV?$PxVec3T@M@2@MAEBVPxGeometry@2@AEBV?$PxTransformT@M@2@IPEBVPxTriangle@2@AEAUPxGeomSweepHit@2@V?$PxFlags@W4Enum@PxHitFlag@physx@@G@2@PEBIM_NV?$PxFlags@W4Enum@PxGeometryQueryFlag@physx@@I@2@@Z 0000000180128210 f   GuMeshQuery.obj
 0001:00127490       ??$collide@$00$00@MeshRayCollider@@SAXAEBV?$PxVec3T@M@physx@@0M_NPEBVRTreeTriangleMesh@Gu@2@AEAU?$MeshHitCallback@UPxGeomRaycastHit@physx@@@42@PEBV12@@Z 0000000180128490 f i GuMidphaseRTree.obj
 0001:00127800       ??$collide@$00$0A@@MeshRayCollider@@SAXAEBV?$PxVec3T@M@physx@@0M_NPEBVRTreeTriangleMesh@Gu@2@AEAU?$MeshHitCallback@UPxGeomRaycastHit@physx@@@42@PEBV12@@Z 0000000180128800 f i GuMidphaseRTree.obj
 0001:00127a40       ??$collide@$0A@$00@MeshRayCollider@@SAXAEBV?$PxVec3T@M@physx@@0M_NPEBVRTreeTriangleMesh@Gu@2@AEAU?$MeshHitCallback@UPxGeomRaycastHit@physx@@@42@PEBV12@@Z 0000000180128a40 f i GuMidphaseRTree.obj
 0001:00129da0       ??0?$RayRTreeCallback@$00$0A@@@QEAA@MAEAU?$MeshHitCallback@UPxGeomRaycastHit@physx@@@Gu@physx@@HPEBXPEBV?$PxVec3T@M@3@AEBV43@3M_N2@Z 000000018012ada0 f i GuMidphaseRTree.obj
 0001:00129ec0       ??1?$RayRTreeCallback@$00$00@@UEAA@XZ 000000018012aec0 f i GuMidphaseRTree.obj
 0001:00129f50       ??1?$RayRTreeCallback@$00$0A@@@UEAA@XZ 000000018012af50 f i GuMidphaseRTree.obj
 0001:00129f50       ??1?$RayRTreeCallback@$0A@$0A@@@UEAA@XZ 000000018012af50 f i GuMidphaseRTree.obj
 0001:00129fe0       ??1?$RayRTreeCallback@$0A@$00@@UEAA@XZ 000000018012afe0 f i GuMidphaseRTree.obj
 0001:0012a068       ??_E?$RayRTreeCallback@$00$00@@W7EAAPEAXI@Z 000000018012b068 f i GuMidphaseRTree.obj
 0001:0012a074       ??_E?$RayRTreeCallback@$00$0A@@@W7EAAPEAXI@Z 000000018012b074 f i GuMidphaseRTree.obj
 0001:0012a074       ??_E?$RayRTreeCallback@$0A@$0A@@@W7EAAPEAXI@Z 000000018012b074 f i GuMidphaseRTree.obj
 0001:0012a080       ??_E?$RayRTreeCallback@$0A@$00@@W7EAAPEAXI@Z 000000018012b080 f i GuMidphaseRTree.obj
 0001:0012a0f0       ??_E?$RayRTreeCallback@$00$00@@UEAAPEAXI@Z 000000018012b0f0 f i GuMidphaseRTree.obj
 0001:0012a0f0       ??_G?$RayRTreeCallback@$00$00@@UEAAPEAXI@Z 000000018012b0f0 f i GuMidphaseRTree.obj
 0001:0012a130       ??_E?$RayRTreeCallback@$00$0A@@@UEAAPEAXI@Z 000000018012b130 f i GuMidphaseRTree.obj
 0001:0012a130       ??_E?$RayRTreeCallback@$0A@$0A@@@UEAAPEAXI@Z 000000018012b130 f i GuMidphaseRTree.obj
 0001:0012a130       ??_G?$RayRTreeCallback@$00$0A@@@UEAAPEAXI@Z 000000018012b130 f i GuMidphaseRTree.obj
 0001:0012a130       ??_G?$RayRTreeCallback@$0A@$0A@@@UEAAPEAXI@Z 000000018012b130 f i GuMidphaseRTree.obj
 0001:0012a170       ??_E?$RayRTreeCallback@$0A@$00@@UEAAPEAXI@Z 000000018012b170 f i GuMidphaseRTree.obj
 0001:0012a170       ??_G?$RayRTreeCallback@$0A@$00@@UEAAPEAXI@Z 000000018012b170 f i GuMidphaseRTree.obj
 0001:0012a1b0       ??_ECallback@RTree@Gu@physx@@UEAAPEAXI@Z 000000018012b1b0 f i GuMidphaseRTree.obj
 0001:0012a1b0       ??_GCallback@RTree@Gu@physx@@UEAAPEAXI@Z 000000018012b1b0 f i GuMidphaseRTree.obj
 0001:0012a1e0       ??_ERayMeshColliderCallback@@UEAAPEAXI@Z 000000018012b1e0 f i GuMidphaseRTree.obj
 0001:0012a1e0       ??_ESweepCapsuleMeshHitCallback@Gu@physx@@UEAAPEAXI@Z 000000018012b1e0 f i GuSweepsMesh.obj
 0001:0012a1e0       ??_GRayMeshColliderCallback@@UEAAPEAXI@Z 000000018012b1e0 f i GuMidphaseRTree.obj
 0001:0012a1e0       ??_GSweepCapsuleMeshHitCallback@Gu@physx@@UEAAPEAXI@Z 000000018012b1e0 f i GuSweepsMesh.obj
 0001:0012a210       ?collideOBB@MeshRayCollider@@SAXAEBVBox@Gu@physx@@_NPEBVRTreeTriangleMesh@34@AEAU?$MeshHitCallback@UPxGeomRaycastHit@physx@@@34@1@Z 000000018012b210 f   GuMidphaseRTree.obj
 0001:0012a6e0       ?intersectBoxVsMesh_RTREE@Gu@physx@@YA_NAEBVBox@12@AEBVTriangleMesh@12@AEBV?$PxTransformT@M@2@AEBVPxMeshScale@2@PEAULimitedResults@12@@Z 000000018012b6e0 f   GuMidphaseRTree.obj
 0001:0012a750       ?intersectCapsuleVsMesh_RTREE@Gu@physx@@YA_NAEBVCapsule@12@AEBVTriangleMesh@12@AEBV?$PxTransformT@M@2@AEBVPxMeshScale@2@PEAULimitedResults@12@@Z 000000018012b750 f   GuMidphaseRTree.obj
 0001:0012a7d0       ?intersectOBB_RTREE@Gu@physx@@YAXPEBVTriangleMesh@12@AEBVBox@12@AEAU?$MeshHitCallback@UPxGeomRaycastHit@physx@@@12@_N3@Z 000000018012b7d0 f   GuMidphaseRTree.obj
 0001:0012a800       ?intersectSphereVsMesh_RTREE@Gu@physx@@YA_NAEBVSphere@12@AEBVTriangleMesh@12@AEBV?$PxTransformT@M@2@AEBVPxMeshScale@2@PEAULimitedResults@12@@Z 000000018012b800 f   GuMidphaseRTree.obj
 0001:0012a830       ?pointMeshDistance_RTREE@Gu@physx@@YAXPEBVTriangleMesh@12@AEBVPxTriangleMeshGeometry@2@AEBV?$PxTransformT@M@2@AEBV?$PxVec3T@M@2@MAEAIAEAMAEAV62@@Z 000000018012b830 f   GuMidphaseRTree.obj
 0001:0012b620       ?processHit@RayMeshColliderCallback@@UEAA_NAEBUPxGeomRaycastHit@physx@@AEBV?$PxVec3T@M@3@11AEAMPEBI@Z 000000018012c620 f i GuMidphaseRTree.obj
 0001:0012bdc0       ?processResults@?$RayRTreeCallback@$00$00@@UEAA_NIPEAI@Z 000000018012cdc0 f i GuMidphaseRTree.obj
 0001:0012c160       ?processResults@?$RayRTreeCallback@$00$00@@UEAA_NIPEAIAEAM@Z 000000018012d160 f i GuMidphaseRTree.obj
 0001:0012c500       ?processResults@?$RayRTreeCallback@$00$0A@@@UEAA_NIPEAI@Z 000000018012d500 f i GuMidphaseRTree.obj
 0001:0012c500       ?processResults@?$RayRTreeCallback@$0A@$0A@@@UEAA_NIPEAI@Z 000000018012d500 f i GuMidphaseRTree.obj
 0001:0012c770       ?processResults@?$RayRTreeCallback@$00$0A@@@UEAA_NIPEAIAEAM@Z 000000018012d770 f i GuMidphaseRTree.obj
 0001:0012c770       ?processResults@?$RayRTreeCallback@$0A@$0A@@@UEAA_NIPEAIAEAM@Z 000000018012d770 f i GuMidphaseRTree.obj
 0001:0012c9f0       ?processResults@?$RayRTreeCallback@$0A@$00@@UEAA_NIPEAI@Z 000000018012d9f0 f i GuMidphaseRTree.obj
 0001:0012d050       ?processResults@?$RayRTreeCallback@$0A@$00@@UEAA_NIPEAIAEAM@Z 000000018012e050 f i GuMidphaseRTree.obj
 0001:0012d6b0       ?raycast_triangleMesh_RTREE@Gu@physx@@YAIPEBVTriangleMesh@12@AEBVPxTriangleMeshGeometry@2@AEBV?$PxTransformT@M@2@AEBV?$PxVec3T@M@2@3MV?$PxFlags@W4Enum@PxHitFlag@physx@@G@2@IPEIAUPxGeomRaycastHit@2@I@Z 000000018012e6b0 f   GuMidphaseRTree.obj
 0001:0012de30       ?sweepBox_MeshGeom_RTREE@Gu@physx@@YA_NPEBVTriangleMesh@12@AEBVPxTriangleMeshGeometry@2@AEBV?$PxTransformT@M@2@AEBVBox@12@AEBV?$PxVec3T@M@2@MAEAUPxGeomSweepHit@2@V?$PxFlags@W4Enum@PxHitFlag@physx@@G@2@M@Z 000000018012ee30 f   GuMidphaseRTree.obj
 0001:0012f2c0       ?sweepCapsule_MeshGeom_RTREE@Gu@physx@@YA_NPEBVTriangleMesh@12@AEBVPxTriangleMeshGeometry@2@AEBV?$PxTransformT@M@2@AEBVCapsule@12@AEBV?$PxVec3T@M@2@MAEAUPxGeomSweepHit@2@V?$PxFlags@W4Enum@PxHitFlag@physx@@G@2@M@Z 00000001801302c0 f   GuMidphaseRTree.obj
 0001:0012fa70       ?sweepConvex_MeshGeom_RTREE@Gu@physx@@YAXPEBVTriangleMesh@12@AEBVBox@12@AEBV?$PxVec3T@M@2@MAEAUSweepConvexMeshHitCallback@12@_N@Z 0000000180130a70 f   GuMidphaseRTree.obj
 0001:001304e0       ??_EPxReportCallbackBase@physx@@UEAAPEAXI@Z 00000001801314e0 f i GuOverlapTestsMesh.obj
 0001:001304e0       ??_GPxReportCallbackBase@physx@@UEAAPEAXI@Z 00000001801314e0 f i GuOverlapTestsMesh.obj
 0001:00130510       ?GeomOverlapCallback_BoxMesh@@YA_NAEBVPxGeometry@physx@@AEBV?$PxTransformT@M@2@01PEAUTriggerCache@Gu@2@PEAUPxQueryThreadContext@2@@Z 0000000180131510 f   GuOverlapTestsMesh.obj
 0001:00130620       ?GeomOverlapCallback_CapsuleMesh@@YA_NAEBVPxGeometry@physx@@AEBV?$PxTransformT@M@2@01PEAUTriggerCache@Gu@2@PEAUPxQueryThreadContext@2@@Z 0000000180131620 f   GuOverlapTestsMesh.obj
 0001:00130730       ?GeomOverlapCallback_ConvexCoreMesh@@YA_NAEBVPxGeometry@physx@@AEBV?$PxTransformT@M@2@01PEAUTriggerCache@Gu@2@PEAUPxQueryThreadContext@2@@Z 0000000180131730 f   GuOverlapTestsMesh.obj
 0001:00130d40       ?GeomOverlapCallback_ConvexMesh@@YA_NAEBVPxGeometry@physx@@AEBV?$PxTransformT@M@2@01PEAUTriggerCache@Gu@2@PEAUPxQueryThreadContext@2@@Z 0000000180131d40 f   GuOverlapTestsMesh.obj
 0001:00131240       ?GeomOverlapCallback_MeshMesh@@YA_NAEBVPxGeometry@physx@@AEBV?$PxTransformT@M@2@01PEAUTriggerCache@Gu@2@PEAUPxQueryThreadContext@2@@Z 0000000180132240 f   GuOverlapTestsMesh.obj
 0001:00131310       ?GeomOverlapCallback_SphereMesh@@YA_NAEBVPxGeometry@physx@@AEBV?$PxTransformT@M@2@01PEAUTriggerCache@Gu@2@PEAUPxQueryThreadContext@2@@Z 0000000180132310 f   GuOverlapTestsMesh.obj
 0001:00131840       ??0RTree@Gu@physx@@QEAA@W4PxEMPTY@2@@Z 0000000180132840 f   GuRTree.obj
 0001:00131850       ?exportExtraData@RTree@Gu@physx@@QEAAXAEAVPxSerializationContext@3@@Z 0000000180132850 f   GuRTree.obj
 0001:00131890       ?importExtraData@RTree@Gu@physx@@QEAAXAEAVPxDeserializationContext@3@@Z 0000000180132890 f   GuRTree.obj
 0001:001318c0       ?load@RTree@Gu@physx@@QEAA_NAEAVPxInputStream@3@I_N@Z 00000001801328c0 f   GuRTree.obj
 0001:00131bc0       ?refitAllStaticTree@RTree@Gu@physx@@QEAAXAEAUCallbackRefit@123@PEAVPxBounds3@3@@Z 0000000180132bc0 f   GuRTree.obj
 0001:00132120       ?validate@RTree@Gu@physx@@QEAAXPEAUCallbackRefit@123@@Z 0000000180133120 f   GuRTree.obj
 0001:00132350       ?validateRecursive@RTree@Gu@physx@@IEAAXIURTreeNodeQ@23@PEAURTreePage@23@PEAUCallbackRefit@123@@Z 0000000180133350 f   GuRTree.obj
 0001:00132510       ??$traverseRay@$00@RTree@Gu@physx@@QEBAXAEBV?$PxVec3T@M@2@0IPEAIPEAUCallbackRaycast@012@PEBV32@M@Z 0000000180133510 f i GuRTreeQueries.obj
 0001:001328b0       ??$traverseRay@$0A@@RTree@Gu@physx@@QEBAXAEBV?$PxVec3T@M@2@0IPEAIPEAUCallbackRaycast@012@PEBV32@M@Z 00000001801338b0 f i GuRTreeQueries.obj
 0001:00132bf0       ?traverseAABB@RTree@Gu@physx@@QEBAXAEBV?$PxVec3T@M@3@0IPEAIPEAUCallback@123@@Z 0000000180133bf0 f   GuRTreeQueries.obj
 0001:00132db0       ?traverseOBB@RTree@Gu@physx@@QEBAXAEBVBox@23@IPEAIPEAUCallback@123@@Z 0000000180133db0 f   GuRTreeQueries.obj
 0001:00133680       ??0SweepBoxMeshHitCallback@Gu@physx@@QEAA@W4Enum@CallbackMode@12@AEBVPxMat34Padded@2@M_NAEBVBox@12@AEBV?$PxVec3T@M@2@44AEBV?$PxFlags@W4Enum@PxHitFlag@physx@@G@2@M2M@Z 0000000180134680 f   GuSweepsMesh.obj
 0001:00133790       ??0SweepCapsuleMeshHitCallback@Gu@physx@@QEAA@AEAUPxGeomSweepHit@2@AEBV?$PxMat34T@M@2@M_NAEBVCapsule@12@AEBV?$PxVec3T@M@2@AEBV?$PxFlags@W4Enum@PxHitFlag@physx@@G@2@2M@Z 0000000180134790 f   GuSweepsMesh.obj
 0001:00133860       ??0SweepConvexMeshHitCallback@Gu@physx@@QEAA@AEBUConvexHullData@12@AEBVPxMeshScale@2@AEBVFastVertex2ShapeScaling@Cm@2@AEBV?$PxTransformT@M@2@3AEBV?$PxVec3T@M@2@MV?$PxFlags@W4Enum@PxHitFlag@physx@@G@2@_NM6M@Z 0000000180134860 f   GuSweepsMesh.obj
 0001:001341d0       ??_ESweepBoxMeshHitCallback@Gu@physx@@UEAAPEAXI@Z 00000001801351d0 f i GuSweepsMesh.obj
 0001:001341d0       ??_GSweepBoxMeshHitCallback@Gu@physx@@UEAAPEAXI@Z 00000001801351d0 f i GuSweepsMesh.obj
 0001:00134200       ??_ESweepConvexMeshHitCallback@Gu@physx@@UEAAPEAXI@Z 0000000180135200 f i GuSweepsMesh.obj
 0001:00134200       ??_GSweepConvexMeshHitCallback@Gu@physx@@UEAAPEAXI@Z 0000000180135200 f i GuSweepsMesh.obj
 0001:00134230       ??_ESweepShapeMeshHitCallback@Gu@physx@@UEAAPEAXI@Z 0000000180135230 f i GuSweepsMesh.obj
 0001:00134230       ??_GSweepShapeMeshHitCallback@Gu@physx@@UEAAPEAXI@Z 0000000180135230 f i GuSweepsMesh.obj
 0001:00134260       ?finalizeHit@SweepBoxMeshHitCallback@Gu@physx@@QEBA_NAEAUPxGeomSweepHit@3@AEBVPxTriangleMeshGeometry@3@AEBV?$PxTransformT@M@3@2AEBV?$PxVec3T@M@3@_N4@Z 0000000180135260 f   GuSweepsMesh.obj
 0001:00134920       ?finalizeHit@SweepCapsuleMeshHitCallback@Gu@physx@@QEBA_NAEAUPxGeomSweepHit@3@AEBVCapsule@23@AEBVPxTriangleMeshGeometry@3@AEBV?$PxTransformT@M@3@_N@Z 0000000180135920 f   GuSweepsMesh.obj
 0001:00134ad0       ?finalizeHit@SweepConvexMeshHitCallback@Gu@physx@@QEAA_NAEAUPxGeomSweepHit@3@AEBVPxTriangleMeshGeometry@3@AEBV?$PxTransformT@M@3@AEBVPxConvexMeshGeometry@3@2AEBV?$PxVec3T@M@3@M_N555@Z 0000000180135ad0 f   GuSweepsMesh.obj
 0001:00134fa0       ?processHit@SweepBoxMeshHitCallback@Gu@physx@@UEAA_NAEBUPxGeomRaycastHit@3@AEBV?$PxVec3T@M@3@11AEAMPEBI@Z 0000000180135fa0 f   GuSweepsMesh.obj
 0001:00135780       ?processHit@SweepCapsuleMeshHitCallback@Gu@physx@@UEAA_NAEBUPxGeomRaycastHit@3@AEBV?$PxVec3T@M@3@11AEAMPEBI@Z 0000000180136780 f   GuSweepsMesh.obj
 0001:00135cf0       ?processHit@SweepConvexMeshHitCallback@Gu@physx@@UEAA_NAEBUPxGeomRaycastHit@3@AEBV?$PxVec3T@M@3@11AEAMPEBI@Z 0000000180136cf0 f   GuSweepsMesh.obj
 0001:00136440       ?sweepBox_MeshGeom@@YA_NAEBVPxGeometry@physx@@AEBV?$PxTransformT@M@2@AEBVPxBoxGeometry@2@1AEBVBox@Gu@2@AEBV?$PxVec3T@M@2@MAEAUPxGeomSweepHit@2@V?$PxFlags@W4Enum@PxHitFlag@physx@@G@2@MPEAUPxQueryThreadContext@2@@Z 0000000180137440 f   GuSweepsMesh.obj
 0001:001364d0       ?sweepCapsule_MeshGeom@@YA_NAEBVPxGeometry@physx@@AEBV?$PxTransformT@M@2@AEBVPxCapsuleGeometry@2@1AEBVCapsule@Gu@2@AEBV?$PxVec3T@M@2@MAEAUPxGeomSweepHit@2@V?$PxFlags@W4Enum@PxHitFlag@physx@@G@2@MPEAUPxQueryThreadContext@2@@Z 00000001801374d0 f   GuSweepsMesh.obj
 0001:00136560       ?sweepConvex_MeshGeom@@YA_NAEBVPxGeometry@physx@@AEBV?$PxTransformT@M@2@AEBVPxConvexMeshGeometry@2@1AEBV?$PxVec3T@M@2@MAEAUPxGeomSweepHit@2@V?$PxFlags@W4Enum@PxHitFlag@physx@@G@2@MPEAUPxQueryThreadContext@2@@Z 0000000180137560 f   GuSweepsMesh.obj
 0001:001370a0       ??0TriangleMesh@Gu@physx@@QEAA@AEBUPxTriangleMeshInternalData@2@@Z 00000001801380a0 f   GuTriangleMesh.obj
 0001:00137180       ??0TriangleMesh@Gu@physx@@QEAA@PEAVMeshFactory@12@AEAVTriangleMeshData@12@@Z 0000000180138180 f   GuTriangleMesh.obj
 0001:00137500       ??1TriangleMesh@Gu@physx@@UEAA@XZ 0000000180138500 f   GuTriangleMesh.obj
 0001:00137770       ??_ETriangleMesh@Gu@physx@@UEAAPEAXI@Z 0000000180138770 f i GuTriangleMesh.obj
 0001:00137770       ??_GTriangleMesh@Gu@physx@@UEAAPEAXI@Z 0000000180138770 f i GuTriangleMesh.obj
 0001:001377e0       ?exportExtraData@TriangleMesh@Gu@physx@@UEAAXAEAVPxSerializationContext@3@@Z 00000001801387e0 f   GuTriangleMesh.obj
 0001:00137a60       ?getLocalBounds@TriangleMesh@Gu@physx@@UEBA?AVPxBounds3@3@XZ 0000000180138a60 f i GuTriangleMesh.obj
 0001:00137af0       ?getMassInformation@TriangleMesh@Gu@physx@@UEBAXAEAMAEAV?$PxMat33T@M@3@AEAV?$PxVec3T@M@3@@Z 0000000180138af0 f i GuTriangleMesh.obj
 0001:00137b70       ?getNbTriangles@TriangleMesh@Gu@physx@@UEBAIXZ 0000000180138b70 f i GuTriangleMesh.obj
 0001:00137b80       ?getPreferSDFProjection@TriangleMesh@Gu@physx@@UEBA_NXZ 0000000180138b80 f i GuTriangleMesh.obj
 0001:00137b90       ?getSDF@TriangleMesh@Gu@physx@@UEBAPEBMXZ 0000000180138b90 f i GuTriangleMesh.obj
 0001:00137ba0       ?getSDFDimensions@TriangleMesh@Gu@physx@@UEBAXAEAI00@Z 0000000180138ba0 f i GuTriangleMesh.obj
 0001:00137bd0       ?getTriangleMaterialIndex@TriangleMesh@Gu@physx@@UEBAGI@Z 0000000180138bd0 f i GuTriangleMesh.obj
 0001:00137bf0       ?getTriangleMeshFlags@TriangleMesh@Gu@physx@@UEBA?AV?$PxFlags@W4Enum@PxTriangleMeshFlag@physx@@E@3@XZ 0000000180138bf0 f i GuTriangleMesh.obj
 0001:00137c00       ?getTrianglesRemap@TriangleMesh@Gu@physx@@UEBAPEBIXZ 0000000180138c00 f i GuTriangleMesh.obj
 0001:00137c10       ?getVerticesForModification@TriangleMesh@Gu@physx@@UEAAPEAV?$PxVec3T@M@3@XZ 0000000180138c10 f   GuTriangleMesh.obj
 0001:00137c50       ?importExtraData@TriangleMesh@Gu@physx@@QEAAXAEAVPxDeserializationContext@3@@Z 0000000180138c50 f   GuTriangleMesh.obj
 0001:00137e70       ?isKindOf@PxTriangleMesh@physx@@MEBA_NPEBD@Z 0000000180138e70 f i GuTriangleMesh.obj
 0001:00137f00       ?onRefCountZero@TriangleMesh@Gu@physx@@UEAAXXZ 0000000180138f00 f   GuTriangleMesh.obj
 0001:00137fd0       ?refitBVH@TriangleMesh@Gu@physx@@UEAA?AVPxBounds3@3@XZ 0000000180138fd0 f   GuTriangleMesh.obj
 0001:001380a0       ?requestEdgeList@TriangleMesh@Gu@physx@@QEBAPEBVEdgeList@23@XZ 00000001801390a0 f   GuTriangleMesh.obj
 0001:00138180       ?setAllEdgesActive@TriangleMesh@Gu@physx@@QEAAXXZ 0000000180139180 f   GuTriangleMesh.obj
 0001:00138270       ?setPreferSDFProjection@TriangleMesh@Gu@physx@@UEAAX_N@Z 0000000180139270 f i GuTriangleMesh.obj
 0001:001382a0       ??0BV4TriangleMesh@Gu@physx@@QEAA@AEBUPxTriangleMeshInternalData@2@@Z 00000001801392a0 f   GuTriangleMeshBV4.obj
 0001:00138410       ??0BV4TriangleMesh@Gu@physx@@QEAA@PEAVMeshFactory@12@AEAVTriangleMeshData@12@@Z 0000000180139410 f   GuTriangleMeshBV4.obj
 0001:001384a0       ??_EBV4TriangleMesh@Gu@physx@@UEAAPEAXI@Z 00000001801394a0 f i GuTriangleMeshBV4.obj
 0001:001384a0       ??_GBV4TriangleMesh@Gu@physx@@UEAAPEAXI@Z 00000001801394a0 f i GuTriangleMeshBV4.obj
 0001:00138530       ?createObject@BV4TriangleMesh@Gu@physx@@SAPEAVTriangleMesh@23@AEAPEAEAEAVPxDeserializationContext@3@@Z 0000000180139530 f   GuTriangleMeshBV4.obj
 0001:00138600       ?exportExtraData@BV4TriangleMesh@Gu@physx@@UEAAXAEAVPxSerializationContext@3@@Z 0000000180139600 f   GuTriangleMeshBV4.obj
 0001:00138640       ?getConcreteTypeName@BV4TriangleMesh@Gu@physx@@UEBAPEBDXZ 0000000180139640 f i GuTriangleMeshBV4.obj
 0001:00138650       ?getInternalData@BV4TriangleMesh@Gu@physx@@UEBA_NAEAUPxTriangleMeshInternalData@3@_N@Z 0000000180139650 f   GuTriangleMeshBV4.obj
 0001:00138740       ?getMidphaseID@BV4TriangleMesh@Gu@physx@@UEBA?AW4Enum@PxMeshMidPhase@3@XZ 0000000180139740 f i GuTriangleMeshBV4.obj
 0001:00138740       ?getMidphaseID@BV4TriangleMeshBuilder@physx@@UEBA?AW4Enum@PxMeshMidPhase@2@XZ 0000000180139740 f i GuCookingTriangleMesh.obj
 0001:00138740       _get_startup_argv_mode     0000000180139740 f i MSVCRT:argv_mode.obj
 0001:00138750       ?getVerticesForModification@BV4TriangleMesh@Gu@physx@@UEAAPEAV?$PxVec3T@M@3@XZ 0000000180139750 f   GuTriangleMeshBV4.obj
 0001:00138750       ?getVerticesForModification@RTreeTriangleMesh@Gu@physx@@UEAAPEAV?$PxVec3T@M@3@XZ 0000000180139750 f   GuTriangleMeshRTree.obj
 0001:00138760       ?refitBVH@BV4TriangleMesh@Gu@physx@@UEAA?AVPxBounds3@3@XZ 0000000180139760 f   GuTriangleMeshBV4.obj
 0001:001388d0       PxGetTriangleMeshInternalData 00000001801398d0 f   GuTriangleMeshBV4.obj
 0001:001388f0       ??0RTreeTriangleMesh@Gu@physx@@QEAA@PEAVMeshFactory@12@AEAVTriangleMeshData@12@@Z 00000001801398f0 f   GuTriangleMeshRTree.obj
 0001:00138a60       ??_E?$RefitCallback@G@physx@@UEAAPEAXI@Z 0000000180139a60 f i GuTriangleMeshRTree.obj
 0001:00138a60       ??_E?$RefitCallback@I@physx@@UEAAPEAXI@Z 0000000180139a60 f i GuTriangleMeshRTree.obj
 0001:00138a60       ??_G?$RefitCallback@G@physx@@UEAAPEAXI@Z 0000000180139a60 f i GuTriangleMeshRTree.obj
 0001:00138a60       ??_G?$RefitCallback@I@physx@@UEAAPEAXI@Z 0000000180139a60 f i GuTriangleMeshRTree.obj
 0001:00138a90       ??_ERTreeTriangleMesh@Gu@physx@@UEAAPEAXI@Z 0000000180139a90 f i GuTriangleMeshRTree.obj
 0001:00138a90       ??_GRTreeTriangleMesh@Gu@physx@@UEAAPEAXI@Z 0000000180139a90 f i GuTriangleMeshRTree.obj
 0001:00138b40       ?createObject@RTreeTriangleMesh@Gu@physx@@SAPEAVTriangleMesh@23@AEAPEAEAEAVPxDeserializationContext@3@@Z 0000000180139b40 f   GuTriangleMeshRTree.obj
 0001:00138bc0       ?exportExtraData@RTreeTriangleMesh@Gu@physx@@UEAAXAEAVPxSerializationContext@3@@Z 0000000180139bc0 f   GuTriangleMeshRTree.obj
 0001:00138c00       ?getConcreteTypeName@RTreeTriangleMesh@Gu@physx@@UEBAPEBDXZ 0000000180139c00 f i GuTriangleMeshRTree.obj
 0001:00138c10       ?recomputeBounds@?$RefitCallback@G@physx@@UEAAXIAEAT__m128@@0@Z 0000000180139c10 f i GuTriangleMeshRTree.obj
 0001:00138f40       ?recomputeBounds@?$RefitCallback@I@physx@@UEAAXIAEAT__m128@@0@Z 0000000180139f40 f i GuTriangleMeshRTree.obj
 0001:00139260       ?refitBVH@RTreeTriangleMesh@Gu@physx@@UEAA?AVPxBounds3@3@XZ 000000018013a260 f   GuTriangleMeshRTree.obj
 0001:00139380       ??0BV32Tree@Gu@physx@@QEAA@W4PxEMPTY@2@@Z 000000018013a380 f   GuBV32.obj
 0001:001393a0       ??0BV32Tree@Gu@physx@@QEAA@XZ 000000018013a3a0 f   GuBV32.obj
 0001:001393d0       ??1BV32Tree@Gu@physx@@QEAA@XZ 000000018013a3d0 f   GuBV32.obj
 0001:001393e0       ?createSOAformatNode@BV32Tree@Gu@physx@@QEAAXAEAUBV32DataPacked@23@AEBUBV32Data@23@IAEAI2@Z 000000018013a3e0 f   GuBV32.obj
 0001:00139840       ?exportExtraData@BV32Tree@Gu@physx@@QEAAXAEAVPxSerializationContext@3@@Z 000000018013a840 f   GuBV32.obj
 0001:00139880       ?importExtraData@BV32Tree@Gu@physx@@QEAAXAEAVPxDeserializationContext@3@@Z 000000018013a880 f   GuBV32.obj
 0001:001398b0       ?load@BV32Tree@Gu@physx@@QEAA_NAEAVPxInputStream@3@_N@Z 000000018013a8b0 f   GuBV32.obj
 0001:00139bf0       ?release@BV32Tree@Gu@physx@@QEAAXXZ 000000018013abf0 f   GuBV32.obj
 0001:00139cb0       ??0BV32Node@@QEAA@XZ       000000018013acb0 f i GuBV32Build.obj
 0001:0013a130       ?BuildBV32Ex@Gu@physx@@YA_NAEAVBV32Tree@12@AEAVSourceMeshBase@12@MI@Z 000000018013b130 f   GuBV32Build.obj
 0001:0013b120       ??0BVTetrahedronMesh@Gu@physx@@QEAA@AEAVTetrahedronMeshData@12@AEAVDeformableVolumeCollisionData@12@PEAVMeshFactory@12@@Z 000000018013c120 f   GuTetrahedronMesh.obj
 0001:0013b380       ??0DeformableVolumeMesh@Gu@physx@@QEAA@PEAVMeshFactory@12@AEAVDeformableVolumeMeshData@12@@Z 000000018013c380 f   GuTetrahedronMesh.obj
 0001:0013b720       ??0TetrahedronMesh@Gu@physx@@QEAA@PEAVMeshFactory@12@AEAVTetrahedronMeshData@12@@Z 000000018013c720 f   GuTetrahedronMesh.obj
 0001:0013b810       ??1DeformableVolumeAuxData@Gu@physx@@UEAA@XZ 000000018013c810 f   GuTetrahedronMesh.obj
 0001:0013ba90       ??1TetrahedronMesh@Gu@physx@@UEAA@XZ 000000018013ca90 f   GuTetrahedronMesh.obj
 0001:0013bb30       ??_EBVTetrahedronMesh@Gu@physx@@UEAAPEAXI@Z 000000018013cb30 f i GuTetrahedronMesh.obj
 0001:0013bb30       ??_GBVTetrahedronMesh@Gu@physx@@UEAAPEAXI@Z 000000018013cb30 f i GuTetrahedronMesh.obj
 0001:0013bcb0       ??_EDeformableVolumeAuxData@Gu@physx@@UEAAPEAXI@Z 000000018013ccb0 f i GuTetrahedronMesh.obj
 0001:0013bcb0       ??_GDeformableVolumeAuxData@Gu@physx@@UEAAPEAXI@Z 000000018013ccb0 f i GuTetrahedronMesh.obj
 0001:0013bd20       ??_EDeformableVolumeMesh@Gu@physx@@UEAAPEAXI@Z 000000018013cd20 f i GuTetrahedronMesh.obj
 0001:0013bd20       ??_GDeformableVolumeMesh@Gu@physx@@UEAAPEAXI@Z 000000018013cd20 f i GuTetrahedronMesh.obj
 0001:0013bdf0       ??_ETetrahedronMesh@Gu@physx@@UEAAPEAXI@Z 000000018013cdf0 f i GuTetrahedronMesh.obj
 0001:0013bdf0       ??_GTetrahedronMesh@Gu@physx@@UEAAPEAXI@Z 000000018013cdf0 f i GuTetrahedronMesh.obj
 0001:0013be60       ?exportExtraData@DeformableVolumeMesh@Gu@physx@@UEAAXAEAVPxSerializationContext@3@@Z 000000018013ce60 f   GuTetrahedronMesh.obj
 0001:0013bf50       ?getConcreteTypeName@DeformableVolumeAuxData@Gu@physx@@UEBAPEBDXZ 000000018013cf50 f i GuTetrahedronMesh.obj
 0001:0013bf60       ?getConcreteTypeName@DeformableVolumeMesh@Gu@physx@@UEBAPEBDXZ 000000018013cf60 f i GuTetrahedronMesh.obj
 0001:0013bf70       ?getConcreteTypeName@TetrahedronMesh@Gu@physx@@UEBAPEBDXZ 000000018013cf70 f i GuTetrahedronMesh.obj
 0001:0013bf80       ?getLocalBounds@TetrahedronMesh@Gu@physx@@UEBA?AVPxBounds3@3@XZ 000000018013cf80 f i GuTetrahedronMesh.obj
 0001:0013c010       ?getNbTetrahedrons@TetrahedronMesh@Gu@physx@@UEBAIXZ 000000018013d010 f i GuTetrahedronMesh.obj
 0001:0013c020       ?getBounds@BVH@Gu@physx@@UEBAPEBVPxBounds3@3@XZ 000000018013d020 f i GuBVH.obj
 0001:0013c020       ?getTetrahedraRemap@BVTetrahedronMesh@Gu@physx@@UEBAPEBIXZ 000000018013d020 f i GuTetrahedronMesh.obj
 0001:0013c030       ?getTetrahedronMeshFlags@TetrahedronMesh@Gu@physx@@UEBA?AV?$PxFlags@W4Enum@PxTetrahedronMeshFlag@physx@@E@3@XZ 000000018013d030 f i GuTetrahedronMesh.obj
 0001:0013c040       ?getTetrahedrons@TetrahedronMesh@Gu@physx@@UEBAPEBXXZ 000000018013d040 f i GuTetrahedronMesh.obj
 0001:0013c050       ?isKindOf@PxDeformableVolumeAuxData@physx@@MEBA_NPEBD@Z 000000018013d050 f i GuTetrahedronMesh.obj
 0001:0013c0e0       ?isKindOf@PxDeformableVolumeMesh@physx@@MEBA_NPEBD@Z 000000018013d0e0 f i GuTetrahedronMesh.obj
 0001:0013c170       ?isKindOf@PxTetrahedronMesh@physx@@MEBA_NPEBD@Z 000000018013d170 f i GuTetrahedronMesh.obj
 0001:0013c200       ?onRefCountZero@DeformableVolumeAuxData@Gu@physx@@UEAAXXZ 000000018013d200 f i GuTetrahedronMesh.obj
 0001:0013c200       ?release@SimulationTetrahedronMeshData@Gu@physx@@UEAAXXZ 000000018013d200 f i GuCookingTetrahedronMesh.obj
 0001:0013c220       ?onRefCountZero@DeformableVolumeMesh@Gu@physx@@UEAAXXZ 000000018013d220 f   GuTetrahedronMesh.obj
 0001:0013c2c0       ?onRefCountZero@TetrahedronMesh@Gu@physx@@UEAAXXZ 000000018013d2c0 f   GuTetrahedronMesh.obj
 0001:0013c360       ?PxComputeBarycentric@physx@@YAXAEBV?$PxVec3T@M@1@0000AEAV?$PxVec4T@M@1@@Z 000000018013d360 f i GuTetrahedronMeshUtils.obj
 0001:0013c610       ?addAxisToSimMeshBarycentric@Gu@physx@@YA?AV?$PxVec4T@M@2@AEBVPxTetrahedronMesh@2@IAEBV32@AEBV?$PxVec3T@M@2@@Z 000000018013d610 f   GuTetrahedronMeshUtils.obj
 0001:0013c8d0       ?closestPtPointTetrahedron@Gu@physx@@YA?AV?$PxVec3T@M@2@AEBV32@0000@Z 000000018013d8d0 f i GuTetrahedronMeshUtils.obj
 0001:0013da40       ?convertDeformableVolumeCollisionToSimMeshTets@Gu@physx@@YAXAEBVPxTetrahedronMesh@2@AEBVDeformableVolumeAuxData@12@AEBVBVTetrahedronMesh@12@IAEBV?$PxVec4T@M@2@AEAIAEAV62@_N@Z 000000018013ea40 f   GuTetrahedronMeshUtils.obj
 0001:001403d0       ?pcmContactBoxBox@Gu@physx@@YA_NAEBVPxGeometry@2@0AEBUPxTransformPadded@2@1AEBUNarrowPhaseParams@12@AEAUCache@12@AEAVPxContactBuffer@2@PEAVPxRenderOutput@2@@Z 00000001801413d0 f   GuPCMContactBoxBox.obj
 0001:00141270       ??$gjkPenetration@U?$RelativeConvex@VBoxV@Gu@physx@@@Gu@physx@@U?$LocalConvex@VConvexHullNoScaleV@Gu@physx@@@23@@Gu@physx@@YA?AW4GjkStatus@01@AEBU?$RelativeConvex@VBoxV@Gu@physx@@@01@AEBU?$LocalConvex@VConvexHullNoScaleV@Gu@physx@@@01@AEBT__m128@@2_NPEIAE4AEAEAEAUGjkOutput@01@@Z 0000000180142270 f i GuPCMContactBoxConvex.obj
 0001:001412e0       ??$gjkPenetration@U?$RelativeConvex@VBoxV@Gu@physx@@@Gu@physx@@U?$LocalConvex@VConvexHullNoScaleV@Gu@physx@@@23@@Gu@physx@@YA?AW4GjkStatus@01@AEBU?$RelativeConvex@VBoxV@Gu@physx@@@01@AEBU?$LocalConvex@VConvexHullNoScaleV@Gu@physx@@@01@AEBT__m128@@2_NPEIAE4PEIAT5@5AEAEAEAUGjkOutput@01@@Z 00000001801422e0 f i GuPCMContactBoxConvex.obj
 0001:00142e60       ?pcmContactBoxConvex@Gu@physx@@YA_NAEBVPxGeometry@2@0AEBUPxTransformPadded@2@1AEBUNarrowPhaseParams@12@AEAUCache@12@AEAVPxContactBuffer@2@PEAVPxRenderOutput@2@@Z 0000000180143e60 f   GuPCMContactBoxConvex.obj
 0001:00143c40       ?support@?$LocalConvex@VConvexHullNoScaleV@Gu@physx@@@Gu@physx@@UEBA?AT__m128@@AEBT4@@Z 0000000180144c40 f i GuPCMContactBoxConvex.obj
 0001:00143c90       ?support@?$LocalConvex@VConvexHullNoScaleV@Gu@physx@@@Gu@physx@@UEBA?AT__m128@@AEBT4@AEAH@Z 0000000180144c90 f i GuPCMContactBoxConvex.obj
 0001:00143cf0       ?supportPoint@?$LocalConvex@VConvexHullNoScaleV@Gu@physx@@@Gu@physx@@UEBA?AT__m128@@H@Z 0000000180144cf0 f i GuPCMContactBoxConvex.obj
 0001:00143d20       ?pcmContactCapsuleBox@Gu@physx@@YA_NAEBVPxGeometry@2@0AEBUPxTransformPadded@2@1AEBUNarrowPhaseParams@12@AEAUCache@12@AEAVPxContactBuffer@2@PEAVPxRenderOutput@2@@Z 0000000180144d20 f   GuPCMContactCapsuleBox.obj
 0001:00144c80       ?pcmContactCapsuleCapsule@Gu@physx@@YA_NAEBVPxGeometry@2@0AEBUPxTransformPadded@2@1AEBUNarrowPhaseParams@12@AEAUCache@12@AEAVPxContactBuffer@2@PEAVPxRenderOutput@2@@Z 0000000180145c80 f   GuPCMContactCapsuleCapsule.obj
 0001:00145420       ??$gjkPenetration@U?$LocalConvex@VCapsuleV@Gu@physx@@@Gu@physx@@U?$LocalConvex@VConvexHullNoScaleV@Gu@physx@@@23@@Gu@physx@@YA?AW4GjkStatus@01@AEBU?$LocalConvex@VCapsuleV@Gu@physx@@@01@AEBU?$LocalConvex@VConvexHullNoScaleV@Gu@physx@@@01@AEBT__m128@@2_NPEIAE4AEAEAEAUGjkOutput@01@@Z 0000000180146420 f i GuPCMContactCapsuleConvex.obj
 0001:00145490       ??$gjkPenetration@U?$LocalConvex@VCapsuleV@Gu@physx@@@Gu@physx@@U?$LocalConvex@VConvexHullNoScaleV@Gu@physx@@@23@@Gu@physx@@YA?AW4GjkStatus@01@AEBU?$LocalConvex@VCapsuleV@Gu@physx@@@01@AEBU?$LocalConvex@VConvexHullNoScaleV@Gu@physx@@@01@AEBT__m128@@2_NPEIAE4PEIAT5@5AEAEAEAUGjkOutput@01@@Z 0000000180146490 f i GuPCMContactCapsuleConvex.obj
 0001:00146b50       ?pcmContactCapsuleConvex@Gu@physx@@YA_NAEBVPxGeometry@2@0AEBUPxTransformPadded@2@1AEBUNarrowPhaseParams@12@AEAUCache@12@AEAVPxContactBuffer@2@PEAVPxRenderOutput@2@@Z 0000000180147b50 f   GuPCMContactCapsuleConvex.obj
 0001:00147d70       ??_EPCMCapsuleVsHeightfieldContactGenerationCallback@@UEAAPEAXI@Z 0000000180148d70 f i GuPCMContactCapsuleHeightField.obj
 0001:00147d70       ??_GPCMCapsuleVsHeightfieldContactGenerationCallback@@UEAAPEAXI@Z 0000000180148d70 f i GuPCMContactCapsuleHeightField.obj
 0001:00147da0       ?pcmContactCapsuleHeightField@Gu@physx@@YA_NAEBVPxGeometry@2@0AEBUPxTransformPadded@2@1AEBUNarrowPhaseParams@12@AEAUCache@12@AEAVPxContactBuffer@2@PEAVPxRenderOutput@2@@Z 0000000180148da0 f   GuPCMContactCapsuleHeightField.obj
 0001:00148cb0       ?reportTouchedTris@?$PCMHeightfieldContactGenerationCallback@UPCMCapsuleVsHeightfieldContactGenerationCallback@@@Gu@physx@@UEAA_NIPEBI@Z 0000000180149cb0 f i GuPCMContactCapsuleHeightField.obj
 0001:00149320       ?generateContacts@PCMCapsuleVsMeshContactGeneration@Gu@physx@@SAXAEBT__m128@@0000I000PEAVMeshPersistentContact@23@AEAI@Z 000000018014a320 f   GuPCMContactCapsuleMesh.obj
 0001:00149740       ?generateEE@PCMCapsuleVsMeshContactGeneration@Gu@physx@@QEAAXAEBT__m128@@000I00PEAVMeshPersistentContact@23@AEAI@Z 000000018014a740 f   GuPCMContactCapsuleMesh.obj
 0001:001499b0       ?generateEEMTD@PCMCapsuleVsMeshContactGeneration@Gu@physx@@SAXAEBT__m128@@000I00PEAVMeshPersistentContact@23@AEAI@Z 000000018014a9b0 f   GuPCMContactCapsuleMesh.obj
 0001:00149be0       ?pcmContactCapsuleMesh@Gu@physx@@YA_NAEBVPxGeometry@2@0AEBUPxTransformPadded@2@1AEBUNarrowPhaseParams@12@AEAUCache@12@AEAVPxContactBuffer@2@PEAVPxRenderOutput@2@@Z 000000018014abe0 f   GuPCMContactCapsuleMesh.obj
 0001:0014b450       ?pcmDistanceSegmentTriangleSquaredExported@@YA?AT__m128@@AEBT1@0000AEAT1@11@Z 000000018014c450 f   GuPCMContactCapsuleMesh.obj
 0001:0014b8b0       ?processTriangle@PCMCapsuleVsMeshContactGeneration@Gu@physx@@QEAA_NPEBV?$PxVec3T@M@3@IEPEBI@Z 000000018014c8b0 f   GuPCMContactCapsuleMesh.obj
 0001:0014c4a0       ?processTriangle@PCMCapsuleVsMeshContactGeneration@Gu@physx@@SA_NAEBVTriangleV@23@IAEBVCapsuleV@23@AEBT__m128@@EPEAVMeshPersistentContact@23@AEAI@Z 000000018014d4a0 f   GuPCMContactCapsuleMesh.obj
 0001:0014c7d0       ?addContactsToPatch@PCMConvexVsMeshContactGeneration@Gu@physx@@QEAAXAEBT__m128@@I@Z 000000018014d7d0 f   GuPCMContactConvexCommon.obj
 0001:0014d100       ?doSupport@?$SupportLocalImpl@VTriangleV@Gu@physx@@@Gu@physx@@UEBA?AT__m128@@AEBT4@@Z 000000018014e100 f i GuPCMContactConvexCommon.obj
 0001:0014d190       ?doSupport@?$SupportLocalImpl@VTriangleV@Gu@physx@@@Gu@physx@@UEBAXAEBT__m128@@AEAT4@1@Z 000000018014e190 f i GuPCMContactConvexCommon.obj
 0001:0014d200       ?generateLastContacts@PCMConvexVsMeshContactGeneration@Gu@physx@@QEAAXXZ 000000018014e200 f   GuPCMContactConvexCommon.obj
 0001:0014d760       ?populateVerts@?$SupportLocalImpl@VTriangleV@Gu@physx@@@Gu@physx@@UEBAXPEBEIPEBV?$PxVec3T@M@3@PEAT__m128@@@Z 000000018014e760 f i GuPCMContactConvexCommon.obj
 0001:0014d8a0       ?processTriangle@PCMConvexVsMeshContactGeneration@Gu@physx@@QEAA_NPEBV?$PxVec3T@M@3@IEPEBI@Z 000000018014e8a0 f   GuPCMContactConvexCommon.obj
 0001:0014de60       ?processTriangle@PCMConvexVsMeshContactGeneration@Gu@physx@@SA_NAEBUPolygonalData@23@PEBVSupportLocal@23@PEBV?$PxVec3T@M@3@IEAEBT__m128@@_NAEBVPxTransformV@aos@3@AEBVPxMatTransformV@93@PEAVMeshPersistentContact@23@AEAI@Z 000000018014ee60 f   GuPCMContactConvexCommon.obj
 0001:0014e0e0       ??$gjkPenetration@U?$RelativeConvex@VConvexHullNoScaleV@Gu@physx@@@Gu@physx@@U?$LocalConvex@VConvexHullNoScaleV@Gu@physx@@@23@@Gu@physx@@YA?AW4GjkStatus@01@AEBU?$RelativeConvex@VConvexHullNoScaleV@Gu@physx@@@01@AEBU?$LocalConvex@VConvexHullNoScaleV@Gu@physx@@@01@AEBT__m128@@2_NPEIAE4AEAEAEAUGjkOutput@01@@Z 000000018014f0e0 f i GuPCMContactConvexConvex.obj
 0001:0014e150       ??$gjkPenetration@U?$RelativeConvex@VConvexHullNoScaleV@Gu@physx@@@Gu@physx@@U?$LocalConvex@VConvexHullNoScaleV@Gu@physx@@@23@@Gu@physx@@YA?AW4GjkStatus@01@AEBU?$RelativeConvex@VConvexHullNoScaleV@Gu@physx@@@01@AEBU?$LocalConvex@VConvexHullNoScaleV@Gu@physx@@@01@AEBT__m128@@2_NPEIAE4PEIAT5@5AEAEAEAUGjkOutput@01@@Z 000000018014f150 f i GuPCMContactConvexConvex.obj
 0001:0014f670       ??$gjkPenetration@U?$RelativeConvex@VConvexHullNoScaleV@Gu@physx@@@Gu@physx@@U?$LocalConvex@VConvexHullV@Gu@physx@@@23@@Gu@physx@@YA?AW4GjkStatus@01@AEBU?$RelativeConvex@VConvexHullNoScaleV@Gu@physx@@@01@AEBU?$LocalConvex@VConvexHullV@Gu@physx@@@01@AEBT__m128@@2_NPEIAE4AEAEAEAUGjkOutput@01@@Z 0000000180150670 f i GuPCMContactConvexConvex.obj
 0001:0014f6e0       ??$gjkPenetration@U?$RelativeConvex@VConvexHullNoScaleV@Gu@physx@@@Gu@physx@@U?$LocalConvex@VConvexHullV@Gu@physx@@@23@@Gu@physx@@YA?AW4GjkStatus@01@AEBU?$RelativeConvex@VConvexHullNoScaleV@Gu@physx@@@01@AEBU?$LocalConvex@VConvexHullV@Gu@physx@@@01@AEBT__m128@@2_NPEIAE4PEIAT5@5AEAEAEAUGjkOutput@01@@Z 00000001801506e0 f i GuPCMContactConvexConvex.obj
 0001:00150c90       ??$gjkPenetration@U?$RelativeConvex@VConvexHullV@Gu@physx@@@Gu@physx@@U?$LocalConvex@VConvexHullNoScaleV@Gu@physx@@@23@@Gu@physx@@YA?AW4GjkStatus@01@AEBU?$RelativeConvex@VConvexHullV@Gu@physx@@@01@AEBU?$LocalConvex@VConvexHullNoScaleV@Gu@physx@@@01@AEBT__m128@@2_NPEIAE4AEAEAEAUGjkOutput@01@@Z 0000000180151c90 f i GuPCMContactConvexConvex.obj
 0001:00150d00       ??$gjkPenetration@U?$RelativeConvex@VConvexHullV@Gu@physx@@@Gu@physx@@U?$LocalConvex@VConvexHullNoScaleV@Gu@physx@@@23@@Gu@physx@@YA?AW4GjkStatus@01@AEBU?$RelativeConvex@VConvexHullV@Gu@physx@@@01@AEBU?$LocalConvex@VConvexHullNoScaleV@Gu@physx@@@01@AEBT__m128@@2_NPEIAE4PEIAT5@5AEAEAEAUGjkOutput@01@@Z 0000000180151d00 f i GuPCMContactConvexConvex.obj
 0001:00152ca0       ?pcmContactConvexConvex@Gu@physx@@YA_NAEBVPxGeometry@2@0AEBUPxTransformPadded@2@1AEBUNarrowPhaseParams@12@AEAUCache@12@AEAVPxContactBuffer@2@PEAVPxRenderOutput@2@@Z 0000000180153ca0 f   GuPCMContactConvexConvex.obj
 0001:00153df0       ?support@?$RelativeConvex@VConvexHullNoScaleV@Gu@physx@@@Gu@physx@@UEBA?AT__m128@@AEBT4@@Z 0000000180154df0 f i GuPCMContactConvexConvex.obj
 0001:00153ea0       ?support@?$RelativeConvex@VConvexHullNoScaleV@Gu@physx@@@Gu@physx@@UEBA?AT__m128@@AEBT4@AEAH@Z 0000000180154ea0 f i GuPCMContactConvexConvex.obj
 0001:00153f60       ?supportPoint@?$RelativeConvex@VConvexHullNoScaleV@Gu@physx@@@Gu@physx@@UEBA?AT__m128@@H@Z 0000000180154f60 f i GuPCMContactConvexConvex.obj
 0001:00153ff0       ?PCMContactConvexHeightfield@Gu@physx@@YA_NAEBUPolygonalData@12@PEBVSupportLocal@12@AEBT__m128@@AEBVPxBounds3@2@AEBVPxHeightFieldGeometry@2@AEBV?$PxTransformT@M@2@5MAEAVPxContactBuffer@2@AEBVFastVertex2ShapeScaling@Cm@2@_NAEAVMultiplePersistentContactManifold@12@PEAVPxRenderOutput@2@@Z 0000000180154ff0 f   GuPCMContactConvexHeightField.obj
 0001:00154e70       ?pcmContactBoxHeightField@Gu@physx@@YA_NAEBVPxGeometry@2@0AEBUPxTransformPadded@2@1AEBUNarrowPhaseParams@12@AEAUCache@12@AEAVPxContactBuffer@2@PEAVPxRenderOutput@2@@Z 0000000180155e70 f   GuPCMContactConvexHeightField.obj
 0001:00155110       ?pcmContactConvexHeightField@Gu@physx@@YA_NAEBVPxGeometry@2@0AEBUPxTransformPadded@2@1AEBUNarrowPhaseParams@12@AEAUCache@12@AEAVPxContactBuffer@2@PEAVPxRenderOutput@2@@Z 0000000180156110 f   GuPCMContactConvexHeightField.obj
 0001:00155e50       ?PCMContactConvexMesh@Gu@physx@@YA_NAEBUPolygonalData@12@PEBVSupportLocal@12@AEBT__m128@@AEBVPxBounds3@2@AEBVPxTriangleMeshGeometry@2@AEBV?$PxTransformT@M@2@5MAEAVPxContactBuffer@2@AEBVFastVertex2ShapeScaling@Cm@2@7_N8AEAVMultiplePersistentContactManifold@12@PEAVPxRenderOutput@2@@Z 0000000180156e50 f   GuPCMContactConvexMesh.obj
 0001:00156950       ?pcmContactBoxMesh@Gu@physx@@YA_NAEBVPxGeometry@2@0AEBUPxTransformPadded@2@1AEBUNarrowPhaseParams@12@AEAUCache@12@AEAVPxContactBuffer@2@PEAVPxRenderOutput@2@@Z 0000000180157950 f   GuPCMContactConvexMesh.obj
 0001:00156c90       ?pcmContactConvexMesh@Gu@physx@@YA_NAEBVPxGeometry@2@0AEBUPxTransformPadded@2@1AEBUNarrowPhaseParams@12@AEAUCache@12@AEAVPxContactBuffer@2@PEAVPxRenderOutput@2@@Z 0000000180157c90 f   GuPCMContactConvexMesh.obj
 0001:00157890       ?addGJKEPAContacts@Gu@physx@@YA_NPEBUGjkConvex@12@0AEBVPxMatTransformV@aos@2@W4GjkStatus@12@PEAVPersistentContact@12@T__m128@@4AEAUGjkOutput@12@AEAVPersistentContactManifold@12@@Z 0000000180158890 f   GuPCMContactGenBoxConvex.obj
 0001:00157d40       ?computeMTD@Gu@physx@@YA_NAEBUPolygonalData@12@0PEBVSupportLocal@12@1AEAT__m128@@2@Z 0000000180158d40 f   GuPCMContactGenBoxConvex.obj
 0001:00158370       ?generateFullContactManifold@Gu@physx@@YA_NAEBUPolygonalData@12@0PEBVSupportLocal@12@1PEAVPersistentContact@12@AEAIAEBT__m128@@444MM_NPEAVPxRenderOutput@2@M@Z 0000000180159370 f   GuPCMContactGenBoxConvex.obj
 0001:0015a320       ?computeMTD@Gu@physx@@YA_NAEBVCapsuleV@12@AEBUPolygonalData@12@PEBVSupportLocal@12@AEAT__m128@@3@Z 000000018015b320 f   GuPCMContactGenSphereCapsule.obj
 0001:0015a410       ?generateCapsuleBoxFullContactManifold@Gu@physx@@YA_NAEBVCapsuleV@12@AEBUPolygonalData@12@PEBVSupportLocal@12@AEBVPxMatTransformV@aos@2@PEAVPersistentContact@12@AEAIAEBT__m128@@AEAT9@6M_NMPEAVPxRenderOutput@2@@Z 000000018015b410 f   GuPCMContactGenSphereCapsule.obj
 0001:0015a5b0       ?generateFullContactManifold@Gu@physx@@YA_NAEBVCapsuleV@12@AEBUPolygonalData@12@PEBVSupportLocal@12@AEBVPxMatTransformV@aos@2@PEAVPersistentContact@12@AEAIAEBT__m128@@AEAT9@6M_NM@Z 000000018015b5b0 f   GuPCMContactGenSphereCapsule.obj
 0001:0015a7a0       ?generateSphereFullContactManifold@Gu@physx@@YA_NAEBVCapsuleV@12@AEBUPolygonalData@12@PEBVSupportLocal@12@PEAVPersistentContact@12@AEAIAEBT__m128@@AEAT7@_N@Z 000000018015b7a0 f   GuPCMContactGenSphereCapsule.obj
 0001:0015bc70       ?pcmContactPlaneBox@Gu@physx@@YA_NAEBVPxGeometry@2@0AEBUPxTransformPadded@2@1AEBUNarrowPhaseParams@12@AEAUCache@12@AEAVPxContactBuffer@2@PEAVPxRenderOutput@2@@Z 000000018015cc70 f   GuPCMContactPlaneBox.obj
 0001:0015c830       ?pcmContactPlaneCapsule@Gu@physx@@YA_NAEBVPxGeometry@2@0AEBUPxTransformPadded@2@1AEBUNarrowPhaseParams@12@AEAUCache@12@AEAVPxContactBuffer@2@PEAVPxRenderOutput@2@@Z 000000018015d830 f   GuPCMContactPlaneCapsule.obj
 0001:0015cfb0       ?pcmContactPlaneConvex@Gu@physx@@YA_NAEBVPxGeometry@2@0AEBUPxTransformPadded@2@1AEBUNarrowPhaseParams@12@AEAUCache@12@AEAVPxContactBuffer@2@PEAVPxRenderOutput@2@@Z 000000018015dfb0 f   GuPCMContactPlaneConvex.obj
 0001:0015dc10       ?pcmContactSphereBox@Gu@physx@@YA_NAEBVPxGeometry@2@0AEBUPxTransformPadded@2@1AEBUNarrowPhaseParams@12@AEAUCache@12@AEAVPxContactBuffer@2@PEAVPxRenderOutput@2@@Z 000000018015ec10 f   GuPCMContactSphereBox.obj
 0001:0015e070       ?pcmContactSphereCapsule@Gu@physx@@YA_NAEBVPxGeometry@2@0AEBUPxTransformPadded@2@1AEBUNarrowPhaseParams@12@AEAUCache@12@AEAVPxContactBuffer@2@PEAVPxRenderOutput@2@@Z 000000018015f070 f   GuPCMContactSphereCapsule.obj
 0001:0015e4e0       ?pcmContactSphereConvex@Gu@physx@@YA_NAEBVPxGeometry@2@0AEBUPxTransformPadded@2@1AEBUNarrowPhaseParams@12@AEAUCache@12@AEAVPxContactBuffer@2@PEAVPxRenderOutput@2@@Z 000000018015f4e0 f   GuPCMContactSphereConvex.obj
 0001:0015f190       ??1?$PxArray@USortedTriangle@Gu@physx@@V?$PxInlineAllocator@$0IAA@V?$PxReflectionAllocator@USortedTriangle@Gu@physx@@@physx@@@3@@physx@@QEAA@XZ 0000000180160190 f i GuPCMContactSphereHeightField.obj
 0001:0015f250       ?pcmContactSphereHeightField@Gu@physx@@YA_NAEBVPxGeometry@2@0AEBUPxTransformPadded@2@1AEBUNarrowPhaseParams@12@AEAUCache@12@AEAVPxContactBuffer@2@PEAVPxRenderOutput@2@@Z 0000000180160250 f   GuPCMContactSphereHeightField.obj
 0001:001602d0       ??$PxSort@USortedTriangle@Gu@physx@@U?$PxLess@USortedTriangle@Gu@physx@@@3@V?$PxReflectionAllocator@USortedTriangle@Gu@physx@@@3@@physx@@YAXPEAUSortedTriangle@Gu@0@IAEBU?$PxLess@USortedTriangle@Gu@physx@@@0@AEBV?$PxReflectionAllocator@USortedTriangle@Gu@physx@@@0@I@Z 00000001801612d0 f i GuPCMContactSphereMesh.obj
 0001:001607f0       ??$processTriangleCache@$0BA@VPCMSphereVsMeshContactGeneration@Gu@physx@@@PCMMeshContactGeneration@Gu@physx@@QEAA_NAEAU?$TriangleCache@$0BA@@12@@Z 00000001801617f0 f i GuPCMContactSphereMesh.obj
 0001:00160cc0       ?addToPatch@PCMSphereVsMeshContactGeneration@Gu@physx@@QEAAXAEBT__m128@@0T4@I@Z 0000000180161cc0 f   GuPCMContactSphereMesh.obj
 0001:00161380       ?generateLastContacts@PCMSphereVsMeshContactGeneration@Gu@physx@@QEAAXXZ 0000000180162380 f   GuPCMContactSphereMesh.obj
 0001:001619b0       ?growAndPushBack@?$PxArray@USortedTriangle@Gu@physx@@V?$PxInlineAllocator@$0IAA@V?$PxReflectionAllocator@USortedTriangle@Gu@physx@@@physx@@@3@@physx@@IEAAAEAUSortedTriangle@Gu@2@AEBU342@@Z 00000001801629b0 f i GuPCMContactSphereMesh.obj
 0001:00161b30       ?pcmContactSphereMesh@Gu@physx@@YA_NAEBVPxGeometry@2@0AEBUPxTransformPadded@2@1AEBUNarrowPhaseParams@12@AEAUCache@12@AEAVPxContactBuffer@2@PEAVPxRenderOutput@2@@Z 0000000180162b30 f   GuPCMContactSphereMesh.obj
 0001:001630a0       ?processTriangle@PCMSphereVsMeshContactGeneration@Gu@physx@@QEAA_NPEBV?$PxVec3T@M@3@IEPEBI@Z 00000001801640a0 f   GuPCMContactSphereMesh.obj
 0001:00163490       ?recreate@?$PxArray@IV?$PxInlineAllocator@$0PAA@V?$PxReflectionAllocator@I@physx@@@physx@@@physx@@IEAAXI@Z 0000000180164490 f i GuPCMContactSphereMesh.obj
 0001:001635b0       ?pcmContactSpherePlane@Gu@physx@@YA_NAEBVPxGeometry@2@0AEBUPxTransformPadded@2@1AEBUNarrowPhaseParams@12@AEAUCache@12@AEAVPxContactBuffer@2@PEAVPxRenderOutput@2@@Z 00000001801645b0 f   GuPCMContactSpherePlane.obj
 0001:00163730       ?pcmContactSphereSphere@Gu@physx@@YA_NAEBVPxGeometry@2@0AEBUPxTransformPadded@2@1AEBUNarrowPhaseParams@12@AEAUCache@12@AEAVPxContactBuffer@2@PEAVPxRenderOutput@2@@Z 0000000180164730 f   GuPCMContactSphereSphere.obj
 0001:00163ff0       ?pcmContactGeometryCustomGeometry@Gu@physx@@YA_NAEBVPxGeometry@2@0AEBUPxTransformPadded@2@1AEBUNarrowPhaseParams@12@AEAUCache@12@AEAVPxContactBuffer@2@PEAVPxRenderOutput@2@@Z 0000000180164ff0 f   GuPCMContactCustomGeometry.obj
 0001:001640a0       ?getPCMConvexData@Gu@physx@@YAXAEBVConvexHullV@12@_NAEAUPolygonalData@12@@Z 00000001801650a0 f   GuPCMShapeConvex.obj
 0001:001640e0       ?getPCMConvexData@Gu@physx@@YA_NAEBVPxConvexMeshGeometry@2@AEAVFastVertex2ShapeScaling@Cm@2@AEAVPxBounds3@2@AEAUPolygonalData@12@@Z 00000001801650e0 f   GuPCMShapeConvex.obj
 0001:00164650       ?getPolygonalData@PCMPolygonalBox@Gu@physx@@QEBAXPEIAUPolygonalData@23@@Z 0000000180165650 f   GuPCMShapeConvex.obj
 0001:001646d0       ?generatePolyDataContactManifold@PCMConvexVsMeshContactGeneration@Gu@physx@@QEAA_NAEBVTriangleV@23@IIEPEAVMeshPersistentContact@23@AEAIAEBT__m128@@AEAT6@@Z 00000001801656d0 f   GuPCMTriangleContactGen.obj
 0001:001647f0       ?generateTriangleFullContactManifold@PCMConvexVsMeshContactGeneration@Gu@physx@@QEAA_NAEBVTriangleV@23@IPEBIEAEBUPolygonalData@23@PEBV?$SupportLocalImpl@VTriangleV@Gu@physx@@@23@PEBVSupportLocal@23@PEAVMeshPersistentContact@23@AEAIAEBT__m128@@AEAT9@@Z 00000001801657f0 f   GuPCMTriangleContactGen.obj
 0001:00164d20       ?generateTriangleFullContactManifold@PCMConvexVsMeshContactGeneration@Gu@physx@@SA_NAEBVTriangleV@23@IEAEBUPolygonalData@23@PEBV?$SupportLocalImpl@VTriangleV@Gu@physx@@@23@PEBVSupportLocal@23@PEAVMeshPersistentContact@23@AEAIAEBT__m128@@AEAT9@PEAVPxRenderOutput@3@@Z 0000000180165d20 f   GuPCMTriangleContactGen.obj
 0001:00166da0       ?addBatchManifoldContacts2@PersistentContactManifold@Gu@physx@@QEAAXPEBVPersistentContact@23@I@Z 0000000180167da0 f   GuPersistentContactManifold.obj
 0001:00166e10       ?addBatchManifoldContacts@PersistentContactManifold@Gu@physx@@QEAAXPEBVPersistentContact@23@IM@Z 0000000180167e10 f   GuPersistentContactManifold.obj
 0001:00166e90       ?addBatchManifoldContactsCluster@PersistentContactManifold@Gu@physx@@QEAAXPEBVPersistentContact@23@I@Z 0000000180167e90 f   GuPersistentContactManifold.obj
 0001:00167110       ?addManifoldContactPoints@MultiplePersistentContactManifold@Gu@physx@@QEAAXPEAVMeshPersistentContact@23@IPEAPEAUPCMContactPatch@23@IAEBT__m128@@2E@Z 0000000180168110 f   GuPersistentContactManifold.obj
 0001:00167500       ?addManifoldContactsToContactBuffer@MultiplePersistentContactManifold@Gu@physx@@QEAA_NAEAVPxContactBuffer@3@AEBVPxTransformV@aos@3@1AEBT__m128@@@Z 0000000180168500 f   GuPersistentContactManifold.obj
 0001:001677c0       ?addManifoldContactsToContactBuffer@MultiplePersistentContactManifold@Gu@physx@@QEAA_NAEAVPxContactBuffer@3@AEBVPxTransformV@aos@3@@Z 00000001801687c0 f   GuPersistentContactManifold.obj
 0001:00167a60       ?addManifoldContactsToContactBuffer@PersistentContactManifold@Gu@physx@@QEAAXAEAVPxContactBuffer@3@AEBT__m128@@1AEBVPxTransformV@aos@3@11@Z 0000000180168a60 f   GuPersistentContactManifold.obj
 0001:00167bf0       ?addManifoldContactsToContactBuffer@PersistentContactManifold@Gu@physx@@QEAAXAEAVPxContactBuffer@3@AEBT__m128@@AEBVPxMatTransformV@aos@3@@Z 0000000180168bf0 f   GuPersistentContactManifold.obj
 0001:00167ca0       ?addManifoldContactsToContactBuffer@PersistentContactManifold@Gu@physx@@QEAAXAEAVPxContactBuffer@3@AEBT__m128@@AEBVPxTransformV@aos@3@1@Z 0000000180168ca0 f   GuPersistentContactManifold.obj
 0001:00167e00       ?addManifoldPoint2@PersistentContactManifold@Gu@physx@@QEAAIAEBT__m128@@000@Z 0000000180168e00 f   GuPersistentContactManifold.obj
 0001:00167f30       ?addManifoldPoint@Gu@physx@@YAXPEAVPersistentContact@12@AEAVPersistentContactManifold@12@AEAUGjkOutput@12@AEBVPxMatTransformV@aos@2@T__m128@@@Z 0000000180168f30 f   GuPersistentContactManifold.obj
 0001:00168100       ?addManifoldPoint@PersistentContactManifold@Gu@physx@@QEAAIAEBT__m128@@000@Z 0000000180169100 f   GuPersistentContactManifold.obj
 0001:00168540       ?drawLine@MultiplePersistentContactManifold@Gu@physx@@SAXAEAVPxRenderOutput@3@AEBT__m128@@1I@Z 0000000180169540 f   GuPersistentContactManifold.obj
 0001:001685f0       ?drawLine@MultiplePersistentContactManifold@Gu@physx@@SAXAEAVPxRenderOutput@3@V?$PxVec3T@M@3@1I@Z 00000001801695f0 f   GuPersistentContactManifold.obj
 0001:00168660       ?drawManifold@MultiplePersistentContactManifold@Gu@physx@@QEBAXAEAVPxRenderOutput@3@AEBVPxTransformV@aos@3@1@Z 0000000180169660 f   GuPersistentContactManifold.obj
 0001:00168cf0       ?drawPoint@MultiplePersistentContactManifold@Gu@physx@@SAXAEAVPxRenderOutput@3@AEBT__m128@@MI@Z 0000000180169cf0 f   GuPersistentContactManifold.obj
 0001:00168f00       ?drawPolygon@MultiplePersistentContactManifold@Gu@physx@@SAXAEAVPxRenderOutput@3@AEBVPxTransformV@aos@3@PEAT__m128@@II@Z 0000000180169f00 f   GuPersistentContactManifold.obj
 0001:00169180       ?findRotationMatrixFromZAxis@Gu@physx@@YA?AUMat33V@aos@2@AEBT__m128@@@Z 000000018016a180 f   GuPersistentContactManifold.obj
 0001:00169400       ?fromBuffer@MultiplePersistentContactManifold@Gu@physx@@QEAAXPEIAE@Z 000000018016a400 f   GuPersistentContactManifold.obj
 0001:00169560       ?reduceBatchContacts2@PersistentContactManifold@Gu@physx@@QEAAXPEBVPersistentContact@23@I@Z 000000018016a560 f   GuPersistentContactManifold.obj
 0001:00169770       ?reduceBatchContacts@PersistentContactManifold@Gu@physx@@QEAAXPEBVPersistentContact@23@IM@Z 000000018016a770 f   GuPersistentContactManifold.obj
 0001:00169c40       ?reduceBatchContactsCapsule@SinglePersistentContactManifold@Gu@physx@@QEAA?AT__m128@@PEBVMeshPersistentContact@23@IAEAUPCMContactPatch@23@@Z 000000018016ac40 f   GuPersistentContactManifold.obj
 0001:00169ee0       ?reduceBatchContactsCluster@PersistentContactManifold@Gu@physx@@QEAAXPEBVPersistentContact@23@I@Z 000000018016aee0 f   GuPersistentContactManifold.obj
 0001:0016a370       ?reduceBatchContactsConvex@SinglePersistentContactManifold@Gu@physx@@QEAA?AT__m128@@PEBVMeshPersistentContact@23@IAEAUPCMContactPatch@23@@Z 000000018016b370 f   GuPersistentContactManifold.obj
 0001:0016a960       ?reduceContacts@SinglePersistentContactManifold@Gu@physx@@SAIPEAVMeshPersistentContact@23@I@Z 000000018016b960 f   GuPersistentContactManifold.obj
 0001:0016aee0       ?reduceContactsForPCM@PersistentContactManifold@Gu@physx@@QEAAIAEBT__m128@@00@Z 000000018016bee0 f   GuPersistentContactManifold.obj
 0001:0016b480       ?refreshContactPoints@SinglePersistentContactManifold@Gu@physx@@QEAA?AT__m128@@AEBVPxMatTransformV@aos@3@AEBT4@1@Z 000000018016c480 f   GuPersistentContactManifold.obj
 0001:0016b5d0       ?replaceManifoldPoint@PersistentContactManifold@Gu@physx@@QEAA_NAEBT__m128@@000@Z 000000018016c5d0 f   GuPersistentContactManifold.obj
 0001:0016b690       ?toBuffer@MultiplePersistentContactManifold@Gu@physx@@QEBAXPEIAE@Z 000000018016c690 f   GuPersistentContactManifold.obj
 0001:0016b770       ?contains@Gu@physx@@YA_NPEAT__m128@@IAEBT3@11@Z 000000018016c770 f   GuPCMContactGenUtil.obj
 0001:0016b930       ?getPolygonIndex@Gu@physx@@YAHAEBUPolygonalData@12@PEBVSupportLocal@12@AEBT__m128@@AEAH@Z 000000018016c930 f   GuPCMContactGenUtil.obj
 0001:0016bbd0       ?getWitnessPolygonIndex@Gu@physx@@YAIAEBUPolygonalData@12@PEBVSupportLocal@12@AEBT__m128@@2M@Z 000000018016cbd0 f   GuPCMContactGenUtil.obj
 0001:0016c160       ?sweepBoxBox@Gu@physx@@YA_NAEBVBox@12@0AEBV?$PxVec3T@M@2@MV?$PxFlags@W4Enum@PxHitFlag@physx@@G@2@AEAUPxGeomSweepHit@2@@Z 000000018016d160 f   GuSweepBoxBox.obj
 0001:0016d760       ?sweepBoxSphere@Gu@physx@@YA_NAEBVBox@12@MAEBV?$PxVec3T@M@2@1MAEAMAEAV42@V?$PxFlags@W4Enum@PxHitFlag@physx@@G@2@@Z 000000018016e760 f   GuSweepBoxSphere.obj
 0001:0016e460       ?sweepBoxTriangle@Gu@physx@@YA_NAEBVPxTriangle@2@AEBVPxBounds3@2@AEBV?$PxVec3T@M@2@2AEAV52@3AEAM_N@Z 000000018016f460 f   GuSweepBoxTriangle_FeatureBased.obj
 0001:0016fab0       ?triBoxSweepTestBoxSpace@Gu@physx@@YAHAEBVPxTriangle@2@AEBV?$PxVec3T@M@2@11MAEAM_N@Z 0000000180170ab0 f   GuSweepBoxTriangle_SAT.obj
 0001:001713e0       ?sweepCapsuleBox@Gu@physx@@YA_NAEBVCapsule@12@AEBV?$PxTransformT@M@2@AEBV?$PxVec3T@M@2@2MAEAV52@AEAM3V?$PxFlags@W4Enum@PxHitFlag@physx@@G@2@@Z 00000001801723e0 f   GuSweepCapsuleBox.obj
 0001:00171710       ?distancePointSegmentSquared@Gu@physx@@YAMAEBVSegment@12@AEBV?$PxVec3T@M@2@PEAM@Z 0000000180172710 f i GuSweepCapsuleCapsule.obj
 0001:00171820       ?edgeEdgeDist@@YAXAEAV?$PxVec3T@M@physx@@0AEBV12@111@Z 0000000180172820 f   GuSweepCapsuleCapsule.obj
 0001:00171a90       ?sweepCapsuleCapsule@Gu@physx@@YA_NAEBVCapsule@12@0AEBV?$PxVec3T@M@2@MAEAMAEAV42@3IAEAG@Z 0000000180172a90 f   GuSweepCapsuleCapsule.obj
 0001:001728b0       ?sweepCapsuleTriangles_Precise@Gu@physx@@YA_NIPEIBVPxTriangle@2@AEBVCapsule@12@AEBV?$PxVec3T@M@2@MPEIBIAEAUPxGeomSweepHit@2@AEAV52@V?$PxFlags@W4Enum@PxHitFlag@physx@@G@2@_NPEBVBoxPadded@12@@Z 00000001801738b0 f   GuSweepCapsuleTriangle.obj
 0001:001748f0       ?sweepSphereCapsule@Gu@physx@@YA_NAEBVSphere@12@AEBVCapsule@12@AEBV?$PxVec3T@M@2@MAEAMAEAV52@4V?$PxFlags@W4Enum@PxHitFlag@physx@@G@2@@Z 00000001801758f0 f   GuSweepSphereCapsule.obj
 0001:00174f90       ?sweepSphereSphere@Gu@physx@@YA_NAEBV?$PxVec3T@M@2@M0M0AEAMAEAV32@@Z 0000000180175f90 f   GuSweepSphereSphere.obj
 0001:00175200       ?sweepSphereTriangles@Gu@physx@@YA_NIPEIBVPxTriangle@2@AEBV?$PxVec3T@M@2@M1MPEIBIAEAUPxGeomSweepHit@2@AEAV42@_N555@Z 0000000180176200 f   GuSweepSphereTriangle.obj
 0001:00175ab0       ?sweepSphereVSQuad@Gu@physx@@YA_NPEIBV?$PxVec3T@M@2@AEBV32@1M1AEAM@Z 0000000180176ab0 f   GuSweepSphereTriangle.obj
 0001:00176a90       ?sweepSphereVSTri@Gu@physx@@YA_NPEIBV?$PxVec3T@M@2@AEBV32@1M1AEAMAEA_N_N@Z 0000000180177a90 f   GuSweepSphereTriangle.obj
 0001:00177740       ??$gjk@U?$LocalConvex@VTriangleV@Gu@physx@@@Gu@physx@@U?$LocalConvex@VBoxV@Gu@physx@@@23@@Gu@physx@@YA?AW4GjkStatus@01@AEBU?$LocalConvex@VTriangleV@Gu@physx@@@01@AEBU?$LocalConvex@VBoxV@Gu@physx@@@01@AEBT__m128@@2AEAT5@333@Z 0000000180178740 f i GuSweepTriangleUtils.obj
 0001:00178430       ?computeBoxTriImpactData@Gu@physx@@YAXAEAV?$PxVec3T@M@2@0AEBV32@1AEBVPxTriangle@2@M@Z 0000000180179430 f   GuSweepTriangleUtils.obj
 0001:001786b0       ?computeEdgeEdgeNormal@Gu@physx@@YAXAEAV?$PxVec3T@M@2@AEBV32@1111M@Z 00000001801796b0 f   GuSweepTriangleUtils.obj
 0001:00178960       ?computeSphereTriImpactData@Gu@physx@@YAXAEAV?$PxVec3T@M@2@0AEBV32@1MAEBVPxTriangle@2@@Z 0000000180179960 f   GuSweepTriangleUtils.obj
 0001:00178e40       ??0ShapeData@Gu@physx@@QEAA@AEBVPxGeometry@2@AEBV?$PxTransformT@M@2@M@Z 0000000180179e40 f   GuBounds.obj
 0001:00179430       ?computeBounds@Gu@physx@@YAXAEAVPxBounds3@2@AEBVPxGeometry@2@AEBV?$PxTransformT@M@2@MM@Z 000000018017a430 f   GuBounds.obj
 0001:0017a130       ?computeBoundsAroundVertices@Gu@physx@@YAXAEAVPxBounds3@2@IPEIBV?$PxVec3T@M@2@@Z 000000018017b130 f   GuBounds.obj
 0001:0017a1c0       ?computeGlobalBox@Gu@physx@@YAXAEAVPxBounds3@2@IPEIBV32@PEIBI@Z 000000018017b1c0 f   GuBounds.obj
 0001:0017a230       ?computeLocalBoundsAndGeomEpsilon@Gu@physx@@YAXPEBV?$PxVec3T@M@2@IAEAVPxBounds3@2@AEAM@Z 000000018017b230 f   GuBounds.obj
 0001:0017b360       ?computeTightBounds@Gu@physx@@YAXAEAVPxBounds3@2@IPEIBV?$PxVec3T@M@2@AEBV?$PxTransformT@M@2@AEBVPxMeshScale@2@MM@Z 000000018017c360 f   GuBounds.obj
 0001:0017b720       ??0AABBTree@Gu@physx@@QEAA@XZ 000000018017c720 f   GuAABBTree.obj
 0001:0017b750       ??0BVHPartialRefitData@Gu@physx@@QEAA@XZ 000000018017c750 f   GuAABBTree.obj
 0001:0017b780       ??0NodeAllocator@Gu@physx@@QEAA@XZ 000000018017c780 f   GuAABBTree.obj
 0001:0017b7a0       ??1AABBTree@Gu@physx@@QEAA@XZ 000000018017c7a0 f   GuAABBTree.obj
 0001:0017b7c0       ??1BVHPartialRefitData@Gu@physx@@QEAA@XZ 000000018017c7c0 f   GuAABBTree.obj
 0001:0017b870       ??1NodeAllocator@Gu@physx@@QEAA@XZ 000000018017c870 f   GuAABBTree.obj
 0001:0017b8c0       ?addRuntimeChilds@AABBTree@Gu@physx@@AEAAXAEAIAEBVAABBTreeMergeData@23@@Z 000000018017c8c0 f   GuAABBTree.obj
 0001:0017b9c0       ?build@AABBTree@Gu@physx@@QEAA_NAEBVAABBTreeBuildParams@23@AEAVNodeAllocator@23@@Z 000000018017c9c0 f   GuAABBTree.obj
 0001:0017ba70       ?buildAABBTree@Gu@physx@@YAPEAIAEBVAABBTreeBuildParams@12@AEAVNodeAllocator@12@AEAUBuildStats@12@@Z 000000018017ca70 f   GuAABBTree.obj
 0001:0017bae0       ?buildAABBTree@Gu@physx@@YAXIAEBVAABBTreeBounds@12@AEAV?$PxArray@UBVHNode@Gu@physx@@V?$PxReflectionAllocator@UBVHNode@Gu@physx@@@3@@2@@Z 000000018017cae0 f   GuAABBTree.obj
 0001:0017bc90       ?buildEnd@AABBTree@Gu@physx@@AEAAXAEBVAABBTreeBuildParams@23@AEAVNodeAllocator@23@AEBUBuildStats@23@@Z 000000018017cc90 f   GuAABBTree.obj
 0001:0017c000       ?constructFromTetrahedra@TinyBVH@Gu@physx@@SAXPEBIIPEBV?$PxVec3T@M@3@AEAU123@M@Z 000000018017d000 f   GuAABBTree.obj
 0001:0017c300       ?constructFromTriangles@TinyBVH@Gu@physx@@SAXPEBIIPEBV?$PxVec3T@M@3@AEAU123@M@Z 000000018017d300 f   GuAABBTree.obj
 0001:0017c6b0       ?createUpdateMap@BVHPartialRefitData@Gu@physx@@QEAAXI@Z 000000018017d6b0 f   GuAABBTree.obj
 0001:0017c7d0       ?flattenTree@Gu@physx@@YAXAEBVNodeAllocator@12@PEAUBVHNode@12@PEBI@Z 000000018017d7d0 f   GuAABBTree.obj
 0001:0017c9d0       ?fullRefit@BVHCoreData@Gu@physx@@QEAAXPEBVPxBounds3@3@@Z 000000018017d9d0 f   GuAABBTree.obj
 0001:0017cb90       ?getBiNode@NodeAllocator@Gu@physx@@QEAAPEAVAABBTreeBuildNode@23@XZ 000000018017db90 f   GuAABBTree.obj
 0001:0017ccc0       ?getParentIndices@BVHPartialRefitData@Gu@physx@@IEAAPEAIXZ 000000018017dcc0 f   GuAABBTree.obj
 0001:0017cd50       ?growAndPushBack@?$PxArray@PEAVAABBTreeBuildNode@Gu@physx@@V?$PxReflectionAllocator@PEAVAABBTreeBuildNode@Gu@physx@@@3@@physx@@IEAAAEAPEAVAABBTreeBuildNode@Gu@2@AEBQEAV342@@Z 000000018017dd50 f i GuAABBTree.obj
 0001:0017ce60       ?growAndPushBack@?$PxArray@USlab@NodeAllocator@Gu@physx@@V?$PxReflectionAllocator@USlab@NodeAllocator@Gu@physx@@@4@@physx@@IEAAAEAUSlab@NodeAllocator@Gu@2@AEBU3452@@Z 000000018017de60 f i GuAABBTree.obj
 0001:0017cf70       ?init@AABBTreeBounds@Gu@physx@@QEAAXIPEBVPxBounds3@3@@Z 000000018017df70 f   GuAABBTree.obj
 0001:0017d030       ?init@NodeAllocator@Gu@physx@@QEAAXII@Z 000000018017e030 f   GuAABBTree.obj
 0001:0017d370       ?initTree@AABBTree@Gu@physx@@QEAAXAEBVAABBTreeMergeData@23@@Z 000000018017e370 f   GuAABBTree.obj
 0001:0017d4c0       ?markNodeForRefit@BVHPartialRefitData@Gu@physx@@QEAAXI@Z 000000018017e4c0 f   GuAABBTree.obj
 0001:0017d5d0       ?mergeRuntimeLeaf@AABBTree@Gu@physx@@AEAAXAEAUBVHNode@23@AEBVAABBTreeMergeData@23@I@Z 000000018017e5d0 f   GuAABBTree.obj
 0001:0017d850       ?mergeRuntimeNode@AABBTree@Gu@physx@@AEAAXAEAUBVHNode@23@AEBVAABBTreeMergeData@23@I@Z 000000018017e850 f   GuAABBTree.obj
 0001:0017dbd0       ?mergeTree@AABBTree@Gu@physx@@QEAAXAEBVAABBTreeMergeData@23@@Z 000000018017ebd0 f   GuAABBTree.obj
 0001:0017de90       ?progressiveBuild@AABBTree@Gu@physx@@QEAAIAEBVAABBTreeBuildParams@23@AEAVNodeAllocator@23@AEAUBuildStats@23@II@Z 000000018017ee90 f   GuAABBTree.obj
 0001:0017e140       ?recreate@?$PxArray@PEAVAABBTreeBuildNode@Gu@physx@@V?$PxInlineAllocator@$0IAA@V?$PxReflectionAllocator@PEAVAABBTreeBuildNode@Gu@physx@@@physx@@@3@@physx@@IEAAXI@Z 000000018017f140 f i GuAABBTree.obj
 0001:0017e260       ?refitMarkedNodes@BVHPartialRefitData@Gu@physx@@QEAAXPEBVPxBounds3@3@@Z 000000018017f260 f   GuAABBTree.obj
 0001:0017e3d0       ?release@AABBTree@Gu@physx@@QEAAX_N@Z 000000018017f3d0 f   GuAABBTree.obj
 0001:0017e4c0       ?release@AABBTreeBounds@Gu@physx@@QEAAXXZ 000000018017f4c0 f   GuAABBTree.obj
 0001:0017e510       ?release@NodeAllocator@Gu@physx@@QEAAXXZ 000000018017f510 f   GuAABBTree.obj
 0001:0017e5c0       ?releasePartialRefitData@BVHPartialRefitData@Gu@physx@@QEAAX_N@Z 000000018017f5c0 f   GuAABBTree.obj
 0001:0017e660       ?reshuffle@Gu@physx@@YAIIQEIAIPEIBV?$PxVec3T@M@2@MI@Z 000000018017f660 f   GuAABBTree.obj
 0001:0017e7a0       ?resize@?$PxArray@USlab@NodeAllocator@Gu@physx@@V?$PxReflectionAllocator@USlab@NodeAllocator@Gu@physx@@@4@@physx@@QEAAXIAEBUSlab@NodeAllocator@Gu@2@@Z 000000018017f7a0 f i GuAABBTree.obj
 0001:0017e820       ?resize@AABBTreeBounds@Gu@physx@@QEAAXII@Z 000000018017f820 f   GuAABBTree.obj
 0001:0017e8d0       ?resizeUninitialized@?$PxArray@PEAVAABBTreeBuildNode@Gu@physx@@V?$PxInlineAllocator@$0IAA@V?$PxReflectionAllocator@PEAVAABBTreeBuildNode@Gu@physx@@@physx@@@3@@physx@@QEAAXI@Z 000000018017f8d0 f i GuAABBTree.obj
 0001:0017e920       ?shiftIndices@AABBTree@Gu@physx@@QEAAXI@Z 000000018017f920 f   GuAABBTree.obj
 0001:0017e940       ?shiftOrigin@AABBTree@Gu@physx@@QEAAXAEBV?$PxVec3T@M@3@@Z 000000018017f940 f   GuAABBTree.obj
 0001:0017ebd0       ?subdivide@AABBTreeBuildNode@Gu@physx@@QEAAXAEBVAABBTreeBuildParams@23@AEAUBuildStats@23@AEAVNodeAllocator@23@QEAI@Z 000000018017fbd0 f   GuAABBTree.obj
 0001:0017edb0       ?subdivideSAH@AABBTreeBuildNode@Gu@physx@@QEAAXAEBVAABBTreeBuildParams@23@AEAUSAH_Buffers@23@AEAUBuildStats@23@AEAVNodeAllocator@23@QEAI@Z 000000018017fdb0 f   GuAABBTree.obj
 0001:0017eea0       ?traverseRuntimeNode@AABBTree@Gu@physx@@AEAAXAEAUBVHNode@23@AEBVAABBTreeMergeData@23@I@Z 000000018017fea0 f   GuAABBTree.obj
 0001:0017efe0       ?initMap@AABBTreeUpdateMap@Gu@physx@@QEAAXIAEBVAABBTree@23@@Z 000000018017ffe0 f   GuAABBTreeUpdateMap.obj
 0001:0017f170       ?invalidate@AABBTreeUpdateMap@Gu@physx@@QEAAXIIAEAVAABBTree@23@@Z 0000000180180170 f   GuAABBTreeUpdateMap.obj
 0001:0017f410       ?visualizeTree@@YAXAEAVPxRenderOutput@physx@@IPEBVAABBTree@Gu@2@@Z 0000000180180410 f   GuSqInternal.obj
 0001:0017f480       ?visualizeTree@@YAXAEAVPxRenderOutput@physx@@IPEBVBVH@Gu@2@@Z 0000000180180480 f   GuSqInternal.obj
 0001:0017f4f0       ?visualizeTree@@YAXAEAVPxRenderOutput@physx@@IPEBVIncrementalAABBTree@Gu@2@PEAVDebugVizCallback@2@@Z 00000001801804f0 f   GuSqInternal.obj
 0001:0017f570       ??$PxSort@PEAXU?$PxLess@PEAX@physx@@V?$PxReflectionAllocator@UAABBTreeIndices@Gu@physx@@@2@@physx@@YAXPEAPEAXIAEBU?$PxLess@PEAX@0@AEBV?$PxReflectionAllocator@UAABBTreeIndices@Gu@physx@@@0@I@Z 0000000180180570 f i GuIncrementalAABBTree.obj
 0001:0017f9d0       ??$PxSort@PEAXU?$PxLess@PEAX@physx@@V?$PxReflectionAllocator@UIncrementalAABBTreeNodePair@Gu@physx@@@2@@physx@@YAXPEAPEAXIAEBU?$PxLess@PEAX@0@AEBV?$PxReflectionAllocator@UIncrementalAABBTreeNodePair@Gu@physx@@@0@I@Z 00000001801809d0 f i GuIncrementalAABBTree.obj
 0001:0017fe30       ??0IncrementalAABBTree@Gu@physx@@QEAA@XZ 0000000180180e30 f   GuIncrementalAABBTree.obj
 0001:0017feb0       ??1?$PxPoolBase@UAABBTreeIndices@Gu@physx@@V?$PxReflectionAllocator@UAABBTreeIndices@Gu@physx@@@3@@physx@@QEAA@XZ 0000000180180eb0 f i GuIncrementalAABBTree.obj
 0001:00180010       ??1?$PxPoolBase@UIncrementalAABBTreeNodePair@Gu@physx@@V?$PxReflectionAllocator@UIncrementalAABBTreeNodePair@Gu@physx@@@3@@physx@@QEAA@XZ 0000000180181010 f i GuIncrementalAABBTree.obj
 0001:00180170       ??1IncrementalAABBTree@Gu@physx@@QEAA@XZ 0000000180181170 f   GuIncrementalAABBTree.obj
 0001:001801b0       ?allocate@?$PxPoolBase@UAABBTreeIndices@Gu@physx@@V?$PxReflectionAllocator@UAABBTreeIndices@Gu@physx@@@3@@physx@@QEAAPEAUAABBTreeIndices@Gu@2@XZ 00000001801811b0 f i GuIncrementalAABBTree.obj
 0001:001802a0       ?allocate@?$PxPoolBase@UIncrementalAABBTreeNodePair@Gu@physx@@V?$PxReflectionAllocator@UIncrementalAABBTreeNodePair@Gu@physx@@@3@@physx@@QEAAPEAUIncrementalAABBTreeNodePair@Gu@2@XZ 00000001801812a0 f i GuIncrementalAABBTree.obj
 0001:00180390       ?build@IncrementalAABBTree@Gu@physx@@QEAA_NAEBVAABBTreeBuildParams@23@AEAV?$PxArray@PEAVIncrementalAABBTreeNode@Gu@physx@@V?$PxReflectionAllocator@PEAVIncrementalAABBTreeNode@Gu@physx@@@3@@3@@Z 0000000180181390 f   GuIncrementalAABBTree.obj
 0001:00180580       ?clone@IncrementalAABBTree@Gu@physx@@AEAAXAEAV?$PxArray@PEAVIncrementalAABBTreeNode@Gu@physx@@V?$PxReflectionAllocator@PEAVIncrementalAABBTreeNode@Gu@physx@@@3@@3@PEBIPEAPEAVIncrementalAABBTreeNode@23@@Z 0000000180181580 f   GuIncrementalAABBTree.obj
 0001:00180a90       ?copy@IncrementalAABBTree@Gu@physx@@QEAAXAEBVBVH@23@AEAV?$PxArray@PEAVIncrementalAABBTreeNode@Gu@physx@@V?$PxReflectionAllocator@PEAVIncrementalAABBTreeNode@Gu@physx@@@3@@3@@Z 0000000180181a90 f   GuIncrementalAABBTree.obj
 0001:00180b40       ?copyNode@IncrementalAABBTree@Gu@physx@@AEAAXAEAVIncrementalAABBTreeNode@23@AEBUBVHNode@23@PEBU523@PEAV423@PEBIAEAV?$PxArray@PEAVIncrementalAABBTreeNode@Gu@physx@@V?$PxReflectionAllocator@PEAVIncrementalAABBTreeNode@Gu@physx@@@3@@3@@Z 0000000180181b40 f   GuIncrementalAABBTree.obj
 0001:00180d00       ?fixupTreeIndices@IncrementalAABBTree@Gu@physx@@QEAAXPEAVIncrementalAABBTreeNode@23@II@Z 0000000180181d00 f   GuIncrementalAABBTree.obj
 0001:00180d30       ?getTreeLeafDepth@IncrementalAABBTree@Gu@physx@@QEAAIPEAVIncrementalAABBTreeNode@23@@Z 0000000180181d30 f   GuIncrementalAABBTree.obj
 0001:00180d50       ?growAndPushBack@?$PxArray@PEAVIncrementalAABBTreeNode@Gu@physx@@V?$PxReflectionAllocator@PEAVIncrementalAABBTreeNode@Gu@physx@@@3@@physx@@IEAAAEAPEAVIncrementalAABBTreeNode@Gu@2@AEBQEAV342@@Z 0000000180181d50 f i GuIncrementalAABBTree.obj
 0001:00180e60       ?growAndPushBack@?$PxArray@PEAXV?$PxReflectionAllocator@UAABBTreeIndices@Gu@physx@@@physx@@@physx@@IEAAAEAPEAXAEBQEAX@Z 0000000180181e60 f i GuIncrementalAABBTree.obj
 0001:00180f70       ?growAndPushBack@?$PxArray@PEAXV?$PxReflectionAllocator@UIncrementalAABBTreeNodePair@Gu@physx@@@physx@@@physx@@IEAAAEAPEAXAEBQEAX@Z 0000000180181f70 f i GuIncrementalAABBTree.obj
 0001:00181080       ?hierarchyCheck@IncrementalAABBTree@Gu@physx@@QEAAXIPEBVPxBounds3@3@@Z 0000000180182080 f   GuIncrementalAABBTree.obj
 0001:001811d0       ?hierarchyCheck@IncrementalAABBTree@Gu@physx@@QEAAXPEBVPxBounds3@3@@Z 00000001801821d0 f   GuIncrementalAABBTree.obj
 0001:00181340       ?insert@IncrementalAABBTree@Gu@physx@@QEAAPEAVIncrementalAABBTreeNode@23@IPEBVPxBounds3@3@AEAV?$PxArray@PEAVIncrementalAABBTreeNode@Gu@physx@@V?$PxReflectionAllocator@PEAVIncrementalAABBTreeNode@Gu@physx@@@3@@3@@Z 0000000180182340 f   GuIncrementalAABBTree.obj
 0001:00181a20       ?recreate@?$PxArray@PEAXV?$PxReflectionAllocator@UAABBTreeIndices@Gu@physx@@@physx@@@physx@@IEAAXI@Z 0000000180182a20 f i GuIncrementalAABBTree.obj
 0001:00181b10       ?recreate@?$PxArray@PEAXV?$PxReflectionAllocator@UIncrementalAABBTreeNodePair@Gu@physx@@@physx@@@physx@@IEAAXI@Z 0000000180182b10 f i GuIncrementalAABBTree.obj
 0001:00181c00       ?release@IncrementalAABBTree@Gu@physx@@QEAAXXZ 0000000180182c00 f   GuIncrementalAABBTree.obj
 0001:00181c30       ?releaseNode@IncrementalAABBTree@Gu@physx@@AEAAXPEAVIncrementalAABBTreeNode@23@@Z 0000000180182c30 f   GuIncrementalAABBTree.obj
 0001:00181cc0       ?remove@IncrementalAABBTree@Gu@physx@@QEAAPEAVIncrementalAABBTreeNode@23@PEAV423@IPEBVPxBounds3@3@@Z 0000000180182cc0 f   GuIncrementalAABBTree.obj
 0001:00181fe0       ?rotateTree@IncrementalAABBTree@Gu@physx@@AEAAXPEAVIncrementalAABBTreeNode@23@AEAV?$PxArray@PEAVIncrementalAABBTreeNode@Gu@physx@@V?$PxReflectionAllocator@PEAVIncrementalAABBTreeNode@Gu@physx@@@3@@3@IPEBVPxBounds3@3@_N@Z 0000000180182fe0 f   GuIncrementalAABBTree.obj
 0001:00182910       ?shiftOrigin@IncrementalAABBTree@Gu@physx@@QEAAXAEBV?$PxVec3T@M@3@@Z 0000000180183910 f   GuIncrementalAABBTree.obj
 0001:00182970       ?splitLeafNode@IncrementalAABBTree@Gu@physx@@AEAAPEAVIncrementalAABBTreeNode@23@PEAV423@IAEBT__m128@@1PEBVPxBounds3@3@@Z 0000000180183970 f   GuIncrementalAABBTree.obj
 0001:00182c60       ?update@IncrementalAABBTree@Gu@physx@@QEAAPEAVIncrementalAABBTreeNode@23@PEAV423@IPEBVPxBounds3@3@AEAV?$PxArray@PEAVIncrementalAABBTreeNode@Gu@physx@@V?$PxReflectionAllocator@PEAVIncrementalAABBTreeNode@Gu@physx@@@3@@3@@Z 0000000180183c60 f   GuIncrementalAABBTree.obj
 0001:00182d20       ?updateFast@IncrementalAABBTree@Gu@physx@@QEAAPEAVIncrementalAABBTreeNode@23@PEAV423@IPEBVPxBounds3@3@AEAV?$PxArray@PEAVIncrementalAABBTreeNode@Gu@physx@@V?$PxReflectionAllocator@PEAVIncrementalAABBTreeNode@Gu@physx@@@3@@3@@Z 0000000180183d20 f   GuIncrementalAABBTree.obj
 0001:00182f40       ??0SAH_Buffers@Gu@physx@@QEAA@I@Z 0000000180183f40 f   GuSAH.obj
 0001:00183040       ??1SAH_Buffers@Gu@physx@@QEAA@XZ 0000000180184040 f   GuSAH.obj
 0001:00183100       ?split@SAH_Buffers@Gu@physx@@QEAA_NAEAIIPEIBIPEIBVPxBounds3@3@PEIBV?$PxVec3T@M@3@@Z 0000000180184100 f   GuSAH.obj
 0001:001837e0       ??0BVH@Gu@physx@@QEAA@AEBUPxBVHInternalData@2@@Z 00000001801847e0 f   GuBVH.obj
 0001:001838a0       ??0BVH@Gu@physx@@QEAA@PEAVMeshFactory@12@@Z 00000001801848a0 f   GuBVH.obj
 0001:00183910       ??0BVH@Gu@physx@@QEAA@PEAVMeshFactory@12@AEAVBVHData@12@@Z 0000000180184910 f   GuBVH.obj
 0001:001839c0       ??1BVHData@Gu@physx@@QEAA@XZ 00000001801849c0 f i GuBVH.obj
 0001:00187134       ??_EBVH@Gu@physx@@WBA@EAAPEAXI@Z 0000000180188134 f i GuBVH.obj
 0001:00187140       ??_EBVH@Gu@physx@@UEAAPEAXI@Z 0000000180188140 f i GuBVH.obj
 0001:00187140       ??_GBVH@Gu@physx@@UEAAPEAXI@Z 0000000180188140 f i GuBVH.obj
 0001:001871d0       ??_ERefCountable@Cm@physx@@UEAAPEAXI@Z 00000001801881d0 f i GuBVH.obj
 0001:001871d0       ??_GRefCountable@Cm@physx@@UEAAPEAXI@Z 00000001801881d0 f i GuBVH.obj
 0001:00187400       ?build@BVHData@Gu@physx@@QEAA_NIPEBXIMIW4BVHBuildStrategy@23@@Z 0000000180188400 f   GuBVH.obj
 0001:00187800       ?cull@BVH@Gu@physx@@UEBA_NIPEBVPxPlane@3@AEAUOverlapCallback@PxBVH@3@V?$PxFlags@W4Enum@PxGeometryQueryFlag@physx@@I@3@@Z 0000000180188800 f   GuBVH.obj
 0001:00188150       ?getConcreteTypeName@PxBVH@physx@@UEBAPEBDXZ 0000000180189150 f i GuBVH.obj
 0001:00188160       ?init@BVH@Gu@physx@@QEAA_NIPEAVAABBTreeBounds@23@PEBXIW4BVHBuildStrategy@23@IM@Z 0000000180189160 f   GuBVH.obj
 0001:00188580       ?isKindOf@PxBVH@physx@@MEBA_NPEBD@Z 0000000180189580 f i GuBVH.obj
 0001:001885f0       ?load@BVH@Gu@physx@@QEAA_NAEAVPxInputStream@3@@Z 00000001801895f0 f   GuBVH.obj
 0001:00188780       ?onRefCountZero@BVH@Gu@physx@@UEAAXXZ 0000000180189780 f   GuBVH.obj
 0001:00188860       ?onRefCountZero@RefCountable@Cm@physx@@UEAAXXZ 0000000180189860 f i GuBVH.obj
 0001:00188880       ?overlap@BVH@Gu@physx@@QEBA_NAEBVShapeData@23@AEAUOverlapCallback@PxBVH@3@V?$PxFlags@W4Enum@PxGeometryQueryFlag@physx@@I@3@@Z 0000000180189880 f   GuBVH.obj
 0001:001890b0       ?overlap@BVH@Gu@physx@@UEBA_NAEBVPxGeometry@3@AEBV?$PxTransformT@M@3@AEAUOverlapCallback@PxBVH@3@V?$PxFlags@W4Enum@PxGeometryQueryFlag@physx@@I@3@@Z 000000018018a0b0 f   GuBVH.obj
 0001:00189110       ?partialRefit@BVH@Gu@physx@@UEAAXXZ 000000018018a110 f   GuBVH.obj
 0001:00189120       ?raycast@BVH@Gu@physx@@UEBA_NAEBV?$PxVec3T@M@3@0MAEAURaycastCallback@PxBVH@3@V?$PxFlags@W4Enum@PxGeometryQueryFlag@physx@@I@3@@Z 000000018018a120 f   GuBVH.obj
 0001:00189250       ?recreate@?$PxArray@PEBUBVHNode@Gu@physx@@V?$PxInlineAllocator@$0IAA@V?$PxReflectionAllocator@PEBUBVHNode@Gu@physx@@@physx@@@3@@physx@@IEAAXI@Z 000000018018a250 f i GuBVH.obj
 0001:00189370       ?refit@BVH@Gu@physx@@UEAAXXZ 000000018018a370 f   GuBVH.obj
 0001:00189380       ?release@BVH@Gu@physx@@UEAAXXZ 000000018018a380 f   GuBVH.obj
 0001:001893b0       ?resizeUninitialized@?$PxArray@PEBUBVHNode@Gu@physx@@V?$PxInlineAllocator@$0IAA@V?$PxReflectionAllocator@PEBUBVHNode@Gu@physx@@@physx@@@3@@physx@@QEAAXI@Z 000000018018a3b0 f i GuBVH.obj
 0001:00189400       ?save@BVHData@Gu@physx@@QEBA_NAEAVPxOutputStream@3@_N@Z 000000018018a400 f   GuBVH.obj
 0001:00189570       ?sweep@BVH@Gu@physx@@QEBA_NAEBVShapeData@23@AEBV?$PxVec3T@M@3@MAEAURaycastCallback@PxBVH@3@V?$PxFlags@W4Enum@PxGeometryQueryFlag@physx@@I@3@@Z 000000018018a570 f   GuBVH.obj
 0001:00189760       ?sweep@BVH@Gu@physx@@UEBA_NAEBVPxGeometry@3@AEBV?$PxTransformT@M@3@AEBV?$PxVec3T@M@3@MAEAURaycastCallback@PxBVH@3@V?$PxFlags@W4Enum@PxGeometryQueryFlag@physx@@I@3@@Z 000000018018a760 f   GuBVH.obj
 0001:001897e0       ?traverse@BVH@Gu@physx@@UEBA_NAEAUTraversalCallback@PxBVH@3@@Z 000000018018a7e0 f   GuBVH.obj
 0001:00189950       ?updateBounds@BVH@Gu@physx@@UEAA_NIAEBVPxBounds3@3@@Z 000000018018a950 f   GuBVH.obj
 0001:00189a00       ?updateBoundsInternal@BVH@Gu@physx@@QEAA_NIAEBVPxBounds3@3@@Z 000000018018aa00 f   GuBVH.obj
 0001:00189ab0       PxFindOverlap              000000018018aab0 f   GuBVH.obj
 0001:00189ba0       PxGetBVHInternalData       000000018018aba0 f   GuBVH.obj
 0001:00189be0       ??0IncrementalAABBPrunerCore@Gu@physx@@QEAA@PEBVPruningPool@12@@Z 000000018018abe0 f   GuIncrementalAABBPrunerCore.obj
 0001:00189cf0       ??1IncrementalAABBPrunerCore@Gu@physx@@QEAA@XZ 000000018018acf0 f   GuIncrementalAABBPrunerCore.obj
 0001:00189e60       ??R?$AABBTreeOverlap@$00U?$OBBAABBTests@$00@Gu@physx@@VIncrementalAABBTree@23@VIncrementalAABBTreeNode@23@UOverlapCallbackAdapter@23@@Gu@physx@@QEAA_NAEBVAABBTreeBounds@12@AEBVIncrementalAABBTree@12@AEBU?$OBBAABBTests@$00@12@AEAUOverlapCallbackAdapter@12@@Z 000000018018ae60 f i GuIncrementalAABBPrunerCore.obj
 0001:0018a400       ??R?$AABBTreeOverlap@$00UAABBAABBTest@Gu@physx@@VIncrementalAABBTree@23@VIncrementalAABBTreeNode@23@UOverlapCallbackAdapter@23@@Gu@physx@@QEAA_NAEBVAABBTreeBounds@12@AEBVIncrementalAABBTree@12@AEBUAABBAABBTest@12@AEAUOverlapCallbackAdapter@12@@Z 000000018018b400 f i GuIncrementalAABBPrunerCore.obj
 0001:0018a660       ??R?$AABBTreeOverlap@$00UCapsuleAABBTest@Gu@physx@@VIncrementalAABBTree@23@VIncrementalAABBTreeNode@23@UOverlapCallbackAdapter@23@@Gu@physx@@QEAA_NAEBVAABBTreeBounds@12@AEBVIncrementalAABBTree@12@AEBUCapsuleAABBTest@12@AEAUOverlapCallbackAdapter@12@@Z 000000018018b660 f i GuIncrementalAABBPrunerCore.obj
 0001:0018a9a0       ??R?$AABBTreeRaycast@$00$00VIncrementalAABBTree@Gu@physx@@VIncrementalAABBTreeNode@23@URaycastCallbackAdapter@23@@Gu@physx@@QEAA_NAEBVAABBTreeBounds@12@AEBVIncrementalAABBTree@12@AEBV?$PxVec3T@M@2@2AEAM2AEAURaycastCallbackAdapter@12@@Z 000000018018b9a0 f i GuIncrementalAABBPrunerCore.obj
 0001:0018b060       ??R?$AABBTreeRaycast@$0A@$00VIncrementalAABBTree@Gu@physx@@VIncrementalAABBTreeNode@23@URaycastCallbackAdapter@23@@Gu@physx@@QEAA_NAEBVAABBTreeBounds@12@AEBVIncrementalAABBTree@12@AEBV?$PxVec3T@M@2@2AEAM2AEAURaycastCallbackAdapter@12@@Z 000000018018c060 f i GuIncrementalAABBPrunerCore.obj
 0001:0018b690       ?addObject@IncrementalAABBPrunerCore@Gu@physx@@QEAA_NII@Z 000000018018c690 f   GuIncrementalAABBPrunerCore.obj
 0001:0018b780       ?clear@?$PxHashMapBase@IPEAVIncrementalAABBTreeNode@Gu@physx@@U?$PxHash@I@3@VPxAllocator@3@@physx@@QEAAXXZ 000000018018c780 f i GuIncrementalAABBPrunerCore.obj
 0001:0018b780       ?clear@?$PxHashMapBase@UPrunerPayload@Gu@physx@@UExtendedBucketPrunerData@23@UExtendedBucketPrunerHash@23@VPxAllocator@3@@physx@@QEAAXXZ 000000018018c780 f i GuExtendedBucketPruner.obj
 0001:0018b810       ?create@?$PxHashBase@V?$PxPair@$$CBIPEAVIncrementalAABBTreeNode@Gu@physx@@@physx@@IU?$PxHash@I@2@UGetKey@?$PxHashMapBase@IPEAVIncrementalAABBTreeNode@Gu@physx@@U?$PxHash@I@3@VPxAllocator@3@@2@VPxAllocator@2@$00@physx@@QEAAPEAV?$PxPair@$$CBIPEAVIncrementalAABBTreeNode@Gu@physx@@@2@AEBIAEA_N@Z 000000018018c810 f i GuIncrementalAABBPrunerCore.obj
 0001:0018b960       ?erase@?$PxHashBase@V?$PxPair@$$CBIPEAVIncrementalAABBTreeNode@Gu@physx@@@physx@@IU?$PxHash@I@2@UGetKey@?$PxHashMapBase@IPEAVIncrementalAABBTreeNode@Gu@physx@@U?$PxHash@I@3@VPxAllocator@3@@2@VPxAllocator@2@$00@physx@@QEAA_NAEBIAEAV?$PxPair@$$CBIPEAVIncrementalAABBTreeNode@Gu@physx@@@2@@Z 000000018018c960 f i GuIncrementalAABBPrunerCore.obj
 0001:0018bad0       ?getCurrentWorldBoxes@PruningPool@Gu@physx@@QEAAPEAVPxBounds3@3@XZ 000000018018cad0 f i GuIncrementalAABBPrunerCore.obj
 0001:0018bad0       ?getCurrentWorldBoxes@PruningPool@Gu@physx@@QEBAPEBVPxBounds3@3@XZ 000000018018cad0 f i GuIncrementalAABBPrunerCore.obj
 0001:0018bad0       ?getMesh@CollisionTetrahedronMeshData@Gu@physx@@UEAAPEAVPxTetrahedronMeshData@3@XZ 000000018018cad0 f i GuCookingTetrahedronMesh.obj
 0001:0018bad0       ?getMesh@CollisionTetrahedronMeshData@Gu@physx@@UEBAPEBVPxTetrahedronMeshData@3@XZ 000000018018cad0 f i GuCookingTetrahedronMesh.obj
 0001:0018bad0       ?getMesh@SimulationTetrahedronMeshData@Gu@physx@@UEAAPEAVPxTetrahedronMeshData@3@XZ 000000018018cad0 f i GuCookingTetrahedronMesh.obj
 0001:0018bae0       ?getGlobalBounds@IncrementalAABBPrunerCore@Gu@physx@@QEBAXAEAVPxBounds3@3@@Z 000000018018cae0 f   GuIncrementalAABBPrunerCore.obj
 0001:0018bc10       ?getIndex@PruningPool@Gu@physx@@QEBAII@Z 000000018018cc10 f i GuIncrementalAABBPrunerCore.obj
 0001:0018bc20       ?getPayloadData@PruningPool@Gu@physx@@QEBAAEBUPrunerPayload@23@IPEAUPrunerPayloadData@23@@Z 000000018018cc20 f i GuIncrementalAABBPrunerCore.obj
 0001:0018bc70       ?overlap@IncrementalAABBPrunerCore@Gu@physx@@QEBA_NAEBVShapeData@23@AEAUPrunerOverlapCallback@23@@Z 000000018018cc70 f   GuIncrementalAABBPrunerCore.obj
 0001:0018c7e0       ?raycast@IncrementalAABBPrunerCore@Gu@physx@@QEBA_NAEBV?$PxVec3T@M@3@0AEAMAEAUPrunerRaycastCallback@23@@Z 000000018018d7e0 f   GuIncrementalAABBPrunerCore.obj
 0001:0018c8f0       ?recreate@?$PxArray@PEAVIncrementalAABBTreeNode@Gu@physx@@V?$PxReflectionAllocator@PEAVIncrementalAABBTreeNode@Gu@physx@@@3@@physx@@IEAAXI@Z 000000018018d8f0 f i GuIncrementalAABBPrunerCore.obj
 0001:0018c9e0       ?recreate@?$PxArray@PEBVIncrementalAABBTreeNode@Gu@physx@@V?$PxInlineAllocator@$0IAA@V?$PxReflectionAllocator@PEBVIncrementalAABBTreeNode@Gu@physx@@@physx@@@3@@physx@@IEAAXI@Z 000000018018d9e0 f i GuIncrementalAABBPrunerCore.obj
 0001:0018cb00       ?release@IncrementalAABBPrunerCore@Gu@physx@@QEAAXXZ 000000018018db00 f   GuIncrementalAABBPrunerCore.obj
 0001:0018cc00       ?removeMarkedObjects@IncrementalAABBPrunerCore@Gu@physx@@QEAAII@Z 000000018018dc00 f   GuIncrementalAABBPrunerCore.obj
 0001:0018cc60       ?removeObject@IncrementalAABBPrunerCore@Gu@physx@@QEAA_NIIAEAI@Z 000000018018dc60 f   GuIncrementalAABBPrunerCore.obj
 0001:0018ce70       ?reserveInternal@?$PxHashBase@V?$PxPair@$$CBIPEAVIncrementalAABBTreeNode@Gu@physx@@@physx@@IU?$PxHash@I@2@UGetKey@?$PxHashMapBase@IPEAVIncrementalAABBTreeNode@Gu@physx@@U?$PxHash@I@3@VPxAllocator@3@@2@VPxAllocator@2@$00@physx@@AEAAXI@Z 000000018018de70 f i GuIncrementalAABBPrunerCore.obj
 0001:0018d030       ?resizeUninitialized@?$PxArray@PEBVIncrementalAABBTreeNode@Gu@physx@@V?$PxInlineAllocator@$0IAA@V?$PxReflectionAllocator@PEBVIncrementalAABBTreeNode@Gu@physx@@@physx@@@3@@physx@@QEAAXI@Z 000000018018e030 f i GuIncrementalAABBPrunerCore.obj
 0001:0018d080       ?setTransform@PruningPool@Gu@physx@@QEAA_NIAEBV?$PxTransformT@M@3@@Z 000000018018e080 f i GuIncrementalAABBPrunerCore.obj
 0001:0018d0e0       ?shiftOrigin@IncrementalAABBPrunerCore@Gu@physx@@QEAAXAEBV?$PxVec3T@M@3@@Z 000000018018e0e0 f   GuIncrementalAABBPrunerCore.obj
 0001:0018d120       ?swapIndex@IncrementalAABBPrunerCore@Gu@physx@@QEAAXII@Z 000000018018e120 f   GuIncrementalAABBPrunerCore.obj
 0001:0018d200       ?sweep@IncrementalAABBPrunerCore@Gu@physx@@QEBA_NAEBVShapeData@23@AEBV?$PxVec3T@M@3@AEAMAEAUPrunerRaycastCallback@23@@Z 000000018018e200 f   GuIncrementalAABBPrunerCore.obj
 0001:0018d420       ?updateMapping@IncrementalAABBPrunerCore@Gu@physx@@AEAAXAEAV?$PxHashMap@IPEAVIncrementalAABBTreeNode@Gu@physx@@U?$PxHash@I@3@VPxAllocator@3@@3@IPEAVIncrementalAABBTreeNode@23@@Z 000000018018e420 f   GuIncrementalAABBPrunerCore.obj
 0001:0018d590       ?updateObject@IncrementalAABBPrunerCore@Gu@physx@@QEAA_NI@Z 000000018018e590 f   GuIncrementalAABBPrunerCore.obj
 0001:0018d730       ?visualize@IncrementalAABBPrunerCore@Gu@physx@@QEBAXAEAVPxRenderOutput@3@I@Z 000000018018e730 f   GuIncrementalAABBPrunerCore.obj
 0001:0018d790       ??0IncrementalAABBPruner@Gu@physx@@QEAA@I_K@Z 000000018018e790 f   GuIncrementalAABBPruner.obj
 0001:0018d840       ??R?$AABBTreeOverlap@$00USphereAABBTest@Gu@physx@@VIncrementalAABBTree@23@VIncrementalAABBTreeNode@23@UOverlapCallbackAdapter@23@@Gu@physx@@QEAA_NAEBVAABBTreeBounds@12@AEBVIncrementalAABBTree@12@AEBUSphereAABBTest@12@AEAUOverlapCallbackAdapter@12@@Z 000000018018e840 f i GuIncrementalAABBPruner.obj
 0001:0018db10       ??_EBasePruner@Gu@physx@@UEAAPEAXI@Z 000000018018eb10 f i GuIncrementalAABBPruner.obj
 0001:0018db10       ??_GBasePruner@Gu@physx@@UEAAPEAXI@Z 000000018018eb10 f i GuIncrementalAABBPruner.obj
 0001:0018db60       ??_EIncrementalAABBPruner@Gu@physx@@UEAAPEAXI@Z 000000018018eb60 f i GuIncrementalAABBPruner.obj
 0001:0018db60       ??_GIncrementalAABBPruner@Gu@physx@@UEAAPEAXI@Z 000000018018eb60 f i GuIncrementalAABBPruner.obj
 0001:0018dc70       ?addObjects@IncrementalAABBPruner@Gu@physx@@UEAA_NPEAIPEBVPxBounds3@3@PEBUPrunerPayload@23@PEBV?$PxTransformT@M@3@I_N@Z 000000018018ec70 f   GuIncrementalAABBPruner.obj
 0001:0018de20       ?commit@IncrementalAABBPruner@Gu@physx@@UEAAXXZ 000000018018ee20 f   GuIncrementalAABBPruner.obj
 0001:0018df70       ?getGlobalBounds@IncrementalAABBPruner@Gu@physx@@UEBAXAEAVPxBounds3@3@@Z 000000018018ef70 f   GuIncrementalAABBPruner.obj
 0001:0018dfe0       ?getPayloadData@IncrementalAABBPruner@Gu@physx@@UEBAAEBUPrunerPayload@23@IPEAUPrunerPayloadData@23@@Z 000000018018efe0 f i GuIncrementalAABBPruner.obj
 0001:0018e030       ?overlap@IncrementalAABBPruner@Gu@physx@@UEBA_NAEBVShapeData@23@AEAUPrunerOverlapCallback@23@@Z 000000018018f030 f   GuIncrementalAABBPruner.obj
 0001:0018e740       ?preallocate@IncrementalAABBPruner@Gu@physx@@UEAAXI@Z 000000018018f740 f i GuIncrementalAABBPruner.obj
 0001:0018e750       ?purge@IncrementalAABBPruner@Gu@physx@@UEAAXXZ 000000018018f750 f   GuIncrementalAABBPruner.obj
 0001:0018e7a0       ?raycast@IncrementalAABBPruner@Gu@physx@@UEBA_NAEBV?$PxVec3T@M@3@0AEAMAEAUPrunerRaycastCallback@23@@Z 000000018018f7a0 f   GuIncrementalAABBPruner.obj
 0001:0018e820       ?removeObjects@IncrementalAABBPruner@Gu@physx@@UEAAXPEBIIPEAUPrunerPayloadRemovalCallback@23@@Z 000000018018f820 f   GuIncrementalAABBPruner.obj
 0001:0018e970       ?resize@?$PxArray@PEAVIncrementalAABBTreeNode@Gu@physx@@V?$PxReflectionAllocator@PEAVIncrementalAABBTreeNode@Gu@physx@@@3@@physx@@QEAAXIAEBQEAVIncrementalAABBTreeNode@Gu@2@@Z 000000018018f970 f i GuIncrementalAABBPruner.obj
 0001:0018ea30       ?resizeUninitialized@?$PxArray@PEAVIncrementalAABBTreeNode@Gu@physx@@V?$PxReflectionAllocator@PEAVIncrementalAABBTreeNode@Gu@physx@@@3@@physx@@QEAAXI@Z 000000018018fa30 f i GuIncrementalAABBPruner.obj
 0001:0018ea70       ?setTransform@IncrementalAABBPruner@Gu@physx@@UEAA_NIAEBV?$PxTransformT@M@3@@Z 000000018018fa70 f i GuIncrementalAABBPruner.obj
 0001:0018ead0       ?shiftOrigin@IncrementalAABBPruner@Gu@physx@@UEAAXAEBV?$PxVec3T@M@3@@Z 000000018018fad0 f   GuIncrementalAABBPruner.obj
 0001:0018eb10       ?sweep@IncrementalAABBPruner@Gu@physx@@UEBA_NAEBVShapeData@23@AEBV?$PxVec3T@M@3@AEAMAEAUPrunerRaycastCallback@23@@Z 000000018018fb10 f   GuIncrementalAABBPruner.obj
 0001:0018ec30       ?updateObjects@IncrementalAABBPruner@Gu@physx@@UEAAXPEBIIM0PEBVPxBounds3@3@PEBUPxTransformPadded@3@@Z 000000018018fc30 f   GuIncrementalAABBPruner.obj
 0001:0018ee00       ?visualize@IncrementalAABBPruner@Gu@physx@@UEBAXAEAVPxRenderOutput@3@II@Z 000000018018fe00 f   GuIncrementalAABBPruner.obj
 0001:0018eff0       ??0PruningPool@Gu@physx@@QEAA@_KW4TransformCacheMode@12@@Z 000000018018fff0 f   GuPruningPool.obj
 0001:0018f020       ??1PruningPool@Gu@physx@@QEAA@XZ 0000000180190020 f   GuPruningPool.obj
 0001:0018f0f0       ?addObjects@PruningPool@Gu@physx@@QEAAIPEAIPEBVPxBounds3@3@PEBUPrunerPayload@23@PEBV?$PxTransformT@M@3@I@Z 00000001801900f0 f   GuPruningPool.obj
 0001:0018f2a0       ?preallocate@PruningPool@Gu@physx@@QEAAXI@Z 00000001801902a0 f   GuPruningPool.obj
 0001:0018f2b0       ?removeObject@PruningPool@Gu@physx@@QEAAIIPEAUPrunerPayloadRemovalCallback@23@@Z 00000001801902b0 f   GuPruningPool.obj
 0001:0018f3f0       ?resize@PruningPool@Gu@physx@@QEAA_NI@Z 00000001801903f0 f   GuPruningPool.obj
 0001:0018f6e0       ?shiftOrigin@PruningPool@Gu@physx@@QEAAXAEBV?$PxVec3T@M@3@@Z 00000001801906e0 f   GuPruningPool.obj
 0001:0018fab0       ?updateAndInflateBounds@PruningPool@Gu@physx@@QEAAXPEBI0PEBVPxBounds3@3@PEBUPxTransformPadded@3@IM@Z 0000000180190ab0 f   GuPruningPool.obj
 0001:001914b0       ??0BucketPruner@Gu@physx@@QEAA@_K@Z 00000001801924b0 f   GuBucketPruner.obj
 0001:00191500       ??0BucketPrunerCore@Gu@physx@@QEAA@_N@Z 0000000180192500 f   GuBucketPruner.obj
 0001:00191880       ??1BucketPrunerCore@Gu@physx@@QEAA@XZ 0000000180192880 f   GuBucketPruner.obj
 0001:001918a0       ??R?$BucketPrunerOverlapTraversal@UBucketPrunerAABBAABBTest@@$00@@QEBA_NAEBVBucketPrunerCore@Gu@physx@@AEBUBucketPrunerAABBAABBTest@@AEAUPrunerOverlapCallback@23@AEBVPxBounds3@3@@Z 00000001801928a0 f i GuBucketPruner.obj
 0001:00191e60       ??R?$BucketPrunerOverlapTraversal@UOBBAABBTest_SIMD@@$0A@@@QEBA_NAEBVBucketPrunerCore@Gu@physx@@AEBUOBBAABBTest_SIMD@@AEAUPrunerOverlapCallback@23@AEBVPxBounds3@3@@Z 0000000180192e60 f i GuBucketPruner.obj
 0001:00192690       ??R?$BucketPrunerOverlapTraversal@USphereAABBTest_SIMD@@$00@@QEBA_NAEBVBucketPrunerCore@Gu@physx@@AEBUSphereAABBTest_SIMD@@AEAUPrunerOverlapCallback@23@AEBVPxBounds3@3@@Z 0000000180193690 f i GuBucketPruner.obj
 0001:00192c60       ??_FBucketPrunerCore@Gu@physx@@QEAAXXZ 0000000180193c60 f i GuBucketPruner.obj
 0001:00192c70       ??_EBucketPruner@Gu@physx@@UEAAPEAXI@Z 0000000180193c70 f i GuBucketPruner.obj
 0001:00192c70       ??_GBucketPruner@Gu@physx@@UEAAPEAXI@Z 0000000180193c70 f i GuBucketPruner.obj
 0001:00192d10       ?addObject@BucketPrunerCore@Gu@physx@@QEAA_NAEBUPrunerPayload@23@AEBVPxBounds3@3@AEBV?$PxTransformT@M@3@I@Z 0000000180193d10 f   GuBucketPruner.obj
 0001:00193020       ?addObjects@BucketPruner@Gu@physx@@UEAA_NPEAIPEBVPxBounds3@3@PEBUPrunerPayload@23@PEBV?$PxTransformT@M@3@I_N@Z 0000000180194020 f   GuBucketPruner.obj
 0001:001930b0       ?addPair@BucketPrunerMap@Gu@physx@@QEAAPEAUBucketPrunerPair@23@AEBUPrunerPayload@23@II@Z 00000001801940b0 f   GuBucketPruner.obj
 0001:001932a0       ?allocateSortedMemory@BucketPrunerCore@Gu@physx@@AEAAXI@Z 00000001801942a0 f   GuBucketPruner.obj
 0001:00193460       ?classifyBoxes@BucketPrunerCore@Gu@physx@@AEAAXXZ 0000000180194460 f   GuBucketPruner.obj
 0001:00193c30       ?classifyBoxes@BucketPrunerNode@Gu@physx@@QEAAXMMIPEIAUBucketBox@23@PEIBUPrunerPayload@23@PEIBV?$PxTransformT@M@3@0PEIAU523@PEIAV63@_NI@Z 0000000180194c30 f   GuBucketPruner.obj
 0001:001944b0       ?build@CompanionPrunerBucket@@UEAAXXZ 00000001801954b0 f   GuSecondaryPruner.obj
 0001:001944b0       ?commit@BucketPruner@Gu@physx@@UEAAXXZ 00000001801954b0 f   GuBucketPruner.obj
 0001:001944c0       ?findPair@BucketPrunerMap@Gu@physx@@QEBAPEBUBucketPrunerPair@23@AEBUPrunerPayload@23@@Z 00000001801954c0 f   GuBucketPruner.obj
 0001:001948a0       ?getGlobalBounds@BucketPruner@Gu@physx@@UEBAXAEAVPxBounds3@3@@Z 00000001801958a0 f   GuBucketPruner.obj
 0001:00194910       ?getGlobalBounds@BucketPrunerCore@Gu@physx@@QEBAXAEAVPxBounds3@3@@Z 0000000180195910 f   GuBucketPruner.obj
 0001:00194980       ?getPayloadData@BucketPruner@Gu@physx@@UEBAAEBUPrunerPayload@23@IPEAUPrunerPayloadData@23@@Z 0000000180195980 f i GuBucketPruner.obj
 0001:001949e0       ?overlap@BucketPruner@Gu@physx@@UEBA_NAEBVShapeData@23@AEAUPrunerOverlapCallback@23@@Z 00000001801959e0 f   GuBucketPruner.obj
 0001:00194a00       ?overlap@BucketPrunerCore@Gu@physx@@QEBA_NAEBVShapeData@23@AEAUPrunerOverlapCallback@23@@Z 0000000180195a00 f   GuBucketPruner.obj
 0001:00194ce0       ?preallocate@BucketPruner@Gu@physx@@UEAAXI@Z 0000000180195ce0 f i GuBucketPruner.obj
 0001:00194ed0       ?purge@BucketPrunerMap@Gu@physx@@QEAAXXZ 0000000180195ed0 f   GuBucketPruner.obj
 0001:00194f60       ?raycast@BucketPruner@Gu@physx@@UEBA_NAEBV?$PxVec3T@M@3@0AEAMAEAUPrunerRaycastCallback@23@@Z 0000000180195f60 f   GuBucketPruner.obj
 0001:00194fb0       ?raycast@BucketPrunerCore@Gu@physx@@QEBA_NAEBV?$PxVec3T@M@3@0AEAMAEAUPrunerRaycastCallback@23@@Z 0000000180195fb0 f   GuBucketPruner.obj
 0001:00194ff0       ?reallocPairs@BucketPrunerMap@Gu@physx@@QEAAXXZ 0000000180195ff0 f   GuBucketPruner.obj
 0001:00195230       ?release@BucketPrunerCore@Gu@physx@@QEAAXXZ 0000000180196230 f   GuBucketPruner.obj
 0001:00195370       ?removeMarkedObjects@BucketPrunerCore@Gu@physx@@QEAAII@Z 0000000180196370 f   GuBucketPruner.obj
 0001:00195760       ?removeObject@BucketPrunerCore@Gu@physx@@QEAA_NAEBUPrunerPayload@23@AEAI@Z 0000000180196760 f   GuBucketPruner.obj
 0001:00195a20       ?removeObjects@BucketPruner@Gu@physx@@UEAAXPEBIIPEAUPrunerPayloadRemovalCallback@23@@Z 0000000180196a20 f   GuBucketPruner.obj
 0001:00195ad0       ?removePair@BucketPrunerMap@Gu@physx@@QEAA_NAEBUPrunerPayload@23@AEAI1@Z 0000000180196ad0 f   GuBucketPruner.obj
 0001:00195c50       ?removePairInternal@BucketPrunerMap@Gu@physx@@QEAAXAEBUPrunerPayload@23@II@Z 0000000180196c50 f   GuBucketPruner.obj
 0001:00195df0       ?resizeCore@BucketPrunerCore@Gu@physx@@AEAAXXZ 0000000180196df0 f   GuBucketPruner.obj
 0001:00196050       ?setTransform@BucketPruner@Gu@physx@@UEAA_NIAEBV?$PxTransformT@M@3@@Z 0000000180197050 f i GuBucketPruner.obj
 0001:001960b0       ?shiftOrigin@BucketPruner@Gu@physx@@UEAAXAEBV?$PxVec3T@M@3@@Z 00000001801970b0 f   GuBucketPruner.obj
 0001:001960b0       ?shiftOrigin@CompanionPrunerBucket@@UEAAXAEBV?$PxVec3T@M@physx@@@Z 00000001801970b0 f   GuSecondaryPruner.obj
 0001:001960c0       ?shiftOrigin@BucketPrunerCore@Gu@physx@@QEAAXAEBV?$PxVec3T@M@3@@Z 00000001801970c0 f   GuBucketPruner.obj
 0001:00196f80       ?sweep@BucketPruner@Gu@physx@@UEBA_NAEBVShapeData@23@AEBV?$PxVec3T@M@3@AEAMAEAUPrunerRaycastCallback@23@@Z 0000000180197f80 f   GuBucketPruner.obj
 0001:00196fa0       ?sweep@BucketPrunerCore@Gu@physx@@QEBA_NAEBVShapeData@23@AEBV?$PxVec3T@M@3@AEAMAEAUPrunerRaycastCallback@23@@Z 0000000180197fa0 f   GuBucketPruner.obj
 0001:00197070       ?updateObject@BucketPrunerCore@Gu@physx@@QEAA_NAEBVPxBounds3@3@AEBUPrunerPayload@23@AEBV?$PxTransformT@M@3@@Z 0000000180198070 f   GuBucketPruner.obj
 0001:001970d0       ?updateObjects@BucketPruner@Gu@physx@@UEAAXPEBIIM0PEBVPxBounds3@3@PEBUPxTransformPadded@3@@Z 00000001801980d0 f   GuBucketPruner.obj
 0001:001971e0       ?visualize@BucketPruner@Gu@physx@@UEBAXAEAVPxRenderOutput@3@II@Z 00000001801981e0 f   GuBucketPruner.obj
 0001:001971e0       ?visualize@CompanionPrunerBucket@@UEBAXAEAVPxRenderOutput@physx@@I@Z 00000001801981e0 f   GuSecondaryPruner.obj
 0001:001971f0       ?visualize@BucketPrunerCore@Gu@physx@@QEBAXAEAVPxRenderOutput@3@I@Z 00000001801981f0 f   GuBucketPruner.obj
 0001:00197670       ?addObject@MaverickNode@Gu@physx@@QEAA_NAEBUPrunerPayload@23@IAEBVPxBounds3@3@AEBV?$PxTransformT@M@3@I@Z 0000000180198670 f   GuMaverickNode.obj
 0001:00197750       ?removeMarkedObjects@MaverickNode@Gu@physx@@QEAAII@Z 0000000180198750 f   GuMaverickNode.obj
 0001:001978e0       ?removeObject@MaverickNode@Gu@physx@@QEAA_NIAEAI@Z 00000001801988e0 f   GuMaverickNode.obj
 0001:00197a70       ?shiftOrigin@MaverickNode@Gu@physx@@QEAAXAEBV?$PxVec3T@M@3@@Z 0000000180198a70 f   GuMaverickNode.obj
 0001:00197b60       ?updateObject@MaverickNode@Gu@physx@@QEAA_NIAEBVPxBounds3@3@AEBV?$PxTransformT@M@3@@Z 0000000180198b60 f   GuMaverickNode.obj
 0001:00197c40       ??0ExtendedBucketPruner@Gu@physx@@QEAA@_KW4CompanionPrunerType@12@PEBVPruningPool@12@@Z 0000000180198c40 f   GuExtendedBucketPruner.obj
 0001:00197e70       ??1ExtendedBucketPruner@Gu@physx@@QEAA@XZ 0000000180198e70 f   GuExtendedBucketPruner.obj
 0001:00197fe0       ??R?$AABBTreeOverlap@$00U?$OBBAABBTests@$00@Gu@physx@@VAABBTree@23@UBVHNode@23@U?$MainTreeOverlapPrunerCallback@U?$OBBAABBTests@$00@Gu@physx@@@@@Gu@physx@@QEAA_NAEBVAABBTreeBounds@12@AEBVAABBTree@12@AEBU?$OBBAABBTests@$00@12@AEAU?$MainTreeOverlapPrunerCallback@U?$OBBAABBTests@$00@Gu@physx@@@@@Z 0000000180198fe0 f i GuExtendedBucketPruner.obj
 0001:001985c0       ??R?$AABBTreeOverlap@$00U?$OBBAABBTests@$00@Gu@physx@@VAABBTree@23@UBVHNode@23@UOverlapCallbackAdapter@23@@Gu@physx@@QEAA_NAEBVAABBTreeBounds@12@AEBVAABBTree@12@AEBU?$OBBAABBTests@$00@12@AEAUOverlapCallbackAdapter@12@@Z 00000001801995c0 f i GuExtendedBucketPruner.obj
 0001:00198b80       ??R?$AABBTreeOverlap@$00UAABBAABBTest@Gu@physx@@VAABBTree@23@UBVHNode@23@U?$MainTreeOverlapPrunerCallback@UAABBAABBTest@Gu@physx@@@@@Gu@physx@@QEAA_NAEBVAABBTreeBounds@12@AEBVAABBTree@12@AEBUAABBAABBTest@12@AEAU?$MainTreeOverlapPrunerCallback@UAABBAABBTest@Gu@physx@@@@@Z 0000000180199b80 f i GuExtendedBucketPruner.obj
 0001:00198e20       ??R?$AABBTreeOverlap@$00UAABBAABBTest@Gu@physx@@VAABBTree@23@UBVHNode@23@UOverlapCallbackAdapter@23@@Gu@physx@@QEAA_NAEBVAABBTreeBounds@12@AEBVAABBTree@12@AEBUAABBAABBTest@12@AEAUOverlapCallbackAdapter@12@@Z 0000000180199e20 f i GuExtendedBucketPruner.obj
 0001:001990b0       ??R?$AABBTreeOverlap@$00UCapsuleAABBTest@Gu@physx@@VAABBTree@23@UBVHNode@23@U?$MainTreeOverlapPrunerCallback@UCapsuleAABBTest@Gu@physx@@@@@Gu@physx@@QEAA_NAEBVAABBTreeBounds@12@AEBVAABBTree@12@AEBUCapsuleAABBTest@12@AEAU?$MainTreeOverlapPrunerCallback@UCapsuleAABBTest@Gu@physx@@@@@Z 000000018019a0b0 f i GuExtendedBucketPruner.obj
 0001:00199450       ??R?$AABBTreeOverlap@$00UCapsuleAABBTest@Gu@physx@@VAABBTree@23@UBVHNode@23@UOverlapCallbackAdapter@23@@Gu@physx@@QEAA_NAEBVAABBTreeBounds@12@AEBVAABBTree@12@AEBUCapsuleAABBTest@12@AEAUOverlapCallbackAdapter@12@@Z 000000018019a450 f i GuExtendedBucketPruner.obj
 0001:001997e0       ??R?$AABBTreeOverlap@$00USphereAABBTest@Gu@physx@@VAABBTree@23@UBVHNode@23@U?$MainTreeOverlapPrunerCallback@USphereAABBTest@Gu@physx@@@@@Gu@physx@@QEAA_NAEBVAABBTreeBounds@12@AEBVAABBTree@12@AEBUSphereAABBTest@12@AEAU?$MainTreeOverlapPrunerCallback@USphereAABBTest@Gu@physx@@@@@Z 000000018019a7e0 f i GuExtendedBucketPruner.obj
 0001:00199af0       ??R?$AABBTreeOverlap@$00USphereAABBTest@Gu@physx@@VAABBTree@23@UBVHNode@23@UOverlapCallbackAdapter@23@@Gu@physx@@QEAA_NAEBVAABBTreeBounds@12@AEBVAABBTree@12@AEBUSphereAABBTest@12@AEAUOverlapCallbackAdapter@12@@Z 000000018019aaf0 f i GuExtendedBucketPruner.obj
 0001:00199de0       ??R?$AABBTreeRaycast@$00$00VAABBTree@Gu@physx@@UBVHNode@23@U?$MainTreeRaycastPrunerCallback@$00@@@Gu@physx@@QEAA_NAEBVAABBTreeBounds@12@AEBVAABBTree@12@AEBV?$PxVec3T@M@2@2AEAM2AEAU?$MainTreeRaycastPrunerCallback@$00@@@Z 000000018019ade0 f i GuExtendedBucketPruner.obj
 0001:0019a500       ??R?$AABBTreeRaycast@$00$00VAABBTree@Gu@physx@@UBVHNode@23@URaycastCallbackAdapter@23@@Gu@physx@@QEAA_NAEBVAABBTreeBounds@12@AEBVAABBTree@12@AEBV?$PxVec3T@M@2@2AEAM2AEAURaycastCallbackAdapter@12@@Z 000000018019b500 f i GuExtendedBucketPruner.obj
 0001:0019abe0       ??R?$AABBTreeRaycast@$0A@$00VAABBTree@Gu@physx@@UBVHNode@23@U?$MainTreeRaycastPrunerCallback@$0A@@@@Gu@physx@@QEAA_NAEBVAABBTreeBounds@12@AEBVAABBTree@12@AEBV?$PxVec3T@M@2@2AEAM2AEAU?$MainTreeRaycastPrunerCallback@$0A@@@@Z 000000018019bbe0 f i GuExtendedBucketPruner.obj
 0001:0019b290       ??R?$AABBTreeRaycast@$0A@$00VAABBTree@Gu@physx@@UBVHNode@23@URaycastCallbackAdapter@23@@Gu@physx@@QEAA_NAEBVAABBTreeBounds@12@AEBVAABBTree@12@AEBV?$PxVec3T@M@2@2AEAM2AEAURaycastCallbackAdapter@12@@Z 000000018019c290 f i GuExtendedBucketPruner.obj
 0001:0019b900       ?addTree@ExtendedBucketPruner@Gu@physx@@QEAAXAEBVAABBTreeMergeData@23@I@Z 000000018019c900 f   GuExtendedBucketPruner.obj
 0001:0019ba80       ?buildMainAABBTree@ExtendedBucketPruner@Gu@physx@@AEAAXXZ 000000018019ca80 f   GuExtendedBucketPruner.obj
 0001:0019bb30       ?create@?$PxHashBase@V?$PxPair@$$CBUPrunerPayload@Gu@physx@@UExtendedBucketPrunerData@23@@physx@@UPrunerPayload@Gu@2@UExtendedBucketPrunerHash@42@UGetKey@?$PxHashMapBase@UPrunerPayload@Gu@physx@@UExtendedBucketPrunerData@23@UExtendedBucketPrunerHash@23@VPxAllocator@3@@2@VPxAllocator@2@$00@physx@@QEAAPEAV?$PxPair@$$CBUPrunerPayload@Gu@physx@@UExtendedBucketPrunerData@23@@2@AEBUPrunerPayload@Gu@2@AEA_N@Z 000000018019cb30 f i GuExtendedBucketPruner.obj
 0001:0019bd00       ?eraseInternal@?$PxHashBase@V?$PxPair@$$CBUPrunerPayload@Gu@physx@@UExtendedBucketPrunerData@23@@physx@@UPrunerPayload@Gu@2@UExtendedBucketPrunerHash@42@UGetKey@?$PxHashMapBase@UPrunerPayload@Gu@physx@@UExtendedBucketPrunerData@23@UExtendedBucketPrunerHash@23@VPxAllocator@3@@2@VPxAllocator@2@$00@physx@@AEAA_NPEAI@Z 000000018019cd00 f i GuExtendedBucketPruner.obj
 0001:0019be20       ?find@?$PxHashMapBase@UPrunerPayload@Gu@physx@@UExtendedBucketPrunerData@23@UExtendedBucketPrunerHash@23@VPxAllocator@3@@physx@@QEBAPEBV?$PxPair@$$CBUPrunerPayload@Gu@physx@@UExtendedBucketPrunerData@23@@2@AEBUPrunerPayload@Gu@2@@Z 000000018019ce20 f i GuExtendedBucketPruner.obj
 0001:0019bf10       ?getGlobalBounds@ExtendedBucketPruner@Gu@physx@@QEBAXAEAVPxBounds3@3@@Z 000000018019cf10 f   GuExtendedBucketPruner.obj
 0001:0019bfe0       ?invalidateObject@ExtendedBucketPruner@Gu@physx@@AEAAXAEBUExtendedBucketPrunerData@23@IAEBUPrunerPayload@23@I@Z 000000018019cfe0 f   GuExtendedBucketPruner.obj
 0001:0019c120       ?overlap@ExtendedBucketPruner@Gu@physx@@QEBA_NAEBVShapeData@23@AEAUPrunerOverlapCallback@23@@Z 000000018019d120 f   GuExtendedBucketPruner.obj
 0001:0019c8f0       ?raycast@ExtendedBucketPruner@Gu@physx@@QEBA_NAEBV?$PxVec3T@M@3@0AEAMAEAUPrunerRaycastCallback@23@@Z 000000018019d8f0 f   GuExtendedBucketPruner.obj
 0001:0019c9d0       ?refitMarkedNodes@ExtendedBucketPruner@Gu@physx@@QEAAXPEBVPxBounds3@3@@Z 000000018019d9d0 f   GuExtendedBucketPruner.obj
 0001:0019cec0       ?release@ExtendedBucketPruner@Gu@physx@@QEAAXXZ 000000018019dec0 f   GuExtendedBucketPruner.obj
 0001:0019cf90       ?removeMarkedObjects@ExtendedBucketPruner@Gu@physx@@QEAAII@Z 000000018019df90 f   GuExtendedBucketPruner.obj
 0001:0019d2b0       ?removeObject@ExtendedBucketPruner@Gu@physx@@QEAA_NAEBUPrunerPayload@23@II0I@Z 000000018019e2b0 f   GuExtendedBucketPruner.obj
 0001:0019d4a0       ?reserveInternal@?$PxHashBase@V?$PxPair@$$CBUPrunerPayload@Gu@physx@@UExtendedBucketPrunerData@23@@physx@@UPrunerPayload@Gu@2@UExtendedBucketPrunerHash@42@UGetKey@?$PxHashMapBase@UPrunerPayload@Gu@physx@@UExtendedBucketPrunerData@23@UExtendedBucketPrunerHash@23@VPxAllocator@3@@2@VPxAllocator@2@$00@physx@@AEAAXI@Z 000000018019e4a0 f i GuExtendedBucketPruner.obj
 0001:0019d6a0       ?resize@ExtendedBucketPruner@Gu@physx@@AEAAXI@Z 000000018019e6a0 f   GuExtendedBucketPruner.obj
 0001:0019d840       ?shiftOrigin@ExtendedBucketPruner@Gu@physx@@QEAAXAEBV?$PxVec3T@M@3@@Z 000000018019e840 f   GuExtendedBucketPruner.obj
 0001:0019d8c0       ?swapIndex@ExtendedBucketPruner@Gu@physx@@QEAAXIAEBUPrunerPayload@23@I_N@Z 000000018019e8c0 f   GuExtendedBucketPruner.obj
 0001:0019d990       ?sweep@ExtendedBucketPruner@Gu@physx@@QEBA_NAEBVShapeData@23@AEBV?$PxVec3T@M@3@AEAMAEAUPrunerRaycastCallback@23@@Z 000000018019e990 f   GuExtendedBucketPruner.obj
 0001:0019db20       ?updateObject@ExtendedBucketPruner@Gu@physx@@QEAA_NAEBVPxBounds3@3@AEBV?$PxTransformT@M@3@AEBUPrunerPayload@23@II@Z 000000018019eb20 f   GuExtendedBucketPruner.obj
 0001:0019dbf0       ?visualize@ExtendedBucketPruner@Gu@physx@@QEBAXAEAVPxRenderOutput@3@I@Z 000000018019ebf0 f   GuExtendedBucketPruner.obj
 0001:0019dc80       ??0?$OBBAABBTests@$00@Gu@physx@@QEAA@AEBV?$PxVec3T@M@2@AEBV?$PxMat33T@M@2@0@Z 000000018019ec80 f i GuSecondaryPruner.obj
 0001:0019fbf0       ??_ECompanionPruner@Gu@physx@@UEAAPEAXI@Z 00000001801a0bf0 f i GuSecondaryPruner.obj
 0001:0019fbf0       ??_GCompanionPruner@Gu@physx@@UEAAPEAXI@Z 00000001801a0bf0 f i GuSecondaryPruner.obj
 0001:0019fc40       ??_ECompanionPrunerAABBTree@@UEAAPEAXI@Z 00000001801a0c40 f i GuSecondaryPruner.obj
 0001:0019fc40       ??_GCompanionPrunerAABBTree@@UEAAPEAXI@Z 00000001801a0c40 f i GuSecondaryPruner.obj
 0001:0019fcf0       ??_ECompanionPrunerBucket@@UEAAPEAXI@Z 00000001801a0cf0 f i GuSecondaryPruner.obj
 0001:0019fcf0       ??_GCompanionPrunerBucket@@UEAAPEAXI@Z 00000001801a0cf0 f i GuSecondaryPruner.obj
 0001:0019fd70       ??_ECompanionPrunerIncremental@@UEAAPEAXI@Z 00000001801a0d70 f i GuSecondaryPruner.obj
 0001:0019fd70       ??_GCompanionPrunerIncremental@@UEAAPEAXI@Z 00000001801a0d70 f i GuSecondaryPruner.obj
 0001:0019fdf0       ?addObject@CompanionPrunerAABBTree@@UEAA_NAEBUPrunerPayload@Gu@physx@@IAEBVPxBounds3@4@AEBV?$PxTransformT@M@4@II@Z 00000001801a0df0 f   GuSecondaryPruner.obj
 0001:001a0040       ?addObject@CompanionPrunerBucket@@UEAA_NAEBUPrunerPayload@Gu@physx@@IAEBVPxBounds3@4@AEBV?$PxTransformT@M@4@II@Z 00000001801a1040 f i GuSecondaryPruner.obj
 0001:001a0060       ?addObject@CompanionPrunerIncremental@@UEAA_NAEBUPrunerPayload@Gu@physx@@IAEBVPxBounds3@4@AEBV?$PxTransformT@M@4@II@Z 00000001801a1060 f i GuSecondaryPruner.obj
 0001:001a0080       ?addObjectInternal@CompanionPrunerAABBTree@@QEAA_NII@Z 00000001801a1080 f   GuSecondaryPruner.obj
 0001:001a0230       ?build@CompanionPrunerAABBTree@@UEAAXXZ 00000001801a1230 f   GuSecondaryPruner.obj
 0001:001a0720       ?createCompanionPruner@Gu@physx@@YAPEAVCompanionPruner@12@_KW4CompanionPrunerType@12@PEBVPruningPool@12@@Z 00000001801a1720 f   GuSecondaryPruner.obj
 0001:001a0920       ?getGlobalBounds@CompanionPrunerAABBTree@@UEBAXAEAVPxBounds3@physx@@@Z 00000001801a1920 f   GuSecondaryPruner.obj
 0001:001a0a10       ?getGlobalBounds@CompanionPrunerBucket@@UEBAXAEAVPxBounds3@physx@@@Z 00000001801a1a10 f i GuSecondaryPruner.obj
 0001:001a0a20       ?getGlobalBounds@CompanionPrunerIncremental@@UEBAXAEAVPxBounds3@physx@@@Z 00000001801a1a20 f i GuSecondaryPruner.obj
 0001:001a0a30       ?getNbObjects@CompanionPrunerAABBTree@@UEBAIXZ 00000001801a1a30 f   GuSecondaryPruner.obj
 0001:001a0a40       ?getNbObjects@CompanionPrunerBucket@@UEBAIXZ 00000001801a1a40 f i GuSecondaryPruner.obj
 0001:001a0a50       ?getNbObjects@CompanionPrunerIncremental@@UEBAIXZ 00000001801a1a50 f i GuSecondaryPruner.obj
 0001:001a0a60       ?growAndPushBack@?$PxArray@ULocalData@CompanionPrunerAABBTree@@V?$PxReflectionAllocator@ULocalData@CompanionPrunerAABBTree@@@physx@@@physx@@IEAAAEAULocalData@CompanionPrunerAABBTree@@AEBU34@@Z 00000001801a1a60 f i GuSecondaryPruner.obj
 0001:001a0b70       ?overlap@CompanionPrunerAABBTree@@UEBA_NAEBVShapeData@Gu@physx@@AEAUPrunerOverlapCallback@34@@Z 00000001801a1b70 f   GuSecondaryPruner.obj
 0001:001a1af0       ?overlap@CompanionPrunerBucket@@UEBA_NAEBVShapeData@Gu@physx@@AEAUPrunerOverlapCallback@34@@Z 00000001801a2af0 f i GuSecondaryPruner.obj
 0001:001a1b10       ?overlap@CompanionPrunerIncremental@@UEBA_NAEBVShapeData@Gu@physx@@AEAUPrunerOverlapCallback@34@@Z 00000001801a2b10 f i GuSecondaryPruner.obj
 0001:001a1b30       ?raycast@CompanionPrunerAABBTree@@UEBA_NAEBV?$PxVec3T@M@physx@@0AEAMAEAUPrunerRaycastCallback@Gu@3@@Z 00000001801a2b30 f   GuSecondaryPruner.obj
 0001:001a1f00       ?raycast@CompanionPrunerBucket@@UEBA_NAEBV?$PxVec3T@M@physx@@0AEAMAEAUPrunerRaycastCallback@Gu@3@@Z 00000001801a2f00 f i GuSecondaryPruner.obj
 0001:001a1f20       ?raycast@CompanionPrunerIncremental@@UEBA_NAEBV?$PxVec3T@M@physx@@0AEAMAEAUPrunerRaycastCallback@Gu@3@@Z 00000001801a2f20 f i GuSecondaryPruner.obj
 0001:001a1f40       ?release@CompanionPrunerAABBTree@@UEAAXXZ 00000001801a2f40 f   GuSecondaryPruner.obj
 0001:001a1f50       ?release@CompanionPrunerBucket@@UEAAXXZ 00000001801a2f50 f i GuSecondaryPruner.obj
 0001:001a1f60       ?release@CompanionPrunerIncremental@@UEAAXXZ 00000001801a2f60 f i GuSecondaryPruner.obj
 0001:001a1f70       ?releaseInternal@CompanionPrunerAABBTree@@QEAAXXZ 00000001801a2f70 f   GuSecondaryPruner.obj
 0001:001a1ff0       ?removeMarkedObjects@CompanionPrunerAABBTree@@UEAAII@Z 00000001801a2ff0 f   GuSecondaryPruner.obj
 0001:001a2010       ?removeMarkedObjects@CompanionPrunerBucket@@UEAAII@Z 00000001801a3010 f i GuSecondaryPruner.obj
 0001:001a2020       ?removeMarkedObjects@CompanionPrunerIncremental@@UEAAII@Z 00000001801a3020 f i GuSecondaryPruner.obj
 0001:001a2030       ?removeObject@CompanionPrunerAABBTree@@UEAA_NAEBUPrunerPayload@Gu@physx@@III@Z 00000001801a3030 f   GuSecondaryPruner.obj
 0001:001a20d0       ?removeObject@CompanionPrunerBucket@@UEAA_NAEBUPrunerPayload@Gu@physx@@III@Z 00000001801a30d0 f i GuSecondaryPruner.obj
 0001:001a20f0       ?removeObject@CompanionPrunerIncremental@@UEAA_NAEBUPrunerPayload@Gu@physx@@III@Z 00000001801a30f0 f i GuSecondaryPruner.obj
 0001:001a2110       ?shiftOrigin@CompanionPrunerAABBTree@@UEAAXAEBV?$PxVec3T@M@physx@@@Z 00000001801a3110 f   GuSecondaryPruner.obj
 0001:001a2240       ?shiftOrigin@CompanionPrunerIncremental@@UEAAXAEBV?$PxVec3T@M@physx@@@Z 00000001801a3240 f i GuSecondaryPruner.obj
 0001:001a2250       ?swapIndex@CompanionPrunerIncremental@@UEAAXII@Z 00000001801a3250 f i GuSecondaryPruner.obj
 0001:001a2260       ?sweep@CompanionPrunerAABBTree@@UEBA_NAEBVShapeData@Gu@physx@@AEBV?$PxVec3T@M@4@AEAMAEAUPrunerRaycastCallback@34@@Z 00000001801a3260 f   GuSecondaryPruner.obj
 0001:001a2790       ?sweep@CompanionPrunerBucket@@UEBA_NAEBVShapeData@Gu@physx@@AEBV?$PxVec3T@M@4@AEAMAEAUPrunerRaycastCallback@34@@Z 00000001801a3790 f i GuSecondaryPruner.obj
 0001:001a27b0       ?sweep@CompanionPrunerIncremental@@UEBA_NAEBVShapeData@Gu@physx@@AEBV?$PxVec3T@M@4@AEAMAEAUPrunerRaycastCallback@34@@Z 00000001801a37b0 f i GuSecondaryPruner.obj
 0001:001a27d0       ?timeStampChange@CompanionPrunerIncremental@@UEAAXXZ 00000001801a37d0 f i GuSecondaryPruner.obj
 0001:001a27f0       ?updateObject@CompanionPrunerAABBTree@@UEAA_NAEBUPrunerPayload@Gu@physx@@IAEBVPxBounds3@4@AEBV?$PxTransformT@M@4@I@Z 00000001801a37f0 f   GuSecondaryPruner.obj
 0001:001a2870       ?updateObject@CompanionPrunerBucket@@UEAA_NAEBUPrunerPayload@Gu@physx@@IAEBVPxBounds3@4@AEBV?$PxTransformT@M@4@I@Z 00000001801a3870 f i GuSecondaryPruner.obj
 0001:001a2890       ?updateObject@CompanionPrunerIncremental@@UEAA_NAEBUPrunerPayload@Gu@physx@@IAEBVPxBounds3@4@AEBV?$PxTransformT@M@4@I@Z 00000001801a3890 f i GuSecondaryPruner.obj
 0001:001a28a0       ?visualize@CompanionPrunerAABBTree@@UEBAXAEAVPxRenderOutput@physx@@I@Z 00000001801a38a0 f   GuSecondaryPruner.obj
 0001:001a28c0       ?visualize@CompanionPrunerIncremental@@UEBAXAEAVPxRenderOutput@physx@@I@Z 00000001801a38c0 f i GuSecondaryPruner.obj
 0001:001a28d0       ??0AABBPruner@Gu@physx@@QEAA@_N_KW4CompanionPrunerType@12@W4BVHBuildStrategy@12@I@Z 00000001801a38d0 f   GuAABBPruner.obj
 0001:001a2a00       ??1AABBPruner@Gu@physx@@UEAA@XZ 00000001801a3a00 f   GuAABBPruner.obj
 0001:001a2b60       ??_EAABBPruner@Gu@physx@@UEAAPEAXI@Z 00000001801a3b60 f i GuAABBPruner.obj
 0001:001a2b60       ??_GAABBPruner@Gu@physx@@UEAAPEAXI@Z 00000001801a3b60 f i GuAABBPruner.obj
 0001:001a2bd0       ?addObjects@AABBPruner@Gu@physx@@UEAA_NPEAIPEBVPxBounds3@3@PEBUPrunerPayload@23@PEBV?$PxTransformT@M@3@I_N@Z 00000001801a3bd0 f   GuAABBPruner.obj
 0001:001a2d30       ?buildStep@AABBPruner@Gu@physx@@UEAA_N_N@Z 00000001801a3d30 f   GuAABBPruner.obj
 0001:001a2f60       ?commit@AABBPruner@Gu@physx@@UEAAXXZ 00000001801a3f60 f   GuAABBPruner.obj
 0001:001a3350       ?getGlobalBounds@AABBPruner@Gu@physx@@UEBAXAEAVPxBounds3@3@@Z 00000001801a4350 f   GuAABBPruner.obj
 0001:001a3490       ?getPayloadData@AABBPruner@Gu@physx@@UEBAAEBUPrunerPayload@23@IPEAUPrunerPayloadData@23@@Z 00000001801a4490 f i GuAABBPruner.obj
 0001:001a34f0       ?growAndPushBack@?$PxArray@UNewTreeFixup@AABBPruner@Gu@physx@@V?$PxReflectionAllocator@UNewTreeFixup@AABBPruner@Gu@physx@@@4@@physx@@IEAAAEAUNewTreeFixup@AABBPruner@Gu@2@AEBU3452@@Z 00000001801a44f0 f i GuAABBPruner.obj
 0001:001a3600       ?isDynamic@AABBPruner@Gu@physx@@UEBA_NXZ 00000001801a4600 f i GuAABBPruner.obj
 0001:001a3610       ?merge@AABBPruner@Gu@physx@@UEAAXPEBX@Z 00000001801a4610 f   GuAABBPruner.obj
 0001:001a3690       ?overlap@AABBPruner@Gu@physx@@UEBA_NAEBVShapeData@23@AEAUPrunerOverlapCallback@23@@Z 00000001801a4690 f   GuAABBPruner.obj
 0001:001a4040       ?preallocate@AABBPruner@Gu@physx@@UEAAXI@Z 00000001801a5040 f i GuAABBPruner.obj
 0001:001a4050       ?prepareBuild@AABBPruner@Gu@physx@@UEAA_NXZ 00000001801a5050 f   GuAABBPruner.obj
 0001:001a41e0       ?purge@AABBPruner@Gu@physx@@UEAAXXZ 00000001801a51e0 f   GuAABBPruner.obj
 0001:001a4200       ?raycast@AABBPruner@Gu@physx@@UEBA_NAEBV?$PxVec3T@M@3@0AEAMAEAUPrunerRaycastCallback@23@@Z 00000001801a5200 f   GuAABBPruner.obj
 0001:001a42f0       ?release@AABBPruner@Gu@physx@@QEAAXXZ 00000001801a52f0 f   GuAABBPruner.obj
 0001:001a4420       ?removeObjects@AABBPruner@Gu@physx@@UEAAXPEBIIPEAUPrunerPayloadRemovalCallback@23@@Z 00000001801a5420 f   GuAABBPruner.obj
 0001:001a4610       ?setRebuildRateHint@AABBPruner@Gu@physx@@UEAAXI@Z 00000001801a5610 f   GuAABBPruner.obj
 0001:001a4630       ?setTransform@AABBPruner@Gu@physx@@UEAA_NIAEBV?$PxTransformT@M@3@@Z 00000001801a5630 f i GuAABBPruner.obj
 0001:001a4690       ?shiftOrigin@AABBPruner@Gu@physx@@UEAAXAEBV?$PxVec3T@M@3@@Z 00000001801a5690 f   GuAABBPruner.obj
 0001:001a4700       ?sweep@AABBPruner@Gu@physx@@UEBA_NAEBVShapeData@23@AEBV?$PxVec3T@M@3@AEAMAEAUPrunerRaycastCallback@23@@Z 00000001801a5700 f   GuAABBPruner.obj
 0001:001a4890       ?updateObjects@AABBPruner@Gu@physx@@UEAAXPEBIIM0PEBVPxBounds3@3@PEBUPxTransformPadded@3@@Z 00000001801a5890 f   GuAABBPruner.obj
 0001:001a4a30       ?visualize@AABBPruner@Gu@physx@@UEBAXAEAVPxRenderOutput@3@II@Z 00000001801a5a30 f   GuAABBPruner.obj
 0001:001a4ae0       ??0ActorShapeMap@Gu@physx@@QEAA@XZ 00000001801a5ae0 f   GuActorShapeMap.obj
 0001:001a4b40       ??1ActorShapeMap@Gu@physx@@QEAA@XZ 00000001801a5b40 f   GuActorShapeMap.obj
 0001:001a4ba0       ?add@ActorShapeMap@Gu@physx@@QEAA_NIPEBX0_K@Z 00000001801a5ba0 f   GuActorShapeMap.obj
 0001:001a4d40       ?create@?$PxHashBase@V?$PxPair@$$CBUActorShape@ActorShapeMap@Gu@physx@@_K@physx@@UActorShape@ActorShapeMap@Gu@2@U?$PxHash@UActorShape@ActorShapeMap@Gu@physx@@@2@UGetKey@?$PxHashMapBase@UActorShape@ActorShapeMap@Gu@physx@@_KU?$PxHash@UActorShape@ActorShapeMap@Gu@physx@@@4@VPxAllocator@4@@2@VPxAllocator@2@$00@physx@@QEAAPEAV?$PxPair@$$CBUActorShape@ActorShapeMap@Gu@physx@@_K@2@AEBUActorShape@ActorShapeMap@Gu@2@AEA_N@Z 00000001801a5d40 f i GuActorShapeMap.obj
 0001:001a4f30       ?eraseInternal@?$PxHashBase@V?$PxPair@$$CBUActorShape@ActorShapeMap@Gu@physx@@_K@physx@@UActorShape@ActorShapeMap@Gu@2@U?$PxHash@UActorShape@ActorShapeMap@Gu@physx@@@2@UGetKey@?$PxHashMapBase@UActorShape@ActorShapeMap@Gu@physx@@_KU?$PxHash@UActorShape@ActorShapeMap@Gu@physx@@@4@VPxAllocator@4@@2@VPxAllocator@2@$00@physx@@AEAA_NPEAI@Z 00000001801a5f30 f i GuActorShapeMap.obj
 0001:001a5040       ?find@ActorShapeMap@Gu@physx@@QEBA_KIPEBX0@Z 00000001801a6040 f   GuActorShapeMap.obj
 0001:001a5130       ?remove@ActorShapeMap@Gu@physx@@QEAA_NIPEBX0PEA_K@Z 00000001801a6130 f   GuActorShapeMap.obj
 0001:001a5280       ?reserveInternal@?$PxHashBase@V?$PxPair@$$CBUActorShape@ActorShapeMap@Gu@physx@@_K@physx@@UActorShape@ActorShapeMap@Gu@2@U?$PxHash@UActorShape@ActorShapeMap@Gu@physx@@@2@UGetKey@?$PxHashMapBase@UActorShape@ActorShapeMap@Gu@physx@@_KU?$PxHash@UActorShape@ActorShapeMap@Gu@physx@@@4@VPxAllocator@4@@2@VPxAllocator@2@$00@physx@@AEAAXI@Z 00000001801a6280 f i GuActorShapeMap.obj
 0001:001a5490       ??0QuerySystem@Gu@physx@@QEAA@_KMAEBVAdapter@12@_N@Z 00000001801a6490 f   GuQuerySystem.obj
 0001:001a5560       ??1QuerySystem@Gu@physx@@QEAA@XZ 00000001801a6560 f   GuQuerySystem.obj
 0001:001a5780       ??_GPrunerExt@QuerySystem@Gu@physx@@QEAAPEAXI@Z 00000001801a6780 f i GuQuerySystem.obj
 0001:001a5890       ?addPruner@QuerySystem@Gu@physx@@QEAAIPEAVPruner@23@I@Z 00000001801a6890 f   GuQuerySystem.obj
 0001:001a59b0       ?addPrunerShape@QuerySystem@Gu@physx@@QEAA_KAEBUPrunerPayload@23@I_NAEBV?$PxTransformT@M@3@PEBVPxBounds3@3@@Z 00000001801a69b0 f   GuQuerySystem.obj
 0001:001a5af0       ?addToDirtyList@PrunerExt@QuerySystem@Gu@physx@@QEAAXIIAEBV?$PxTransformT@M@4@PEBVPxBounds3@4@@Z 00000001801a6af0 f   GuQuerySystem.obj
 0001:001a5d50       ?commitUpdates@QuerySystem@Gu@physx@@QEAAXXZ 00000001801a6d50 f   GuQuerySystem.obj
 0001:001a5e00       ?createTreeOfPruners@QuerySystem@Gu@physx@@QEAAXXZ 00000001801a6e00 f   GuQuerySystem.obj
 0001:001a5f60       ?flushMemory@QuerySystem@Gu@physx@@QEAAXXZ 00000001801a6f60 f   GuQuerySystem.obj
 0001:001a5ff0       ?getPayloadData@QuerySystem@Gu@physx@@QEBAAEBUPrunerPayload@23@_KPEAUPrunerPayloadData@23@@Z 00000001801a6ff0 f   GuQuerySystem.obj
 0001:001a6010       ?growAndPushBack@?$PxArray@PEAUPrunerExt@QuerySystem@Gu@physx@@V?$PxReflectionAllocator@PEAUPrunerExt@QuerySystem@Gu@physx@@@4@@physx@@IEAAAEAPEAUPrunerExt@QuerySystem@Gu@2@AEBQEAU3452@@Z 00000001801a7010 f i GuQuerySystem.obj
 0001:001a6120       ?overlap@QuerySystem@Gu@physx@@QEBAXAEBVShapeData@23@AEAUPrunerOverlapCallback@23@PEBVPrunerFilter@23@@Z 00000001801a7120 f   GuQuerySystem.obj
 0001:001a6220       ?processDirtyLists@QuerySystem@Gu@physx@@AEAAXXZ 00000001801a7220 f   GuQuerySystem.obj
 0001:001a6500       ?raycast@QuerySystem@Gu@physx@@QEBAXAEBV?$PxVec3T@M@3@0AEAMAEAUPrunerRaycastCallback@23@PEBVPrunerFilter@23@@Z 00000001801a7500 f   GuQuerySystem.obj
 0001:001a6640       ?recreate@?$PxArray@UData@PrunerExt@QuerySystem@Gu@physx@@V?$PxReflectionAllocator@UData@PrunerExt@QuerySystem@Gu@physx@@@5@@physx@@IEAAXI@Z 00000001801a7640 f i GuQuerySystem.obj
 0001:001a6920       ?removePruner@QuerySystem@Gu@physx@@QEAAXI@Z 00000001801a7920 f   GuQuerySystem.obj
 0001:001a6a00       ?removePrunerShape@QuerySystem@Gu@physx@@QEAAX_KPEAUPrunerPayloadRemovalCallback@23@@Z 00000001801a7a00 f   GuQuerySystem.obj
 0001:001a6c30       ?sweep@QuerySystem@Gu@physx@@QEBAXAEBVShapeData@23@AEBV?$PxVec3T@M@3@AEAMAEAUPrunerRaycastCallback@23@PEBVPrunerFilter@23@@Z 00000001801a7c30 f   GuQuerySystem.obj
 0001:001a6d60       ?sync@QuerySystem@Gu@physx@@QEAAXIPEBI0PEBVPxBounds3@3@PEBUPxTransformPadded@3@I@Z 00000001801a7d60 f   GuQuerySystem.obj
 0001:001a6e10       ?update@QuerySystem@Gu@physx@@QEAAX_N0@Z 00000001801a7e10 f   GuQuerySystem.obj
 0001:001a6ee0       ?updatePrunerShape@QuerySystem@Gu@physx@@QEAAX_K_NAEBV?$PxTransformT@M@3@PEBVPxBounds3@3@@Z 00000001801a7ee0 f   GuQuerySystem.obj
 0001:001a70d0       createAABBPruner           00000001801a80d0 f   GuFactory.obj
 0001:001a7190       createBucketPruner         00000001801a8190 f   GuFactory.obj
 0001:001a7220       createIncrementalPruner    00000001801a8220 f   GuFactory.obj
 0001:001a72b0       ??$PxSmallSort@I$$CBUSortBoundsPredicate@physx@@@physx@@YAXPEAIHHAEBUSortBoundsPredicate@0@@Z 00000001801a82b0 f i GuRTreeCooking.obj
 0001:001a7560       ??$PxSort@IU?$PxLess@I@physx@@V?$PxReflectionAllocator@I@2@@physx@@YAXPEAIIAEBU?$PxLess@I@0@AEBV?$PxReflectionAllocator@I@0@I@Z 00000001801a8560 f i GuRTreeCooking.obj
 0001:001a79a0       ??$PxSort@IUSortBoundsPredicate@physx@@V?$PxReflectionAllocator@I@2@@physx@@YAXPEAIIAEBUSortBoundsPredicate@0@AEBV?$PxReflectionAllocator@I@0@I@Z 00000001801a89a0 f i GuRTreeCooking.obj
 0001:001a7e50       ??$quickSelectFirstK@UBoundsLTE@physx@@@quickSelect@physx@@YAXPEIAIIIIAEBUBoundsLTE@1@@Z 00000001801a8e50 f i GuRTreeCooking.obj
 0001:001a8d00       ?buildFromTriangles@RTreeCooker@physx@@SAXAEAURTree@Gu@2@PEBV?$PxVec3T@M@2@IPEBGPEBIIAEAV?$PxArray@IV?$PxReflectionAllocator@I@physx@@@2@PEAURemapCallback@12@MW4Enum@PxMeshCookingHint@2@@Z 00000001801a9d00 f   GuRTreeCooking.obj
 0001:001a8fc0       ?copy@?$PxArray@URTreeNodeNQ@physx@@V?$PxReflectionAllocator@URTreeNodeNQ@physx@@@2@@physx@@KAXPEAURTreeNodeNQ@2@0PEBU32@@Z 00000001801a9fc0 f i GuRTreeCooking.obj
 0001:001a9180       ?growAndPushBack@?$PxArray@UInterval@physx@@V?$PxInlineAllocator@$0CAAA@V?$PxReflectionAllocator@UInterval@physx@@@physx@@@2@@physx@@IEAAAEAUInterval@2@AEBU32@@Z 00000001801aa180 f i GuRTreeCooking.obj
 0001:001a92f0       ?growAndPushBack@?$PxArray@UPxBounds3V@physx@@V?$PxReflectionAllocator@UPxBounds3V@physx@@@2@@physx@@IEAAAEAUPxBounds3V@2@AEBU32@@Z 00000001801aa2f0 f i GuRTreeCooking.obj
 0001:001a9420       ?growAndPushBack@?$PxArray@URTreeNodeNQ@physx@@V?$PxReflectionAllocator@URTreeNodeNQ@physx@@@2@@physx@@IEAAAEAURTreeNodeNQ@2@AEBU32@@Z 00000001801aa420 f i GuRTreeCooking.obj
 0001:001a9560       ?growAndPushBack@?$PxArray@URTreeNodeQ@Gu@physx@@V?$PxReflectionAllocator@URTreeNodeQ@Gu@physx@@@3@@physx@@IEAAAEAURTreeNodeQ@Gu@2@AEBU342@@Z 00000001801aa560 f i GuRTreeCooking.obj
 0001:001a96a0       ?recreate@?$PxArray@UPxBounds3V@physx@@V?$PxReflectionAllocator@UPxBounds3V@physx@@@2@@physx@@IEAAXI@Z 00000001801aa6a0 f i GuRTreeCooking.obj
 0001:001a97a0       ?recreate@?$PxArray@URTreeNodeNQ@physx@@V?$PxReflectionAllocator@URTreeNodeNQ@physx@@@2@@physx@@IEAAXI@Z 00000001801aa7a0 f i GuRTreeCooking.obj
 0001:001a9880       ?recreate@?$PxArray@URTreeNodeQ@Gu@physx@@V?$PxReflectionAllocator@URTreeNodeQ@Gu@physx@@@3@@physx@@IEAAXI@Z 00000001801aa880 f i GuRTreeCooking.obj
 0001:001a9980       ?resizeUninitialized@?$PxArray@URTreeNodeNQ@physx@@V?$PxReflectionAllocator@URTreeNodeNQ@physx@@@2@@physx@@QEAAXI@Z 00000001801aa980 f i GuRTreeCooking.obj
 0001:001a99c0       ?sort4@SubSortQuick@physx@@QEAAXPEIAIIAEAV?$PxArray@URTreeNodeNQ@physx@@V?$PxReflectionAllocator@URTreeNodeNQ@physx@@@2@@2@AEAIAEAUPxBounds3V@2@I@Z 00000001801aa9c0 f i GuRTreeCooking.obj
 0001:001a9d50       ?sort4@SubSortSAH@physx@@QEAAXPEAIIAEAV?$PxArray@URTreeNodeNQ@physx@@V?$PxReflectionAllocator@URTreeNodeNQ@physx@@@2@@2@AEAIIPEAURTreeNodeNQ@2@@Z 00000001801aad50 f i GuRTreeCooking.obj
 0001:001aa610       ?split@SubSortSAH@physx@@QEAAIPEAII@Z 00000001801ab610 f i GuRTreeCooking.obj
 0001:001ab0e0       cookBVH                    00000001801ac0e0 f   GuCookingBVH.obj
 0001:001ab270       createBVH                  00000001801ac270 f   GuCookingBVH.obj
 0001:001ab400       cookHeightField            00000001801ac400 f   GuCookingHF.obj
 0001:001ab510       createHeightField          00000001801ac510 f   GuCookingHF.obj
 0001:001abb70       ?isFinite@?$PxVec3T@M@physx@@QEBA_NXZ 00000001801acb70 f i GuCookingConvexMesh.obj
 0001:001abbd0       computeHullPolygons        00000001801acbd0 f   GuCookingConvexMesh.obj
 0001:001abdb0       cookConvexMesh             00000001801acdb0 f   GuCookingConvexMesh.obj
 0001:001abef0       createConvexMesh           00000001801acef0 f   GuCookingConvexMesh.obj
 0001:001ac070       validateConvexMesh         00000001801ad070 f   GuCookingConvexMesh.obj
 0001:001ac190       ??1BV4TriangleMeshBuilder@physx@@UEAA@XZ 00000001801ad190 f   GuCookingTriangleMesh.obj
 0001:001ac220       ??1RTreeTriangleMeshBuilder@physx@@UEAA@XZ 00000001801ad220 f   GuCookingTriangleMesh.obj
 0001:001ac290       ??_EBV4TriangleMeshBuilder@physx@@UEAAPEAXI@Z 00000001801ad290 f i GuCookingTriangleMesh.obj
 0001:001ac290       ??_GBV4TriangleMeshBuilder@physx@@UEAAPEAXI@Z 00000001801ad290 f i GuCookingTriangleMesh.obj
 0001:001ac2d0       ??_ERTreeTriangleMeshBuilder@physx@@UEAAPEAXI@Z 00000001801ad2d0 f i GuCookingTriangleMesh.obj
 0001:001ac2d0       ??_GRTreeTriangleMeshBuilder@physx@@UEAAPEAXI@Z 00000001801ad2d0 f i GuCookingTriangleMesh.obj
 0001:001ac310       ??_ETriangleMeshBuilder@physx@@UEAAPEAXI@Z 00000001801ad310 f i GuCookingTriangleMesh.obj
 0001:001ac310       ??_GTriangleMeshBuilder@physx@@UEAAPEAXI@Z 00000001801ad310 f i GuCookingTriangleMesh.obj
 0001:001accc0       ?buildInertiaTensor@TriangleMeshBuilder@physx@@IEAAX_N@Z 00000001801adcc0 f   GuCookingTriangleMesh.obj
 0001:001acde0       ?buildInertiaTensorFromSDF@TriangleMeshBuilder@physx@@IEAAXXZ 00000001801adde0 f   GuCookingTriangleMesh.obj
 0001:001acfe0       ?cleanMesh@TriangleMeshBuilder@physx@@QEAA_N_NPEAW4Enum@PxTriangleMeshCookingResult@2@@Z 00000001801adfe0 f   GuCookingTriangleMesh.obj
 0001:001ad4d0       ?createGRBMidPhaseAndData@TriangleMeshBuilder@physx@@QEAA_NI@Z 00000001801ae4d0 f   GuCookingTriangleMesh.obj
 0001:001ad680       ?createMidPhaseStructure@BV32TriangleMeshBuilder@physx@@SA_NAEBUPxCookingParams@2@AEAVTriangleMeshData@Gu@2@AEAVBV32Tree@52@@Z 00000001801ae680 f   GuCookingTriangleMesh.obj
 0001:001ad8d0       ?createMidPhaseStructure@BV4TriangleMeshBuilder@physx@@UEAA_NXZ 00000001801ae8d0 f   GuCookingTriangleMesh.obj
 0001:001adb90       ?createMidPhaseStructure@RTreeTriangleMeshBuilder@physx@@UEAA_NXZ 00000001801aeb90 f   GuCookingTriangleMesh.obj
 0001:001adc80       ?createSharedEdgeData@TriangleMeshBuilder@physx@@QEAAX_N0@Z 00000001801aec80 f   GuCookingTriangleMesh.obj
 0001:001ae300       ?createVertMapping@TriangleMeshBuilder@physx@@QEAAXXZ 00000001801af300 f   GuCookingTriangleMesh.obj
 0001:001ae670       ?importMesh@TriangleMeshBuilder@physx@@IEAA_NAEBVPxTriangleMeshDesc@2@PEAW4Enum@PxTriangleMeshCookingResult@2@_N@Z 00000001801af670 f   GuCookingTriangleMesh.obj
 0001:001aebc0       ?isValid@PxTriangleMeshDesc@physx@@QEBA_NXZ 00000001801afbc0 f i GuCookingTriangleMesh.obj
 0001:001aec90       ?loadFromDescInternal@TriangleMeshBuilder@physx@@IEAA_NAEAVPxTriangleMeshDesc@2@PEAW4Enum@PxTriangleMeshCookingResult@2@_N@Z 00000001801afc90 f   GuCookingTriangleMesh.obj
 0001:001aeeb0       ?onMeshIndexFormatChange@BV4TriangleMeshBuilder@physx@@UEAAXXZ 00000001801afeb0 f   GuCookingTriangleMesh.obj
 0001:001aeef0       ?remap@RTreeCookerRemap@@UEAAXPEAIII@Z 00000001801afef0 f i GuCookingTriangleMesh.obj
 0001:001aef10       ?remapTopology@TriangleMeshBuilder@physx@@QEAAXPEBI@Z 00000001801aff10 f   GuCookingTriangleMesh.obj
 0001:001af1b0       ?save@TriangleMeshBuilder@physx@@QEBA_NAEAVPxOutputStream@2@_NAEBUPxCookingParams@2@@Z 00000001801b01b0 f   GuCookingTriangleMesh.obj
 0001:001af960       ?saveMidPhaseStructure@BV32TriangleMeshBuilder@physx@@SAXPEAVBV32Tree@Gu@2@AEAVPxOutputStream@2@_N@Z 00000001801b0960 f   GuCookingTriangleMesh.obj
 0001:001afb60       ?saveMidPhaseStructure@BV4TriangleMeshBuilder@physx@@UEBAXAEAVPxOutputStream@2@_N@Z 00000001801b0b60 f   GuCookingTriangleMesh.obj
 0001:001afd10       ?saveMidPhaseStructure@RTreeTriangleMeshBuilder@physx@@UEBAXAEAVPxOutputStream@2@_N@Z 00000001801b0d10 f   GuCookingTriangleMesh.obj
 0001:001aff50       cookTriangleMesh           00000001801b0f50 f   GuCookingTriangleMesh.obj
 0001:001b0230       createTriangleMesh         00000001801b1230 f   GuCookingTriangleMesh.obj
 0001:001b0450       validateTriangleMesh       00000001801b1450 f   GuCookingTriangleMesh.obj
 0001:001b06e0       ??0DeformableVolumeCollisionData@Gu@physx@@QEAA@XZ 00000001801b16e0 f i GuCookingTetrahedronMesh.obj
 0001:001b0740       ??_ECollisionTetrahedronMeshData@Gu@physx@@UEAAPEAXI@Z 00000001801b1740 f i GuCookingTetrahedronMesh.obj
 0001:001b0740       ??_GCollisionTetrahedronMeshData@Gu@physx@@UEAAPEAXI@Z 00000001801b1740 f i GuCookingTetrahedronMesh.obj
 0001:001b0810       ??_EPxCollisionTetrahedronMeshData@physx@@UEAAPEAXI@Z 00000001801b1810 f i GuCookingTetrahedronMesh.obj
 0001:001b0810       ??_GPxCollisionTetrahedronMeshData@physx@@UEAAPEAXI@Z 00000001801b1810 f i GuCookingTetrahedronMesh.obj
 0001:001b0860       ??_EPxSimulationTetrahedronMeshData@physx@@UEAAPEAXI@Z 00000001801b1860 f i GuCookingTetrahedronMesh.obj
 0001:001b0860       ??_GPxSimulationTetrahedronMeshData@physx@@UEAAPEAXI@Z 00000001801b1860 f i GuCookingTetrahedronMesh.obj
 0001:001b08b0       ??_ESimulationTetrahedronMeshData@Gu@physx@@UEAAPEAXI@Z 00000001801b18b0 f i GuCookingTetrahedronMesh.obj
 0001:001b08b0       ??_GSimulationTetrahedronMeshData@Gu@physx@@UEAAPEAXI@Z 00000001801b18b0 f i GuCookingTetrahedronMesh.obj
 0001:001b0980       ?PointOutsideOfPlane4@Gu@physx@@YA?AV?$PxVec4T@M@2@AEBV?$PxVec3T@M@2@0000@Z 00000001801b1980 f i GuCookingTetrahedronMesh.obj
 0001:001b0df0       ?combineGridModelPartitions@@YAXAEBVTetrahedronMeshData@Gu@physx@@AEAVDeformableVolumeSimulationData@23@PEAPEAI@Z 00000001801b1df0 f   GuCookingTetrahedronMesh.obj
 0001:001b1630       ?combineGridModelPartitionsHexMesh_parallelGS@@YAXAEBVTetrahedronMeshData@Gu@physx@@AEAVDeformableVolumeSimulationData@23@PEAPEAI@Z 00000001801b2630 f   GuCookingTetrahedronMesh.obj
 0001:001b1950       ?computeCollisionData@TetrahedronMeshBuilder@physx@@SA_NAEBVPxTetrahedronMeshDesc@2@AEAVTetrahedronMeshData@Gu@2@AEAVDeformableVolumeCollisionData@52@AEBUPxCookingParams@2@_N@Z 00000001801b2950 f   GuCookingTetrahedronMesh.obj
 0001:001b1b90       ?computeGridModelTetrahedronPartitions@@YAPEAIAEBVTetrahedronMeshData@Gu@physx@@AEAVDeformableVolumeSimulationData@23@@Z 00000001801b2b90 f   GuCookingTetrahedronMesh.obj
 0001:001b2060       ?computeGridModelVoxelPartitions@@YAPEAIAEBVTetrahedronMeshData@Gu@physx@@AEAVDeformableVolumeSimulationData@23@@Z 00000001801b3060 f   GuCookingTetrahedronMesh.obj
 0001:001b2890       ?computeModelsMapping@TetrahedronMeshBuilder@physx@@SAXAEAVTetrahedronMeshData@Gu@2@AEBV342@AEBVDeformableVolumeCollisionData@42@AEAVCollisionMeshMappingData@42@_NPEBUPxBoundedData@2@@Z 00000001801b3890 f   GuCookingTetrahedronMesh.obj
 0001:001b34a0       ?computeRestPoseAndPointMass@@YAXPEAU?$TetrahedronT@I@Gu@physx@@IPEBV?$PxVec3T@M@3@PEAMPEAV?$PxMat33T@M@3@@Z 00000001801b44a0 f   GuCookingTetrahedronMesh.obj
 0001:001b39d0       ?computeSimData@TetrahedronMeshBuilder@physx@@SAXAEBVPxTetrahedronMeshDesc@2@AEAVTetrahedronMeshData@Gu@2@AEAVDeformableVolumeSimulationData@52@AEBUPxCookingParams@2@@Z 00000001801b49d0 f   GuCookingTetrahedronMesh.obj
 0001:001b40c0       ?computeTetData@TetrahedronMeshBuilder@physx@@SAXAEBVPxTetrahedronMeshDesc@2@AEAVTetrahedronMeshData@Gu@2@@Z 00000001801b50c0 f   GuCookingTetrahedronMesh.obj
 0001:001b41b0       ?computeTetrahedronPartition@@YAIPEBU?$TetrahedronT@I@Gu@physx@@IPEAII@Z 00000001801b51b0 f   GuCookingTetrahedronMesh.obj
 0001:001b42a0       ?create@?$PxHashBase@IIU?$PxHash@I@physx@@UGetKey@?$PxHashSetBase@IU?$PxHash@I@physx@@VPxAllocator@2@$0A@@2@VPxAllocator@2@$0A@@physx@@QEAAPEAIAEBIAEA_N@Z 00000001801b52a0 f i GuCookingTetrahedronMesh.obj
 0001:001b4420       ?createCollisionModelMapping@TetrahedronMeshBuilder@physx@@SAXAEBVTetrahedronMeshData@Gu@2@AEBVDeformableVolumeCollisionData@42@AEAVCollisionMeshMappingData@42@@Z 00000001801b5420 f   GuCookingTetrahedronMesh.obj
 0001:001b4a10       ?createGRBMidPhaseAndData@TetrahedronMeshBuilder@physx@@SA_NIAEAVTetrahedronMeshData@Gu@2@AEAVDeformableVolumeCollisionData@42@AEBUPxCookingParams@2@@Z 00000001801b5a10 f   GuCookingTetrahedronMesh.obj
 0001:001b5770       ?createMidPhaseStructure@BV32TetrahedronMeshBuilder@physx@@SA_NAEBUPxCookingParams@2@AEAVTetrahedronMeshData@Gu@2@AEAVBV32Tree@52@AEAVDeformableVolumeCollisionData@52@@Z 00000001801b6770 f   GuCookingTetrahedronMesh.obj
 0001:001b5a40       ?createMidPhaseStructure@TetrahedronMeshBuilder@physx@@SA_NAEAVTetrahedronMeshData@Gu@2@AEAVDeformableVolumeCollisionData@42@AEBUPxCookingParams@2@@Z 00000001801b6a40 f   GuCookingTetrahedronMesh.obj
 0001:001b6710       ?getData@CollisionTetrahedronMeshData@Gu@physx@@UEAAPEAVPxDeformableVolumeCollisionData@3@XZ 00000001801b7710 f i GuCookingTetrahedronMesh.obj
 0001:001b6710       ?getData@CollisionTetrahedronMeshData@Gu@physx@@UEBAPEBVPxDeformableVolumeCollisionData@3@XZ 00000001801b7710 f i GuCookingTetrahedronMesh.obj
 0001:001b6710       ?getData@SimulationTetrahedronMeshData@Gu@physx@@UEAAPEAVPxDeformableVolumeSimulationData@3@XZ 00000001801b7710 f i GuCookingTetrahedronMesh.obj
 0001:001b6730       ?importMesh@TetrahedronMeshBuilder@physx@@SA_NAEBVPxTetrahedronMeshDesc@2@AEBUPxCookingParams@2@AEAVTetrahedronMeshData@Gu@2@AEAVDeformableVolumeCollisionData@62@_N@Z 00000001801b7730 f   GuCookingTetrahedronMesh.obj
 0001:001b6a30       ?isValid@PxTetrahedronMeshDesc@physx@@QEBA_NXZ 00000001801b7a30 f i GuCookingTetrahedronMesh.obj
 0001:001b6ab0       ?loadFromDesc@TetrahedronMeshBuilder@physx@@SA_NAEBVPxTetrahedronMeshDesc@2@0VPxDeformableVolumeSimulationDataDesc@2@AEAVTetrahedronMeshData@Gu@2@AEAVDeformableVolumeSimulationData@62@2AEAVDeformableVolumeCollisionData@62@AEAVCollisionMeshMappingData@62@AEBUPxCookingParams@2@_N@Z 00000001801b7ab0 f   GuCookingTetrahedronMesh.obj
 0001:001b6c20       ?recreate@?$PxArray@V?$PxArray@IV?$PxReflectionAllocator@I@physx@@@physx@@V?$PxReflectionAllocator@V?$PxArray@IV?$PxReflectionAllocator@I@physx@@@physx@@@2@@physx@@IEAAXI@Z 00000001801b7c20 f i GuCookingTetrahedronMesh.obj
 0001:001b6d30       ?release@CollisionTetrahedronMeshData@Gu@physx@@UEAAXXZ 00000001801b7d30 f i GuCookingTetrahedronMesh.obj
 0001:001b6d50       ?reserveInternal@?$PxHashBase@IIU?$PxHash@I@physx@@UGetKey@?$PxHashSetBase@IU?$PxHash@I@physx@@VPxAllocator@2@$0A@@2@VPxAllocator@2@$0A@@physx@@AEAAXI@Z 00000001801b7d50 f i GuCookingTetrahedronMesh.obj
 0001:001b7120       ?reserveInternal@?$PxHashBase@V?$PxPair@$$CBVSortedTriangleInds@@I@physx@@VSortedTriangleInds@@USortedTriangleIndsHash@@UGetKey@?$PxHashMapBase@VSortedTriangleInds@@IUSortedTriangleIndsHash@@VPxAllocator@physx@@@2@VPxAllocator@2@$00@physx@@AEAAXI@Z 00000001801b8120 f i GuCookingTetrahedronMesh.obj
 0001:001b7370       ?resize@?$PxArray@V?$PxArray@IV?$PxReflectionAllocator@I@physx@@@physx@@V?$PxReflectionAllocator@V?$PxArray@IV?$PxReflectionAllocator@I@physx@@@physx@@@2@@physx@@QEAAXIAEBV?$PxArray@IV?$PxReflectionAllocator@I@physx@@@2@@Z 00000001801b8370 f i GuCookingTetrahedronMesh.obj
 0001:001b7410       ?saveDeformableVolumeMeshData@TetrahedronMeshBuilder@physx@@SA_NAEAVPxOutputStream@2@_NAEBUPxCookingParams@2@AEBVTetrahedronMeshData@Gu@2@AEBVDeformableVolumeSimulationData@62@3AEBVDeformableVolumeCollisionData@62@AEBVCollisionMeshMappingData@62@@Z 00000001801b8410 f   GuCookingTetrahedronMesh.obj
 0001:001b7b40       ?saveTetrahedronMeshData@TetrahedronMeshBuilder@physx@@SA_NAEAVPxOutputStream@2@_NAEBUPxCookingParams@2@AEBVTetrahedronMeshData@Gu@2@@Z 00000001801b8b40 f   GuCookingTetrahedronMesh.obj
 0001:001b7cf0       ?smoothMassRatiosWhilePreservingTotalMass@@YAXPEAMIPEBIHMM@Z 00000001801b8cf0 f   GuCookingTetrahedronMesh.obj
 0001:001b8190       ?support@?$LocalConvex@VTetrahedronV@Gu@physx@@@Gu@physx@@UEBA?AT__m128@@AEBT4@@Z 00000001801b9190 f i GuCookingTetrahedronMesh.obj
 0001:001b8250       ?support@?$LocalConvex@VTetrahedronV@Gu@physx@@@Gu@physx@@UEBA?AT__m128@@AEBT4@AEAH@Z 00000001801b9250 f i GuCookingTetrahedronMesh.obj
 0001:001b8400       assembleDeformableVolumeMesh 00000001801b9400 f   GuCookingTetrahedronMesh.obj
 0001:001b8460       computeCollisionData       00000001801b9460 f   GuCookingTetrahedronMesh.obj
 0001:001b8660       computeModelsMapping       00000001801b9660 f   GuCookingTetrahedronMesh.obj
 0001:001b8760       computeSimulationData      00000001801b9760 f   GuCookingTetrahedronMesh.obj
 0001:001b8930       cookDeformableVolumeMesh   00000001801b9930 f   GuCookingTetrahedronMesh.obj
 0001:001b8f40       cookTetrahedronMesh        00000001801b9f40 f   GuCookingTetrahedronMesh.obj
 0001:001b9030       createDeformableVolumeMesh 00000001801ba030 f   GuCookingTetrahedronMesh.obj
 0001:001b96c0       createTetrahedronMesh      00000001801ba6c0 f   GuCookingTetrahedronMesh.obj
 0001:001bb3a0       ?computeVolumeIntegrals@physx@@YA_NAEBVPxSimpleTriangleMesh@1@MAEAUPxIntegrals@1@@Z 00000001801bc3a0 f   GuCookingVolumeIntegration.obj
 0001:001bb3e0       ?computeVolumeIntegralsEberly@physx@@YA_NAEBVPxConvexMeshDesc@1@MAEAUPxIntegrals@1@AEBV?$PxVec3T@M@1@_N@Z 00000001801bc3e0 f   GuCookingVolumeIntegration.obj
 0001:001bba40       ??0QuickHull@local@@QEAA@AEBUPxCookingParams@physx@@AEBVPxConvexMeshDesc@3@@Z 00000001801bca40 f   GuCookingQuickHullConvexHullLib.obj
 0001:001bbaf0       ??0QuickHullConvexHullLib@physx@@QEAA@AEBVPxConvexMeshDesc@1@AEBUPxCookingParams@1@@Z 00000001801bcaf0 f   GuCookingQuickHullConvexHullLib.obj
 0001:001bbbd0       ??1?$MemBlock@UQuickHullFace@local@@$00@local@@QEAA@XZ 00000001801bcbd0 f i GuCookingQuickHullConvexHullLib.obj
 0001:001bbbd0       ??1?$MemBlock@UQuickHullHalfEdge@local@@$0A@@local@@QEAA@XZ 00000001801bcbd0 f i GuCookingQuickHullConvexHullLib.obj
 0001:001bbc90       ??1QuickHull@local@@QEAA@XZ 00000001801bcc90 f   GuCookingQuickHullConvexHullLib.obj
 0001:001bbdf0       ??_GConvexHull@physx@@QEAAPEAXI@Z 00000001801bcdf0 f i GuCookingQuickHullConvexHullLib.obj
 0001:001bbee0       ??_EConvexHullLib@physx@@UEAAPEAXI@Z 00000001801bcee0 f i GuCookingQuickHullConvexHullLib.obj
 0001:001bbee0       ??_GConvexHullLib@physx@@UEAAPEAXI@Z 00000001801bcee0 f i GuCookingQuickHullConvexHullLib.obj
 0001:001bbf20       ??_EQuickHullConvexHullLib@physx@@UEAAPEAXI@Z 00000001801bcf20 f i GuCookingQuickHullConvexHullLib.obj
 0001:001bbf20       ??_GQuickHullConvexHullLib@physx@@UEAAPEAXI@Z 00000001801bcf20 f i GuCookingQuickHullConvexHullLib.obj
 0001:001bc040       ?addPointToHull@QuickHull@local@@IEAA_NPEBUQuickHullVertex@2@AEAUQuickHullFace@2@AEA_N@Z 00000001801bd040 f   GuCookingQuickHullConvexHullLib.obj
 0001:001bc310       ?addSimplex@QuickHull@local@@IEAA_NPEAUQuickHullVertex@2@_N@Z 00000001801bd310 f   GuCookingQuickHullConvexHullLib.obj
 0001:001bc890       ?buildHull@QuickHull@local@@QEAA?AW4Enum@QuickHullResult@2@XZ 00000001801bd890 f   GuCookingQuickHullConvexHullLib.obj
 0001:001bcae0       ?calculateHorizon@QuickHull@local@@IEAAXAEBV?$PxVec3T@M@physx@@PEAUQuickHullHalfEdge@2@AEAUQuickHullFace@2@AEAV?$PxArray@PEAUQuickHullHalfEdge@local@@V?$PxReflectionAllocator@PEAUQuickHullHalfEdge@local@@@physx@@@4@AEAV?$PxArray@PEAUQuickHullFace@local@@V?$PxReflectionAllocator@PEAUQuickHullFace@local@@@physx@@@4@@Z 00000001801bdae0 f   GuCookingQuickHullConvexHullLib.obj
 0001:001bcc90       ?canMergeFaces@QuickHull@local@@IEAA_NAEBUQuickHullHalfEdge@2@@Z 00000001801bdc90 f   GuCookingQuickHullConvexHullLib.obj
 0001:001bd4d0       ?cleanupForSimplex@QuickHullConvexHullLib@physx@@IEAA_NPEAV?$PxVec3T@M@2@IPEAUQuickHullVertex@local@@1AEAM2@Z 00000001801be4d0 f   GuCookingQuickHullConvexHullLib.obj
 0001:001be120       ?computeMinMaxVerts@QuickHull@local@@IEAAXXZ 00000001801bf120 f   GuCookingQuickHullConvexHullLib.obj
 0001:001be4f0       ?connectHalfEdges@QuickHullFace@local@@AEAAPEAU12@PEAUQuickHullHalfEdge@2@0@Z 00000001801bf4f0 f   GuCookingQuickHullConvexHullLib.obj
 0001:001be860       ?copy@?$PxArray@UExpandPoint@local@@V?$PxReflectionAllocator@UExpandPoint@local@@@physx@@@physx@@KAXPEAUExpandPoint@local@@0PEBU34@@Z 00000001801bf860 f i GuCookingQuickHullConvexHullLib.obj
 0001:001be910       ?copy@?$PxArray@VPxPlane@physx@@V?$PxReflectionAllocator@VPxPlane@physx@@@2@@physx@@KAXPEAVPxPlane@2@0PEBV32@@Z 00000001801bf910 f i GuCookingQuickHullConvexHullLib.obj
 0001:001bea10       ?createConvexHull@QuickHullConvexHullLib@physx@@UEAA?AW4Enum@PxConvexMeshCookingResult@2@XZ 00000001801bfa10 f   GuCookingQuickHullConvexHullLib.obj
 0001:001bee10       ?createEdgeList@QuickHullConvexHullLib@physx@@UEAA_NIPEBEPEAPEAEPEAPEAG2@Z 00000001801bfe10 f   GuCookingQuickHullConvexHullLib.obj
 0001:001bf030       ?createTriangle@QuickHull@local@@IEAAPEAUQuickHullFace@2@AEBUQuickHullVertex@2@00@Z 00000001801c0030 f   GuCookingQuickHullConvexHullLib.obj
 0001:001bf400       ?doAdjacentMerge@QuickHull@local@@IEAA_NAEAUQuickHullFace@2@_NAEA_N@Z 00000001801c0400 f   GuCookingQuickHullConvexHullLib.obj
 0001:001bf750       ?expandHull@QuickHullConvexHullLib@physx@@IEAA?AW4Enum@PxConvexMeshCookingResult@2@XZ 00000001801c0750 f   GuCookingQuickHullConvexHullLib.obj
 0001:001c0090       ?expandHullOBB@QuickHullConvexHullLib@physx@@IEAA?AW4Enum@PxConvexMeshCookingResult@2@XZ 00000001801c1090 f   GuCookingQuickHullConvexHullLib.obj
 0001:001c04b0       ?fillConvexMeshDesc@QuickHullConvexHullLib@physx@@UEAAXAEAVPxConvexMeshDesc@2@@Z 00000001801c14b0 f   GuCookingQuickHullConvexHullLib.obj
 0001:001c0500       ?fillConvexMeshDescFromCroppedHull@QuickHullConvexHullLib@physx@@IEAAXAEAVPxConvexMeshDesc@2@@Z 00000001801c1500 f   GuCookingQuickHullConvexHullLib.obj
 0001:001c06f0       ?fillConvexMeshDescFromQuickHull@QuickHullConvexHullLib@physx@@IEAAXAEAVPxConvexMeshDesc@2@@Z 00000001801c16f0 f   GuCookingQuickHullConvexHullLib.obj
 0001:001c0a90       ?findSimplex@QuickHull@local@@IEAA_NXZ 00000001801c1a90 f   GuCookingQuickHullConvexHullLib.obj
 0001:001c1750       ?getFreeItem@?$MemBlock@UQuickHullFace@local@@$00@local@@QEAAPEAUQuickHullFace@2@XZ 00000001801c2750 f i GuCookingQuickHullConvexHullLib.obj
 0001:001c1880       ?getFreeItem@?$MemBlock@UQuickHullHalfEdge@local@@$0A@@local@@QEAAPEAUQuickHullHalfEdge@2@XZ 00000001801c2880 f i GuCookingQuickHullConvexHullLib.obj
 0001:001c1950       ?growAndPushBack@?$PxArray@PEAUQuickHullFace@local@@V?$PxReflectionAllocator@PEAUQuickHullFace@local@@@physx@@@physx@@IEAAAEAPEAUQuickHullFace@local@@AEBQEAU34@@Z 00000001801c2950 f i GuCookingQuickHullConvexHullLib.obj
 0001:001c1a60       ?growAndPushBack@?$PxArray@PEAUQuickHullHalfEdge@local@@V?$PxReflectionAllocator@PEAUQuickHullHalfEdge@local@@@physx@@@physx@@IEAAAEAPEAUQuickHullHalfEdge@local@@AEBQEAU34@@Z 00000001801c2a60 f i GuCookingQuickHullConvexHullLib.obj
 0001:001c1b70       ?growAndPushBack@?$PxArray@PEAUQuickHullVertex@local@@V?$PxReflectionAllocator@PEAUQuickHullVertex@local@@@physx@@@physx@@IEAAAEAPEAUQuickHullVertex@local@@AEBQEAU34@@Z 00000001801c2b70 f i GuCookingQuickHullConvexHullLib.obj
 0001:001c1c80       ?growAndPushBack@?$PxArray@UExpandPoint@local@@V?$PxReflectionAllocator@UExpandPoint@local@@@physx@@@physx@@IEAAAEAUExpandPoint@local@@AEBU34@@Z 00000001801c2c80 f i GuCookingQuickHullConvexHullLib.obj
 0001:001c1de0       ?growAndPushBack@?$PxArray@VPxPlane@physx@@V?$PxReflectionAllocator@VPxPlane@physx@@@2@@physx@@IEAAAEAVPxPlane@2@AEBV32@@Z 00000001801c2de0 f i GuCookingQuickHullConvexHullLib.obj
 0001:001c1f00       ?init@?$MemBlock@UQuickHullFace@local@@$00@local@@QEAAXI@Z 00000001801c2f00 f i GuCookingQuickHullConvexHullLib.obj
 0001:001c2000       ?init@?$MemBlock@UQuickHullHalfEdge@local@@$0A@@local@@QEAAXI@Z 00000001801c3000 f i GuCookingQuickHullConvexHullLib.obj
 0001:001c20a0       ?mergeAdjacentFace@QuickHullFace@local@@QEAA_NPEAUQuickHullHalfEdge@2@AEAV?$PxArray@PEAUQuickHullFace@local@@V?$PxReflectionAllocator@PEAUQuickHullFace@local@@@physx@@@physx@@@Z 00000001801c30a0 f   GuCookingQuickHullConvexHullLib.obj
 0001:001c2500       ?nextPointToAdd@QuickHull@local@@IEAAPEAUQuickHullVertex@2@AEAPEAUQuickHullFace@2@@Z 00000001801c3500 f   GuCookingQuickHullConvexHullLib.obj
 0001:001c2680       ?parseInputVertices@QuickHull@local@@QEAAXPEBV?$PxVec3T@M@physx@@I@Z 00000001801c3680 f   GuCookingQuickHullConvexHullLib.obj
 0001:001c2800       ?postMergeHull@QuickHull@local@@IEAAXXZ 00000001801c3800 f   GuCookingQuickHullConvexHullLib.obj
 0001:001c2a60       ?preallocate@QuickHull@local@@QEAAXI@Z 00000001801c3a60 f   GuCookingQuickHullConvexHullLib.obj
 0001:001c2ba0       ?recreate@?$PxArray@PEAUQuickHullFace@local@@V?$PxReflectionAllocator@PEAUQuickHullFace@local@@@physx@@@physx@@IEAAXI@Z 00000001801c3ba0 f i GuCookingQuickHullConvexHullLib.obj
 0001:001c2c90       ?recreate@?$PxArray@PEAUQuickHullHalfEdge@local@@V?$PxReflectionAllocator@PEAUQuickHullHalfEdge@local@@@physx@@@physx@@IEAAXI@Z 00000001801c3c90 f i GuCookingQuickHullConvexHullLib.obj
 0001:001c2d80       ?recreate@?$PxArray@PEAUQuickHullVertex@local@@V?$PxReflectionAllocator@PEAUQuickHullVertex@local@@@physx@@@physx@@IEAAXI@Z 00000001801c3d80 f i GuCookingQuickHullConvexHullLib.obj
 0001:001c2e70       ?recreate@?$PxArray@UExpandPoint@local@@V?$PxReflectionAllocator@UExpandPoint@local@@@physx@@@physx@@IEAAXI@Z 00000001801c3e70 f i GuCookingQuickHullConvexHullLib.obj
 0001:001c2f40       ?recreate@?$PxArray@VPxPlane@physx@@V?$PxReflectionAllocator@VPxPlane@physx@@@2@@physx@@IEAAXI@Z 00000001801c3f40 f i GuCookingQuickHullConvexHullLib.obj
 0001:001c3020       ?resolveUnclaimedPoints@QuickHull@local@@IEAAXAEBV?$PxArray@PEAUQuickHullFace@local@@V?$PxReflectionAllocator@PEAUQuickHullFace@local@@@physx@@@physx@@@Z 00000001801c4020 f   GuCookingQuickHullConvexHullLib.obj
 0001:001c32a0       ??$copy@V?$PxReflectionAllocator@VPair@@@physx@@@?$PxArray@VPair@@V?$PxReflectionAllocator@VPair@@@physx@@@physx@@IEAAXAEBV01@@Z 00000001801c42a0 f i GuCookingConvexPolygonsBuilder.obj
 0001:001c3320       ??0ConvexPolygonsBuilder@physx@@QEAA@PEAUConvexHullData@Gu@1@_N@Z 00000001801c4320 f   GuCookingConvexPolygonsBuilder.obj
 0001:001c3340       ??1ConvexPolygonsBuilder@physx@@QEAA@XZ 00000001801c4340 f   GuCookingConvexPolygonsBuilder.obj
 0001:001c3b90       ?allocate@?$PxArray@VPair@@V?$PxReflectionAllocator@VPair@@@physx@@@physx@@IEAAPEAVPair@@IPEAI@Z 00000001801c4b90 f i GuCookingConvexPolygonsBuilder.obj
 0001:001c4660       ?computeHullPolygons@ConvexPolygonsBuilder@physx@@QEAA_NAEBIPEBV?$PxVec3T@M@2@0PEBI@Z 00000001801c5660 f   GuCookingConvexPolygonsBuilder.obj
 0001:001c5920       ?createPolygonData@ConvexPolygonsBuilder@physx@@AEAA_NXZ 00000001801c6920 f   GuCookingConvexPolygonsBuilder.obj
 0001:001c6370       ?createTrianglesFromPolygons@ConvexPolygonsBuilder@physx@@AEAA_NXZ 00000001801c7370 f   GuCookingConvexPolygonsBuilder.obj
 0001:001c7a10       ?growAndPushBack@?$PxArray@VPair@@V?$PxReflectionAllocator@VPair@@@physx@@@physx@@IEAAAEAVPair@@AEBV3@@Z 00000001801c8a10 f i GuCookingConvexPolygonsBuilder.obj
 0001:001c7bf0       ??0ConvexMeshBuilder@physx@@QEAA@_N@Z 00000001801c8bf0 f   GuCookingConvexMeshBuilder.obj
 0001:001c7c60       ??1ConvexMeshBuilder@physx@@QEAA@XZ 00000001801c8c60 f   GuCookingConvexMeshBuilder.obj
 0001:001c8120       ?build@ConvexMeshBuilder@physx@@QEAA_NAEBVPxConvexMeshDesc@2@I_NPEAVConvexHullLib@2@@Z 00000001801c9120 f   GuCookingConvexMeshBuilder.obj
 0001:001c84b0       ?checkExtentRadiusRatio@ConvexMeshBuilder@physx@@QEAA_NXZ 00000001801c94b0 f   GuCookingConvexMeshBuilder.obj
 0001:001c84e0       ?computeHullPolygons@ConvexMeshBuilder@physx@@QEAA_NAEBIPEBV?$PxVec3T@M@2@0PEBIAEAVPxAllocatorCallback@2@AEAIAEAPEAV32@4AEAPEAI4AEAPEAUPxHullPolygon@2@@Z 00000001801c94e0 f   GuCookingConvexMeshBuilder.obj
 0001:001c86e0       ?computeMassInfo@ConvexMeshBuilder@physx@@QEAAX_N@Z 00000001801c96e0 f   GuCookingConvexMeshBuilder.obj
 0001:001c8a80       ?computeSDF@ConvexMeshBuilder@physx@@QEAAXAEBVPxConvexMeshDesc@2@@Z 00000001801c9a80 f   GuCookingConvexMeshBuilder.obj
 0001:001c8ef0       ?copy@ConvexMeshBuilder@physx@@QEAA_NAEAUConvexHullInitData@Gu@2@@Z 00000001801c9ef0 f   GuCookingConvexMeshBuilder.obj
 0001:001c9050       ?loadConvexHull@ConvexMeshBuilder@physx@@QEAA_NAEBVPxConvexMeshDesc@2@PEAVConvexHullLib@2@@Z 00000001801ca050 f   GuCookingConvexMeshBuilder.obj
 0001:001c92a0       ?save@ConvexMeshBuilder@physx@@QEBA_NAEAVPxOutputStream@2@_N@Z 00000001801ca2a0 f   GuCookingConvexMeshBuilder.obj
 0001:001c96c0       ??0ConvexHull@physx@@QEAA@AEBV?$PxVec3T@M@1@AEBV?$PxTransformT@M@1@AEBV?$PxArray@VPxPlane@physx@@V?$PxReflectionAllocator@VPxPlane@physx@@@2@@1@@Z 00000001801ca6c0 f   GuCookingConvexHullUtils.obj
 0001:001ca7e0       ?assertIntact@ConvexHull@physx@@QEBA_NM@Z 00000001801cb7e0 f   GuCookingConvexHullUtils.obj
 0001:001caaf0       ?computeOBBFromConvex@physx@@YA_NAEBVPxConvexMeshDesc@1@AEAV?$PxVec3T@M@1@AEAV?$PxTransformT@M@1@@Z 00000001801cbaf0 f   GuCookingConvexHullUtils.obj
 0001:001cb150       ?computeOBBSIMD@local@@YAXIPEBT__m128@@AEAT2@AEBT2@1@Z 00000001801cc150 f   GuCookingConvexHullUtils.obj
 0001:001cb500       ?convexHullCrop@physx@@YAPEAVConvexHull@1@AEBV21@AEBVPxPlane@1@M@Z 00000001801cc500 f   GuCookingConvexHullUtils.obj
 0001:001cc320       ?findCandidatePlane@ConvexHull@physx@@QEBAHMM@Z 00000001801cd320 f   GuCookingConvexHullUtils.obj
 0001:001cc780       ?growAndPushBack@?$PxArray@VHalfEdge@ConvexHull@physx@@V?$PxReflectionAllocator@VHalfEdge@ConvexHull@physx@@@3@@physx@@IEAAAEAVHalfEdge@ConvexHull@2@AEBV342@@Z 00000001801cd780 f i GuCookingConvexHullUtils.obj
 0001:001cc890       ?maxNumVertsPerFace@ConvexHull@physx@@QEBAIXZ 00000001801cd890 f   GuCookingConvexHullUtils.obj
 0001:001cc900       ?recreate@?$PxArray@VHalfEdge@ConvexHull@physx@@V?$PxReflectionAllocator@VHalfEdge@ConvexHull@physx@@@3@@physx@@IEAAXI@Z 00000001801cd900 f i GuCookingConvexHullUtils.obj
 0001:001cc9f0       ?resize@?$PxArray@VHalfEdge@ConvexHull@physx@@V?$PxReflectionAllocator@VHalfEdge@ConvexHull@physx@@@3@@physx@@QEAAXIAEBVHalfEdge@ConvexHull@2@@Z 00000001801cd9f0 f i GuCookingConvexHullUtils.obj
 0001:001ccab0       ?resize@?$PxArray@VPxPlane@physx@@V?$PxReflectionAllocator@VPxPlane@physx@@@2@@physx@@QEAAXIAEBVPxPlane@2@@Z 00000001801cdab0 f i GuCookingConvexHullUtils.obj
 0001:001ccbd0       ??1ConvexHullLib@physx@@UEAA@XZ 00000001801cdbd0 f   GuCookingConvexHullLib.obj
 0001:001cd1c0       ?cleanupVertices@ConvexHullLib@physx@@IEAA_NIPEBV?$PxVec3T@M@2@IAEAIPEAV32@@Z 00000001801ce1c0 f   GuCookingConvexHullLib.obj
 0001:001cd300       ?shiftAndcleanupVertices@ConvexHullLib@physx@@IEAA_NIPEBV?$PxVec3T@M@2@IAEAIPEAV32@@Z 00000001801ce300 f   GuCookingConvexHullLib.obj
 0001:001cd8f0       ?shiftConvexMeshDesc@ConvexHullLib@physx@@IEAAXAEAVPxConvexMeshDesc@2@@Z 00000001801ce8f0 f   GuCookingConvexHullLib.obj
 0001:001cd9b0       ?swapLargestFace@ConvexHullLib@physx@@IEAAXAEAVPxConvexMeshDesc@2@@Z 00000001801ce9b0 f   GuCookingConvexHullLib.obj
 0001:001cdc20       ??0ConvexHullBuilder@physx@@QEAA@PEAUConvexHullData@Gu@1@_N@Z 00000001801cec20 f   GuCookingConvexHullBuilder.obj
 0001:001cdc50       ??1ConvexHullBuilder@physx@@QEAA@XZ 00000001801cec50 f   GuCookingConvexHullBuilder.obj
 0001:001cdd60       ?calculateVertexMapTable@ConvexHullBuilder@physx@@QEAA_NI_N@Z 00000001801ced60 f   GuCookingConvexHullBuilder.obj
 0001:001cdf20       ?checkHullPolygons@ConvexHullBuilder@physx@@QEBA_NXZ 00000001801cef20 f   GuCookingConvexHullBuilder.obj
 0001:001ce6d0       ?copy@ConvexHullBuilder@physx@@QEAA_NAEAUConvexHullData@Gu@2@AEAI@Z 00000001801cf6d0 f   GuCookingConvexHullBuilder.obj
 0001:001ce970       ?createEdgeList@ConvexHullBuilder@physx@@QEAA_N_NI@Z 00000001801cf970 f   GuCookingConvexHullBuilder.obj
 0001:001cf0c0       ?init@ConvexHullBuilder@physx@@QEAA_NIPEBV?$PxVec3T@M@2@PEBIIIPEBUPxHullPolygon@2@_NPEAVConvexHullLib@2@@Z 00000001801d00c0 f   GuCookingConvexHullBuilder.obj
 0001:001cfa20       ?save@ConvexHullBuilder@physx@@QEBA_NAEAVPxOutputStream@2@_N@Z 00000001801d0a20 f   GuCookingConvexHullBuilder.obj
 0001:001cfd60       ??0BigConvexDataBuilder@physx@@QEAA@PEBUConvexHullData@Gu@1@PEAVBigConvexData@1@PEBV?$PxVec3T@M@1@@Z 00000001801d0d60 f   GuCookingBigConvexDataBuilder.obj
 0001:001cfd70       ?computeValencies@BigConvexDataBuilder@physx@@QEAA_NAEBVConvexHullBuilder@2@@Z 00000001801d0d70 f   GuCookingBigConvexDataBuilder.obj
 0001:001d0150       ?precompute@BigConvexDataBuilder@physx@@QEAA_NI@Z 00000001801d1150 f   GuCookingBigConvexDataBuilder.obj
 0001:001d0d70       ?save@BigConvexDataBuilder@physx@@QEBA_NAEAVPxOutputStream@2@_N@Z 00000001801d1d70 f   GuCookingBigConvexDataBuilder.obj
 0001:001d12e0       ?buildSDF@physx@@YA_NAEAVPxTriangleMeshDesc@1@AEAV?$PxArray@MV?$PxReflectionAllocator@M@physx@@@1@AEAV?$PxArray@EV?$PxReflectionAllocator@E@physx@@@1@AEAV?$PxArray@IV?$PxReflectionAllocator@I@physx@@@1@@Z 00000001801d22e0 f   GuCookingSDF.obj
 0001:001d2320       ?recreate@?$PxArray@EV?$PxReflectionAllocator@E@physx@@@physx@@IEAAXI@Z 00000001801d3320 f i GuCookingSDF.obj
 0001:001d2410       ?resize@?$PxArray@EV?$PxReflectionAllocator@E@physx@@@physx@@QEAAXIAEBE@Z 00000001801d3410 f i GuCookingSDF.obj
 0001:001d24ca       __tailMerge_physxfoundation_64_dll 00000001801d34ca     PhysXFoundation_64:PhysXFoundation_64.dll
 0001:001d2543       __imp_load_PxGetFoundation 00000001801d3543 f   PhysXFoundation_64:PhysXFoundation_64.dll
 0001:001d254f       __imp_load_PxGetBroadcastAllocator 00000001801d354f f   PhysXFoundation_64:PhysXFoundation_64.dll
 0001:001d255b       __imp_load_?PxAtomicIncrement@physx@@YAHPECH@Z 00000001801d355b f   PhysXFoundation_64:PhysXFoundation_64.dll
 0001:001d2567       __imp_load_??0PxMutexImpl@physx@@QEAA@XZ 00000001801d3567 f   PhysXFoundation_64:PhysXFoundation_64.dll
 0001:001d2573       __imp_load_??1PxMutexImpl@physx@@QEAA@XZ 00000001801d3573 f   PhysXFoundation_64:PhysXFoundation_64.dll
 0001:001d257f       __imp_load_?lock@PxMutexImpl@physx@@QEAAXXZ 00000001801d357f f   PhysXFoundation_64:PhysXFoundation_64.dll
 0001:001d258b       __imp_load_?unlock@PxMutexImpl@physx@@QEAAXXZ 00000001801d358b f   PhysXFoundation_64:PhysXFoundation_64.dll
 0001:001d2597       __imp_load_?getSize@PxMutexImpl@physx@@SAIXZ 00000001801d3597 f   PhysXFoundation_64:PhysXFoundation_64.dll
 0001:001d25a3       __imp_load_?PxTransformFromSegment@physx@@YA?AV?$PxTransformT@M@1@AEBV?$PxVec3T@M@1@0PEAM@Z 00000001801d35a3 f   PhysXFoundation_64:PhysXFoundation_64.dll
 0001:001d25af       __imp_load_?PxAtomicAdd@physx@@YAHPECHH@Z 00000001801d35af f   PhysXFoundation_64:PhysXFoundation_64.dll
 0001:001d25bb       __imp_load_?getDefaultStackSize@PxThreadImpl@physx@@SAIXZ 00000001801d35bb f   PhysXFoundation_64:PhysXFoundation_64.dll
 0001:001d25c7       __imp_load_??0PxThreadImpl@physx@@QEAA@P6APEAXPEAX@Z0PEBD@Z 00000001801d35c7 f   PhysXFoundation_64:PhysXFoundation_64.dll
 0001:001d25d3       __imp_load_??1PxThreadImpl@physx@@QEAA@XZ 00000001801d35d3 f   PhysXFoundation_64:PhysXFoundation_64.dll
 0001:001d25df       __imp_load_?start@PxThreadImpl@physx@@QEAAXIPEAVPxRunnable@2@@Z 00000001801d35df f   PhysXFoundation_64:PhysXFoundation_64.dll
 0001:001d25eb       __imp_load_?waitForQuit@PxThreadImpl@physx@@QEAA_NXZ 00000001801d35eb f   PhysXFoundation_64:PhysXFoundation_64.dll
 0001:001d25f7       __imp_load_?getSize@PxThreadImpl@physx@@SAIXZ 00000001801d35f7 f   PhysXFoundation_64:PhysXFoundation_64.dll
 0001:001d2603       __imp_load_?allocate@PxTempAllocator@physx@@QEAAPEAX_KPEBDH@Z 00000001801d3603 f   PhysXFoundation_64:PhysXFoundation_64.dll
 0001:001d260f       __imp_load_?deallocate@PxTempAllocator@physx@@QEAAXPEAX@Z 00000001801d360f f   PhysXFoundation_64:PhysXFoundation_64.dll
 0001:001d261b       __imp_load_?PxOptimizeBoundingBox@physx@@YA?AV?$PxVec3T@M@1@AEAV?$PxMat33T@M@1@@Z 00000001801d361b f   PhysXFoundation_64:PhysXFoundation_64.dll
 0001:001d2627       __imp_load_?Pxstrcmp@physx@@YAHPEBD0@Z 00000001801d3627 f   PhysXFoundation_64:PhysXFoundation_64.dll
 0001:001d2633       __imp_load_?PxAtomicDecrement@physx@@YAHPECH@Z 00000001801d3633 f   PhysXFoundation_64:PhysXFoundation_64.dll
 0001:001d263f       __imp_load_??0PxFPUGuard@physx@@QEAA@XZ 00000001801d363f f   PhysXFoundation_64:PhysXFoundation_64.dll
 0001:001d264b       __imp_load_??1PxFPUGuard@physx@@QEAA@XZ 00000001801d364b f   PhysXFoundation_64:PhysXFoundation_64.dll
 0001:001d2657       __imp_load_?PxDiagonalize@physx@@YA?AV?$PxVec3T@M@1@AEBV?$PxMat33T@M@1@AEAV?$PxQuatT@M@1@@Z 00000001801d3657 f   PhysXFoundation_64:PhysXFoundation_64.dll
 0001:001d2664       ?DloadAcquireSectionWriteAccess@@YAXXZ 00000001801d3664 f i Delayimp:delayhlp.obj
 0001:001d2710       ?DloadGetSRWLockFunctionPointers@@YAEXZ 00000001801d3710 f i Delayimp:delayhlp.obj
 0001:001d27b0       ?DloadMakePermanentImageCommit@@YAXPEAX_K@Z 00000001801d37b0 f i Delayimp:delayhlp.obj
 0001:001d2848       ?DloadObtainSection@@YAPEAXPEAK0@Z 00000001801d3848 f i Delayimp:delayhlp.obj
 0001:001d28e4       ?DloadProtectSection@@YAXKPEAK@Z 00000001801d38e4 f i Delayimp:delayhlp.obj
 0001:001d2974       ?DloadReleaseSectionWriteAccess@@YAXXZ 00000001801d3974 f i Delayimp:delayhlp.obj
 0001:001d2a08       __delayLoadHelper2         00000001801d3a08 f   Delayimp:delayhlp.obj
 0001:001d2ce0       ??3@YAXPEAX_K@Z            00000001801d3ce0 f   MSVCRT:delete_scalar_size.obj
 0001:001d2ce0       ??_V@YAXPEAX@Z             00000001801d3ce0 f   MSVCRT:delete_array.obj
 0001:001d2ce8       ??_Etype_info@@UEAAPEAXI@Z 00000001801d3ce8 f i MSVCRT:std_type_info_static.obj
 0001:001d2ce8       ??_Gtype_info@@UEAAPEAXI@Z 00000001801d3ce8 f i MSVCRT:std_type_info_static.obj
 0001:001d2d14       ?__scrt_initialize_type_info@@YAXXZ 00000001801d3d14 f   MSVCRT:tncleanup.obj
 0001:001d2d24       ?__scrt_uninitialize_type_info@@YAXXZ 00000001801d3d24 f   MSVCRT:tncleanup.obj
 0001:001d2d40       __chkstk                   00000001801d3d40 f   MSVCRT:chkstk.obj
 0001:001d2d40       _alloca_probe              00000001801d3d40 f   MSVCRT:chkstk.obj
 0001:001d2d90       __vdecl_sinf4              00000001801d3d90 f   MSVCRT:svml_ssinf4_dispatch.obj
 0001:001d2db0       __libm_sse2_sincosf_       00000001801d3db0 f   MSVCRT:svml_ssinf4_dispatch.obj
 0001:001d2df3       __libm_sse2_sincosf4_      00000001801d3df3 f   MSVCRT:svml_ssinf4_dispatch.obj
 0001:001d2e00       ??3@YAXPEAX@Z              00000001801d3e00 f   MSVCRT:delete_scalar.obj
 0001:001d2e08       __scrt_acquire_startup_lock 00000001801d3e08 f   MSVCRT:utility.obj
 0001:001d2e44       __scrt_dllmain_after_initialize_c 00000001801d3e44 f   MSVCRT:utility.obj
 0001:001d2e78       __scrt_dllmain_before_initialize_c 00000001801d3e78 f   MSVCRT:utility.obj
 0001:001d2e90       __scrt_dllmain_crt_thread_attach 00000001801d3e90 f   MSVCRT:utility.obj
 0001:001d2eb8       __scrt_dllmain_crt_thread_detach 00000001801d3eb8 f   MSVCRT:utility.obj
 0001:001d2ed0       __scrt_dllmain_exception_filter 00000001801d3ed0 f   MSVCRT:utility.obj
 0001:001d2f30       __scrt_dllmain_uninitialize_c 00000001801d3f30 f   MSVCRT:utility.obj
 0001:001d2f60       __scrt_dllmain_uninitialize_critical 00000001801d3f60 f   MSVCRT:utility.obj
 0001:001d2f74       __scrt_initialize_crt      00000001801d3f74 f   MSVCRT:utility.obj
 0001:001d2fb0       __scrt_initialize_onexit_tables 00000001801d3fb0 f   MSVCRT:utility.obj
 0001:001d303c       __scrt_is_nonwritable_in_current_image 00000001801d403c f   MSVCRT:utility.obj
 0001:001d30d4       __scrt_release_startup_lock 00000001801d40d4 f   MSVCRT:utility.obj
 0001:001d30f8       __scrt_uninitialize_crt    00000001801d40f8 f   MSVCRT:utility.obj
 0001:001d3124       _onexit                    00000001801d4124 f   MSVCRT:utility.obj
 0001:001d3160       atexit                     00000001801d4160 f   MSVCRT:utility.obj
 0001:001d3178       __isa_available_init       00000001801d4178 f   MSVCRT:cpu_disp.obj
 0001:001d3640       _DllMainCRTStartup         00000001801d4640 f   MSVCRT:dll_dllmain.obj
 0001:001d3680       __sse2_sinf4@@16           00000001801d4680 f   MSVCRT:svml_ssinf4_sse2.obj
 0001:001d3fc0       __sse4_sinf4@@16           00000001801d4fc0 f   MSVCRT:svml_ssinf4_sse4.obj
 0001:001d4734       __scrt_is_ucrt_dll_in_use  00000001801d5734 f   MSVCRT:ucrt_detection.obj
 0001:001d4740       __crt_debugger_hook        00000001801d5740 f   MSVCRT:utility_desktop.obj
 0001:001d4748       __scrt_fastfail            00000001801d5748 f   MSVCRT:utility_desktop.obj
 0001:001d4890       __security_init_cookie     00000001801d5890 f   MSVCRT:gs_support.obj
 0001:001d493c       DllMain                    00000001801d593c f   MSVCRT:dll_dllmain_stub.obj
 0001:001d4960       __local_stdio_scanf_options 00000001801d5960 f i MSVCRT:default_local_stdio_options.obj
 0001:001d4968       __scrt_initialize_default_local_stdio_options 00000001801d5968 f   MSVCRT:default_local_stdio_options.obj
 0001:001d4984       __scrt_get_dyn_tls_init_callback 00000001801d5984 f   MSVCRT:dyn_tls_init.obj
 0001:001d498c       _RTC_Initialize            00000001801d598c f   MSVCRT:initsect.obj
 0001:001d49c8       _RTC_Terminate             00000001801d59c8 f   MSVCRT:initsect.obj
 0001:001d4a10       __common_ssin_cout_rare    00000001801d5a10 f   MSVCRT:svml_s_sin_cout.obj
 0001:001d4a80       memcpy                     00000001801d5a80 f   vcruntime:VCRUNTIME140.dll
 0001:001d4a86       _purecall                  00000001801d5a86 f   vcruntime:VCRUNTIME140.dll
 0001:001d4a8c       __std_type_info_name       00000001801d5a8c f   vcruntime:VCRUNTIME140.dll
 0001:001d4a92       memset                     00000001801d5a92 f   vcruntime:VCRUNTIME140.dll
 0001:001d4a98       strstr                     00000001801d5a98 f   vcruntime:VCRUNTIME140.dll
 0001:001d4a9e       __std_type_info_destroy_list 00000001801d5a9e f   vcruntime:VCRUNTIME140.dll
 0001:001d4aa4       __C_specific_handler       00000001801d5aa4 f   vcruntime:VCRUNTIME140.dll
 0001:001d4aaa       cosf                       00000001801d5aaa f   ucrt:api-ms-win-crt-math-l1-1-0.dll
 0001:001d4ab0       sinf                       00000001801d5ab0 f   ucrt:api-ms-win-crt-math-l1-1-0.dll
 0001:001d4ab6       tanf                       00000001801d5ab6 f   ucrt:api-ms-win-crt-math-l1-1-0.dll
 0001:001d4abc       acosf                      00000001801d5abc f   ucrt:api-ms-win-crt-math-l1-1-0.dll
 0001:001d4ac2       powf                       00000001801d5ac2 f   ucrt:api-ms-win-crt-math-l1-1-0.dll
 0001:001d4ac8       atan2f                     00000001801d5ac8 f   ucrt:api-ms-win-crt-math-l1-1-0.dll
 0001:001d4ace       free                       00000001801d5ace f   ucrt:api-ms-win-crt-heap-l1-1-0.dll
 0001:001d4ad4       _seh_filter_dll            00000001801d5ad4 f   ucrt:api-ms-win-crt-runtime-l1-1-0.dll
 0001:001d4ada       _configure_narrow_argv     00000001801d5ada f   ucrt:api-ms-win-crt-runtime-l1-1-0.dll
 0001:001d4ae0       _initialize_narrow_environment 00000001801d5ae0 f   ucrt:api-ms-win-crt-runtime-l1-1-0.dll
 0001:001d4ae6       _initialize_onexit_table   00000001801d5ae6 f   ucrt:api-ms-win-crt-runtime-l1-1-0.dll
 0001:001d4aec       _register_onexit_function  00000001801d5aec f   ucrt:api-ms-win-crt-runtime-l1-1-0.dll
 0001:001d4af2       _execute_onexit_table      00000001801d5af2 f   ucrt:api-ms-win-crt-runtime-l1-1-0.dll
 0001:001d4af8       _crt_atexit                00000001801d5af8 f   ucrt:api-ms-win-crt-runtime-l1-1-0.dll
 0001:001d4afe       _cexit                     00000001801d5afe f   ucrt:api-ms-win-crt-runtime-l1-1-0.dll
 0001:001d4b04       _initterm                  00000001801d5b04 f   ucrt:api-ms-win-crt-runtime-l1-1-0.dll
 0001:001d4b0a       _initterm_e                00000001801d5b0a f   ucrt:api-ms-win-crt-runtime-l1-1-0.dll
 0001:001d4b10       __acrt_initialize          00000001801d5b10 f   MSVCRT:ucrt_stubs.obj
 0001:001d4b10       __acrt_thread_attach       00000001801d5b10 f   MSVCRT:ucrt_stubs.obj
 0001:001d4b10       __acrt_thread_detach       00000001801d5b10 f   MSVCRT:ucrt_stubs.obj
 0001:001d4b10       __acrt_uninitialize        00000001801d5b10 f   MSVCRT:ucrt_stubs.obj
 0001:001d4b10       __acrt_uninitialize_critical 00000001801d5b10 f   MSVCRT:ucrt_stubs.obj
 0001:001d4b10       __scrt_stub_for_acrt_initialize 00000001801d5b10 f   MSVCRT:ucrt_stubs.obj
 0001:001d4b10       __scrt_stub_for_acrt_thread_attach 00000001801d5b10 f   MSVCRT:ucrt_stubs.obj
 0001:001d4b10       __scrt_stub_for_acrt_thread_detach 00000001801d5b10 f   MSVCRT:ucrt_stubs.obj
 0001:001d4b10       __scrt_stub_for_acrt_uninitialize 00000001801d5b10 f   MSVCRT:ucrt_stubs.obj
 0001:001d4b10       __scrt_stub_for_acrt_uninitialize_critical 00000001801d5b10 f   MSVCRT:ucrt_stubs.obj
 0001:001d4b10       __vcrt_initialize          00000001801d5b10 f   MSVCRT:ucrt_stubs.obj
 0001:001d4b10       __vcrt_thread_attach       00000001801d5b10 f   MSVCRT:ucrt_stubs.obj
 0001:001d4b10       __vcrt_thread_detach       00000001801d5b10 f   MSVCRT:ucrt_stubs.obj
 0001:001d4b10       __vcrt_uninitialize        00000001801d5b10 f   MSVCRT:ucrt_stubs.obj
 0001:001d4b10       __vcrt_uninitialize_critical 00000001801d5b10 f   MSVCRT:ucrt_stubs.obj
 0001:001d4b30       _guard_dispatch_icall_nop  00000001801d5b30 f   MSVCRT:guard_dispatch.obj
 0001:001d4b50       _guard_xfg_dispatch_icall_nop 00000001801d5b50 f   MSVCRT:guard_xfg_dispatch.obj
 0002:00000000       __imp_GetLastError         00000001801d6000     kernel32:KERNEL32.dll
 0002:00000008       __imp_FreeLibrary          00000001801d6008     kernel32:KERNEL32.dll
 0002:00000010       __imp_GetProcAddress       00000001801d6010     kernel32:KERNEL32.dll
 0002:00000018       __imp_LoadLibraryA         00000001801d6018     kernel32:KERNEL32.dll
 0002:00000020       __imp_GetSystemTimeAsFileTime 00000001801d6020     kernel32:KERNEL32.dll
 0002:00000028       __imp_GetCurrentThreadId   00000001801d6028     kernel32:KERNEL32.dll
 0002:00000030       __imp_GetCurrentProcessId  00000001801d6030     kernel32:KERNEL32.dll
 0002:00000038       __imp_QueryPerformanceCounter 00000001801d6038     kernel32:KERNEL32.dll
 0002:00000040       __imp_IsProcessorFeaturePresent 00000001801d6040     kernel32:KERNEL32.dll
 0002:00000048       __imp_SetUnhandledExceptionFilter 00000001801d6048     kernel32:KERNEL32.dll
 0002:00000050       __imp_UnhandledExceptionFilter 00000001801d6050     kernel32:KERNEL32.dll
 0002:00000058       __imp_IsDebuggerPresent    00000001801d6058     kernel32:KERNEL32.dll
 0002:00000060       __imp_RtlVirtualUnwind     00000001801d6060     kernel32:KERNEL32.dll
 0002:00000068       __imp_RtlLookupFunctionEntry 00000001801d6068     kernel32:KERNEL32.dll
 0002:00000070       __imp_RtlCaptureContext    00000001801d6070     kernel32:KERNEL32.dll
 0002:00000078       __imp_InitializeSListHead  00000001801d6078     kernel32:KERNEL32.dll
 0002:00000080       __imp_LoadLibraryExA       00000001801d6080     kernel32:KERNEL32.dll
 0002:00000088       __imp_GetModuleHandleW     00000001801d6088     kernel32:KERNEL32.dll
 0002:00000090       __imp_VirtualQuery         00000001801d6090     kernel32:KERNEL32.dll
 0002:00000098       __imp_VirtualProtect       00000001801d6098     kernel32:KERNEL32.dll
 0002:000000a0       __imp_GetSystemInfo        00000001801d60a0     kernel32:KERNEL32.dll
 0002:000000a8       __imp_RaiseException       00000001801d60a8     kernel32:KERNEL32.dll
 0002:000000b0       __imp_DisableThreadLibraryCalls 00000001801d60b0     kernel32:KERNEL32.dll
 0002:000000b8       \177KERNEL32_NULL_THUNK_DATA 00000001801d60b8     kernel32:KERNEL32.dll
 0002:000000c0       __imp___std_type_info_destroy_list 00000001801d60c0     vcruntime:VCRUNTIME140.dll
 0002:000000c8       __imp_memcpy               00000001801d60c8     vcruntime:VCRUNTIME140.dll
 0002:000000d0       __imp__purecall            00000001801d60d0     vcruntime:VCRUNTIME140.dll
 0002:000000d8       __imp___std_type_info_name 00000001801d60d8     vcruntime:VCRUNTIME140.dll
 0002:000000e0       __imp_memset               00000001801d60e0     vcruntime:VCRUNTIME140.dll
 0002:000000e8       __imp_strstr               00000001801d60e8     vcruntime:VCRUNTIME140.dll
 0002:000000f0       __imp___C_specific_handler 00000001801d60f0     vcruntime:VCRUNTIME140.dll
 0002:000000f8       \177VCRUNTIME140_NULL_THUNK_DATA 00000001801d60f8     vcruntime:VCRUNTIME140.dll
 0002:00000100       __imp_free                 00000001801d6100     ucrt:api-ms-win-crt-heap-l1-1-0.dll
 0002:00000108       \177api-ms-win-crt-heap-l1-1-0_NULL_THUNK_DATA 00000001801d6108     ucrt:api-ms-win-crt-heap-l1-1-0.dll
 0002:00000110       __imp_sinf                 00000001801d6110     ucrt:api-ms-win-crt-math-l1-1-0.dll
 0002:00000118       __imp_cosf                 00000001801d6118     ucrt:api-ms-win-crt-math-l1-1-0.dll
 0002:00000120       __imp_atan2f               00000001801d6120     ucrt:api-ms-win-crt-math-l1-1-0.dll
 0002:00000128       __imp_tanf                 00000001801d6128     ucrt:api-ms-win-crt-math-l1-1-0.dll
 0002:00000130       __imp_powf                 00000001801d6130     ucrt:api-ms-win-crt-math-l1-1-0.dll
 0002:00000138       __imp_acosf                00000001801d6138     ucrt:api-ms-win-crt-math-l1-1-0.dll
 0002:00000140       __imp__fpclass             00000001801d6140     ucrt:api-ms-win-crt-math-l1-1-0.dll
 0002:00000148       \177api-ms-win-crt-math-l1-1-0_NULL_THUNK_DATA 00000001801d6148     ucrt:api-ms-win-crt-math-l1-1-0.dll
 0002:00000150       __imp__configure_narrow_argv 00000001801d6150     ucrt:api-ms-win-crt-runtime-l1-1-0.dll
 0002:00000158       __imp__initialize_narrow_environment 00000001801d6158     ucrt:api-ms-win-crt-runtime-l1-1-0.dll
 0002:00000160       __imp__seh_filter_dll      00000001801d6160     ucrt:api-ms-win-crt-runtime-l1-1-0.dll
 0002:00000168       __imp__cexit               00000001801d6168     ucrt:api-ms-win-crt-runtime-l1-1-0.dll
 0002:00000170       __imp__initterm_e          00000001801d6170     ucrt:api-ms-win-crt-runtime-l1-1-0.dll
 0002:00000178       __imp__initterm            00000001801d6178     ucrt:api-ms-win-crt-runtime-l1-1-0.dll
 0002:00000180       __imp__execute_onexit_table 00000001801d6180     ucrt:api-ms-win-crt-runtime-l1-1-0.dll
 0002:00000188       __imp__crt_atexit          00000001801d6188     ucrt:api-ms-win-crt-runtime-l1-1-0.dll
 0002:00000190       __imp__register_onexit_function 00000001801d6190     ucrt:api-ms-win-crt-runtime-l1-1-0.dll
 0002:00000198       __imp__initialize_onexit_table 00000001801d6198     ucrt:api-ms-win-crt-runtime-l1-1-0.dll
 0002:000001a0       \177api-ms-win-crt-runtime-l1-1-0_NULL_THUNK_DATA 00000001801d61a0     ucrt:api-ms-win-crt-runtime-l1-1-0.dll
 0002:000001a8       __imp___acrt_iob_func      00000001801d61a8     ucrt:api-ms-win-crt-stdio-l1-1-0.dll
 0002:000001b0       __imp___stdio_common_vfprintf 00000001801d61b0     ucrt:api-ms-win-crt-stdio-l1-1-0.dll
 0002:000001b8       \177api-ms-win-crt-stdio-l1-1-0_NULL_THUNK_DATA 00000001801d61b8     ucrt:api-ms-win-crt-stdio-l1-1-0.dll
 0002:000001c0       __guard_check_icall_fptr   00000001801d61c0     MSVCRT:guard_support.obj
 0002:000001c8       __guard_xfg_check_icall_fptr 00000001801d61c8     MSVCRT:guard_support.obj
 0002:000001d0       __guard_dispatch_icall_fptr 00000001801d61d0     MSVCRT:guard_support.obj
 0002:000001d8       __guard_xfg_dispatch_icall_fptr 00000001801d61d8     MSVCRT:guard_support.obj
 0002:000001e0       __guard_xfg_table_dispatch_icall_fptr 00000001801d61e0     MSVCRT:guard_support.obj
 0002:000001e8       __castguard_check_failure_os_handled_fptr 00000001801d61e8     MSVCRT:guard_support.obj
 0002:000001f0       __guard_memcpy_fptr        00000001801d61f0     vcruntime:softmemtag.obj
 0002:000001f8       __xc_a                     00000001801d61f8     MSVCRT:initializers.obj
 0002:00001cf0       __xc_z                     00000001801d7cf0     MSVCRT:initializers.obj
 0002:00001cf8       __xi_a                     00000001801d7cf8     MSVCRT:initializers.obj
 0002:00001d00       __xi_z                     00000001801d7d00     MSVCRT:initializers.obj
 0002:00001d08       __xp_a                     00000001801d7d08     MSVCRT:initializers.obj
 0002:00001d10       __xp_z                     00000001801d7d10     MSVCRT:initializers.obj
 0002:00001d18       __xt_a                     00000001801d7d18     MSVCRT:initializers.obj
 0002:00001d20       __xt_z                     00000001801d7d20     MSVCRT:initializers.obj
 0002:00001d30       ??_7PxCollection@physx@@6B@ 00000001801d7d30     CmCollection.obj
 0002:00001db0       ??_C@_00CNPNBAHC@@         00000001801d7db0     CmCollection.obj
 0002:00001db8       ??_7Collection@Cm@physx@@6B@ 00000001801d7db8     CmCollection.obj
 0002:00001e40       ??_C@_0GE@GBACBMOC@PxCollection?3?3add?5called?5for?5an@ 00000001801d7e40     CmCollection.obj
 0002:00001ea8       ??_C@_0DP@KOHFCGNC@D?3?2Projects?2PhysXRepo?2physx?2sou@ 00000001801d7ea8     CmCollection.obj
 0002:00001ef0       ??_C@_0EM@OMMGDOMK@PxCollection?3?3add?5called?5with?5a@ 00000001801d7ef0     CmCollection.obj
 0002:00001f40       ??_C@_0EB@PPMDPHFD@D?3?2Projects?2PhysXRepo?2physx?2inc@ 00000001801d7f40     CmCollection.obj
 0002:00001f88       ??_C@_0BM@OIFKLHDN@?$DMallocation?5names?5disabled?$DO@ 00000001801d7f88     CmCollection.obj
 0002:00001fa8       ??_7RadixSort@Cm@physx@@6B@ 00000001801d7fa8     CmRadixSort.obj
 0002:00001fb0       ??_7RadixSortBuffered@Cm@physx@@6B@ 00000001801d7fb0     CmRadixSort.obj
 0002:00001fb8       ??_C@_0DO@HMNMPKNJ@D?3?2Projects?2PhysXRepo?2physx?2sou@ 00000001801d7fb8     CmRadixSort.obj
 0002:00002000       __xmm@00000001000000010000000100000001 00000001801d8000     CmRadixSort.obj
 0002:00002010       __xmm@00000003000000020000000100000000 00000001801d8010     CmRadixSort.obj
 0002:00002020       __real@3d4ccccd            00000001801d8020     CmVisualization.obj
 0002:00002024       __real@3e19999a            00000001801d8024     CmVisualization.obj
 0002:00002028       __real@3e490fdb            00000001801d8028     CmVisualization.obj
 0002:0000202c       __real@3e800000            00000001801d802c     CmVisualization.obj
 0002:00002030       __real@3e99999a            00000001801d8030     CmVisualization.obj
 0002:00002034       __real@3ea0d97c            00000001801d8034     CmVisualization.obj
 0002:00002038       __real@3eddb3d7            00000001801d8038     CmVisualization.obj
 0002:0000203c       __real@3f3504f3            00000001801d803c     CmVisualization.obj
 0002:00002040       __real@3f800000            00000001801d8040     CmVisualization.obj
 0002:00002044       __real@3fc00000            00000001801d8044     CmVisualization.obj
 0002:00002048       __real@3fddb3d7            00000001801d8048     CmVisualization.obj
 0002:0000204c       __real@40100000            00000001801d804c     CmVisualization.obj
 0002:00002050       __real@40c90fdb            00000001801d8050     CmVisualization.obj
 0002:00002054       __real@c0000000            00000001801d8054     CmVisualization.obj
 0002:00002060       __xmm@3f800000000000000000000000000000 00000001801d8060     CmVisualization.obj
 0002:00002070       __xmm@7fffffff7fffffff7fffffff7fffffff 00000001801d8070     CmVisualization.obj
 0002:00002080       __xmm@80000000800000008000000080000000 00000001801d8080     CmVisualization.obj
 0002:00002090       ??_C@_0BB@CPDDPFKD@GetUpdatedModule@ 00000001801d8090     CmWindowsModuleUpdateLoader.obj
 0002:000020b0       ??_C@_0FG@NFNFMIKK@D?3?2Projects?2PhysXRepo?2physx?2sou@ 00000001801d80b0     CmWindowsModuleUpdateLoader.obj
 0002:00002108       ??_C@_0CP@PGOIOJOO@?$CFs?3?$CFi?3?5loadLibrary?5error?5when?5l@ 00000001801d8108     CmWindowsModuleUpdateLoader.obj
 0002:00002138       ??_C@_0BA@EGLNOO@PhysXFoundation@ 00000001801d8138     CmWindowsDelayLoadHook.obj
 0002:00002148       ??_C@_0M@ILKNCJKN@PhysXCommon@ 00000001801d8148     CmWindowsDelayLoadHook.obj
 0002:00002180       __real@3f000000            00000001801d8180     GuBox.obj
 0002:00002184       __real@3f7ff972            00000001801d8184     GuBox.obj
 0002:00002190       __xmm@000000003a83126f3a83126f3a83126f 00000001801d8190     GuBox.obj
 0002:000021a0       __xmm@00000000ba83126fba83126fba83126f 00000001801d81a0     GuBox.obj
 0002:000021b0       __xmm@3a83126f3a83126f3a83126f3a83126f 00000001801d81b0     GuBox.obj
 0002:000021c0       __xmm@ba83126fba83126fba83126fba83126f 00000001801d81c0     GuBox.obj
 0002:000021f0       ??_7EntityReport@Gu@physx@@6B@ 00000001801d81f0     GuSweepsHF.obj
 0002:000021f0       ??_7OverlapCallback@PxBVH@physx@@6B@ 00000001801d81f0     GuQuerySystem.obj
 0002:000021f0       ??_7OverlapReport@Gu@physx@@6B@ 00000001801d81f0     GuCCTSweepTests.obj
 0002:000021f0       ??_7RaycastCallback@PxBVH@physx@@6B@ 00000001801d81f0     GuQuerySystem.obj
 0002:000021f0       ??_7RemapCallback@RTreeCooker@physx@@6B@ 00000001801d81f0     GuCookingTriangleMesh.obj
 0002:00002210       __real@3b03126f            00000001801d8210     GuCCTSweepTests.obj
 0002:00002214       __real@40000000            00000001801d8214     GuCCTSweepTests.obj
 0002:00002250       ??_7SupportLocal@Gu@physx@@6B@ 00000001801d8250     GuGeometryQuery.obj
 0002:00002270       ??_7?$SupportLocalImpl@VBoxV@Gu@physx@@@Gu@physx@@6B@ 00000001801d8270     GuGeometryQuery.obj
 0002:00002290       ??_7?$SupportLocalImpl@VConvexHullV@Gu@physx@@@Gu@physx@@6B@ 00000001801d8290     GuGeometryQuery.obj
 0002:000022b0       ??_C@_0DJ@MKLDLIHF@D?3?2Projects?2PhysXRepo?2physx?2inc@ 00000001801d82b0     GuGeometryQuery.obj
 0002:000022ec       __real@2edbe6fe            00000001801d82ec     GuGeometryQuery.obj
 0002:000022f0       __real@30d1b7e9            00000001801d82f0     GuGeometryQuery.obj
 0002:000022f4       __real@322bcc77            00000001801d82f4     GuGeometryQuery.obj
 0002:000022f8       __real@34000000            00000001801d82f8     GuGeometryQuery.obj
 0002:000022fc       __real@358637bd            00000001801d82fc     GuGeometryQuery.obj
 0002:00002300       __real@3727c5ac            00000001801d8300     GuGeometryQuery.obj
 0002:00002304       __real@38d1b717            00000001801d8304     GuGeometryQuery.obj
 0002:00002308       __real@3a83126f            00000001801d8308     GuGeometryQuery.obj
 0002:0000230c       __real@3c23d70a            00000001801d830c     GuGeometryQuery.obj
 0002:00002310       __real@3ccccccd            00000001801d8310     GuGeometryQuery.obj
 0002:00002314       __real@3dcccccd            00000001801d8314     GuGeometryQuery.obj
 0002:00002318       __real@3e0f5c29            00000001801d8318     GuGeometryQuery.obj
 0002:0000231c       __real@3f7d70a4            00000001801d831c     GuGeometryQuery.obj
 0002:00002320       __real@49742400            00000001801d8320     GuGeometryQuery.obj
 0002:00002324       __real@7f7fffff            00000001801d8324     GuGeometryQuery.obj
 0002:00002328       __real@b727c5ac            00000001801d8328     GuGeometryQuery.obj
 0002:0000232c       __real@bf000000            00000001801d832c     GuGeometryQuery.obj
 0002:00002330       __real@bf7d70a4            00000001801d8330     GuGeometryQuery.obj
 0002:00002334       __real@bf800000            00000001801d8334     GuGeometryQuery.obj
 0002:00002338       __real@ff7fffff            00000001801d8338     GuGeometryQuery.obj
 0002:00002340       __xmm@0000000000000000000000003f800000 00000001801d8340     GuGeometryQuery.obj
 0002:00002350       __xmm@00000000000000003f80000000000000 00000001801d8350     GuGeometryQuery.obj
 0002:00002360       __xmm@00000000000000003f8000003f800000 00000001801d8360     GuGeometryQuery.obj
 0002:00002370       __xmm@000000003f8000000000000000000000 00000001801d8370     GuGeometryQuery.obj
 0002:00002380       __xmm@000000003f8000003f8000003f800000 00000001801d8380     GuGeometryQuery.obj
 0002:00002390       __xmm@00000000ffffffffffffffffffffffff 00000001801d8390     GuGeometryQuery.obj
 0002:000023a0       __xmm@3d4ccccd3d4ccccd3d4ccccd3d4ccccd 00000001801d83a0     GuGeometryQuery.obj
 0002:000023b0       __xmm@3e19999a3e19999a3e19999a3e19999a 00000001801d83b0     GuGeometryQuery.obj
 0002:000023c0       __xmm@3e4ccccd3e4ccccd3e4ccccd3e4ccccd 00000001801d83c0     GuGeometryQuery.obj
 0002:000023d0       __xmm@3e8000003e8000003e8000003e800000 00000001801d83d0     GuGeometryQuery.obj
 0002:000023e0       __xmm@3f7ef9db3f7ef9db3f7ef9db3f7ef9db 00000001801d83e0     GuGeometryQuery.obj
 0002:000023f0       __xmm@3f7ff2e53f7ff2e53f7ff2e53f7ff2e5 00000001801d83f0     GuGeometryQuery.obj
 0002:00002400       __xmm@3f8000003f8000003f8000003f800000 00000001801d8400     GuGeometryQuery.obj
 0002:00002410       __xmm@7f7fffff7f7fffff7f7fffff7f7fffff 00000001801d8410     GuGeometryQuery.obj
 0002:00002420       __xmm@bf000000bf000000bf000000bf000000 00000001801d8420     GuGeometryQuery.obj
 0002:00002470       ??_C@_0ED@DADJJEDJ@D?3?2Projects?2PhysXRepo?2physx?2sou@ 00000001801d8470     GuMeshFactory.obj
 0002:000024b8       ??_7CallbackRaycast@RTree@Gu@physx@@6B@ 00000001801d84b8     GuMidphaseRTree.obj
 0002:000024b8       ??_7CallbackRefit@RTree@Gu@physx@@6B@ 00000001801d84b8     GuTriangleMeshRTree.obj
 0002:000024b8       ??_7PxInsertionCallback@physx@@6B@ 00000001801d84b8     GuMeshFactory.obj
 0002:000024e0       ??_C@_0EM@BDFDGBD@Inserting?5object?5failed?3?5Object@ 00000001801d84e0     GuMeshFactory.obj
 0002:00002530       ??_7PxCollisionMeshMappingData@physx@@6B@ 00000001801d8530     GuMeshFactory.obj
 0002:00002540       ??_7MeshFactory@Gu@physx@@6B@ 00000001801d8540     GuMeshFactory.obj
 0002:00002548       ??_7MeshDataBase@Gu@physx@@6B@ 00000001801d8548     GuMeshFactory.obj
 0002:00002550       ??_C@_0ED@NOOPJKLO@D?3?2Projects?2PhysXRepo?2physx?2sou@ 00000001801d8550     GuMeshFactory.obj
 0002:00002598       ??_7TriangleMeshData@Gu@physx@@6B@ 00000001801d8598     GuMeshFactory.obj
 0002:000025a0       ??_7RTreeTriangleData@Gu@physx@@6B@ 00000001801d85a0     GuMeshFactory.obj
 0002:000025a8       ??_7BV4TriangleData@Gu@physx@@6B@ 00000001801d85a8     GuMeshFactory.obj
 0002:000025b0       ??_7DeformableVolumeCollisionData@Gu@physx@@6B@ 00000001801d85b0     GuMeshFactory.obj
 0002:000025b8       ??_7CollisionMeshMappingData@Gu@physx@@6B@ 00000001801d85b8     GuMeshFactory.obj
 0002:000025c8       ??_7DeformableVolumeSimulationData@Gu@physx@@6B@ 00000001801d85c8     GuMeshFactory.obj
 0002:000025d0       ??_C@_0GP@NHELMDAL@Loading?5triangle?5mesh?5failed?3?5D@ 00000001801d85d0     GuMeshFactory.obj
 0002:00002640       ??_C@_0BP@CDOKDACA@RTree?5binary?5image?5load?5error?4@ 00000001801d8640     GuMeshFactory.obj
 0002:00002660       ??_C@_0BN@MJPNIELF@BV4?5binary?5image?5load?5error?4@ 00000001801d8660     GuMeshFactory.obj
 0002:00002680       ??_C@_0BO@JDPABAOF@BV32?5binary?5image?5load?5error?4@ 00000001801d8680     GuMeshFactory.obj
 0002:000026a0       ??_C@_0DJ@MDNOLBAM@D?3?2Projects?2PhysXRepo?2physx?2inc@ 00000001801d86a0     GuMeshFactory.obj
 0002:000026e0       __xmm@fe7fffff7e7fffff7e7fffff7e7fffff 00000001801d86e0     GuMeshFactory.obj
 0002:000026f0       ??_7?$SupportLocalImpl@VConvexHullNoScaleV@Gu@physx@@@Gu@physx@@6B@ 00000001801d86f0     GuMTD.obj
 0002:00002730       ?absMask@?1??FAbs@aos@physx@@YA?AT__m128@@T4@@Z@4QBIB 00000001801d8730     GuMTD.obj
 0002:00002740       ??_7GjkConvex@Gu@physx@@6B@ 00000001801d8740     GuMTD.obj
 0002:00002770       ??_7?$LocalConvex@VCapsuleV@Gu@physx@@@Gu@physx@@6B@ 00000001801d8770     GuMTD.obj
 0002:000027a0       ??_7?$LocalConvex@VConvexHullV@Gu@physx@@@Gu@physx@@6B@ 00000001801d87a0     GuMTD.obj
 0002:000027d0       __real@2edbe6ff            00000001801d87d0     GuMTD.obj
 0002:000027e0       __xmm@28800000288000002880000028800000 00000001801d87e0     GuMTD.obj
 0002:000027f0       __xmm@34000000340000003400000034000000 00000001801d87f0     GuMTD.obj
 0002:00002800       __xmm@358637bd358637bd358637bd358637bd 00000001801d8800     GuMTD.obj
 0002:00002810       __xmm@3dcccccd3dcccccd3dcccccd3dcccccd 00000001801d8810     GuMTD.obj
 0002:00002820       __xmm@3f7ff1413f7ff1413f7ff1413f7ff141 00000001801d8820     GuMTD.obj
 0002:00002830       ??_7?$RelativeConvex@VBoxV@Gu@physx@@@Gu@physx@@6B@ 00000001801d8830     GuOverlapTests.obj
 0002:00002860       ??_7?$RelativeConvex@VConvexHullV@Gu@physx@@@Gu@physx@@6B@ 00000001801d8860     GuOverlapTests.obj
 0002:000028c0       ??_7Support@PxGjkQuery@physx@@6B@ 00000001801d88c0     GuRaycastTests.obj
 0002:00002928       __real@1e3ce508            00000001801d8928     GuRaycastTests.obj
 0002:0000292c       __real@28800000            00000001801d892c     GuRaycastTests.obj
 0002:00002930       __real@33d6bf95            00000001801d8930     GuRaycastTests.obj
 0002:00002934       __real@3f0147ae            00000001801d8934     GuRaycastTests.obj
 0002:00002938       __real@3f7ffffe            00000001801d8938     GuRaycastTests.obj
 0002:0000293c       __real@3f800347            00000001801d893c     GuRaycastTests.obj
 0002:00002940       __real@41200000            00000001801d8940     GuRaycastTests.obj
 0002:00002944       __real@80000000            00000001801d8944     GuRaycastTests.obj
 0002:00002948       __real@b3d6bf95            00000001801d8948     GuRaycastTests.obj
 0002:0000294c       __real@b8d1b717            00000001801d894c     GuRaycastTests.obj
 0002:00002950       __real@c1200000            00000001801d8950     GuRaycastTests.obj
 0002:00002990       ??_7?$MeshHitCallback@UPxGeomRaycastHit@physx@@@Gu@physx@@6B@ 00000001801d8990     GuSweepMTD.obj
 0002:000029a0       ??_7MeshMTDGenerationCallback@@6B@ 00000001801d89a0     GuSweepMTD.obj
 0002:000029b0       ??_7MidPhaseQueryLocalReport@@6B@ 00000001801d89b0     GuSweepMTD.obj
 0002:000029c0       __real@3f8147ae            00000001801d89c0     GuSweepMTD.obj
 0002:000029c4       __real@3f933333            00000001801d89c4     GuSweepMTD.obj
 0002:000029f0       __real@42c80000            00000001801d89f0     GuSweepSharedTests.obj
 0002:00002a00       __xmm@ffffffffffffffffffffffffffffffff 00000001801d8a00     GuSweepSharedTests.obj
 0002:00002ab0       ??_7?$LocalConvex@VBoxV@Gu@physx@@@Gu@physx@@6B@ 00000001801d8ab0     GuSweepTests.obj
 0002:00002ae0       ??_7?$LocalConvex@VTriangleV@Gu@physx@@@Gu@physx@@6B@ 00000001801d8ae0     GuSweepTests.obj
 0002:00002b38       __real@00000000            00000001801d8b38     GuSweepTests.obj
 0002:00002b40       __xmm@00000002000000020000000200000002 00000001801d8b40     GuSweepTests.obj
 0002:00002b50       __xmm@3eaaaa9f3eaaaa9f3eaaaa9f3eaaaa9f 00000001801d8b50     GuSweepTests.obj
 0002:00002c08       ??_7PxRunnable@physx@@6B@  00000001801d8c08     GuSDF.obj
 0002:00002c18       ??_C@_0DL@OGFMJGIH@D?3?2Projects?2PhysXRepo?2physx?2sou@ 00000001801d8c18     GuSDF.obj
 0002:00002c58       ??_7PointOntoTriangleMeshProjector@Gu@physx@@6B@ 00000001801d8c58     GuSDF.obj
 0002:00002c70       ??_7?$PxThreadT@V?$PxReflectionAllocator@VPxThreadImpl@physx@@@physx@@@physx@@6B@ 00000001801d8c70     GuSDF.obj
 0002:00002c80       ??_C@_06FJHNOCKE@thread@   00000001801d8c80     GuSDF.obj
 0002:00002c90       ??_C@_0BAK@OPLLKLNG@SDF?5creation?3?5Mesh?5is?5not?5suita@ 00000001801d8c90     GuSDF.obj
 0002:00002da0       ??_C@_0FB@OMEANACP@SDF?5creation?3?5Input?5mesh?5is?5not@ 00000001801d8da0     GuSDF.obj
 0002:00002e00       ??_C@_0EC@LILMFABM@No?5distance?5data?5available?5?$CInul@ 00000001801d8e00     GuSDF.obj
 0002:00002e50       ??_C@_0EF@PBPCGDDJ@No?5sparse?5grid?5data?5available?5?$CI@ 00000001801d8e50     GuSDF.obj
 0002:00002e98       ??_C@_0DK@MNBCCKAH@D?3?2Projects?2PhysXRepo?2physx?2inc@ 00000001801d8e98     GuSDF.obj
 0002:00002ed8       ??_C@_0DI@KNANPNCC@D?3?2Projects?2PhysXRepo?2physx?2inc@ 00000001801d8ed8     GuSDF.obj
 0002:00002f10       ??_C@_0EB@BNPOAEFC@D?3?2Projects?2PhysXRepo?2physx?2inc@ 00000001801d8f10     GuSDF.obj
 0002:00002f54       __real@37800080            00000001801d8f54     GuSDF.obj
 0002:00002f58       __real@3b808081            00000001801d8f58     GuSDF.obj
 0002:00002f5c       __real@3e2aaaab            00000001801d8f5c     GuSDF.obj
 0002:00002f60       __real@3eaaaaab            00000001801d8f60     GuSDF.obj
 0002:00002f64       __real@7e7fffff            00000001801d8f64     GuSDF.obj
 0002:00002f68       __real@fe7fffff            00000001801d8f68     GuSDF.obj
 0002:00002f70       __xmm@00000001000000010000000100000000 00000001801d8f70     GuSDF.obj
 0002:00002fa0       ??_7?$RelativeConvex@UCustomConvexV@@@Gu@physx@@6B@ 00000001801d8fa0     GuGjkQuery.obj
 0002:00002fd0       ??_7?$LocalConvex@UCustomConvexV@@@Gu@physx@@6B@ 00000001801d8fd0     GuGjkQuery.obj
 0002:00003000       ??_7?$LocalConvex@UPointConvexV@@@Gu@physx@@6B@ 00000001801d9000     GuGjkQuery.obj
 0002:00003050       __real@3da2f983            00000001801d9050     GuWindingNumber.obj
 0002:00003054       __real@3e22f983            00000001801d9054     GuWindingNumber.obj
 0002:00003058       __real@3f99999a            00000001801d9058     GuWindingNumber.obj
 0002:00003080       __real@38aaaaab            00000001801d9080     GuConvexGeometry.obj
 0002:00003084       __real@3d000000            00000001801d9084     GuConvexGeometry.obj
 0002:00003088       __real@3daaaaab            00000001801d9088     GuConvexGeometry.obj
 0002:0000308c       __real@3ecccccd            00000001801d908c     GuConvexGeometry.obj
 0002:00003090       __real@3fc90fdb            00000001801d9090     GuConvexGeometry.obj
 0002:00003094       __real@40400000            00000001801d9094     GuConvexGeometry.obj
 0002:00003098       __real@40490fdb            00000001801d9098     GuConvexGeometry.obj
 0002:0000309c       __real@40860a92            00000001801d909c     GuConvexGeometry.obj
 0002:000030a0       __xmm@3f800000bf8000003f8000003f800000 00000001801d90a0     GuConvexGeometry.obj
 0002:000030b0       __xmm@bf8000003f800000bf800000bf800000 00000001801d90b0     GuConvexGeometry.obj
 0002:00003140       __real@3c343958            00000001801d9140     GuCCDSweepConvexMesh.obj
 0002:00003144       __real@3ca3d70a            00000001801d9144     GuCCDSweepConvexMesh.obj
 0002:00003148       __real@3f0ccccd            00000001801d9148     GuCCDSweepConvexMesh.obj
 0002:0000314c       __real@3f8ccccd            00000001801d914c     GuCCDSweepConvexMesh.obj
 0002:00003150       __real@b58637bd            00000001801d9150     GuCCDSweepConvexMesh.obj
 0002:00003180       ??_7?$RelativeConvex@VCapsuleV@Gu@physx@@@Gu@physx@@6B@ 00000001801d9180     GuCCDSweepPrimitives.obj
 0002:000031b0       ??_7?$RelativeConvex@VTriangleV@Gu@physx@@@Gu@physx@@6B@ 00000001801d91b0     GuCCDSweepPrimitives.obj
 0002:000031e0       __real@3ba3d70a            00000001801d91e0     GuCCDSweepPrimitives.obj
 0002:000031e4       __real@501502f9            00000001801d91e4     GuCCDSweepPrimitives.obj
 0002:00003210       ??_C@_0EK@KFIDBKDM@D?3?2Projects?2PhysXRepo?2physx?2sou@ 00000001801d9210     GuAdjacencies.obj
 0002:00003260       ??_C@_0DA@FMEHLBKI@Adjacencies?3?3UpdateLink?3?5invali@ 00000001801d9260     GuAdjacencies.obj
 0002:00003290       ??_C@_0EA@CPHOACLK@Adjacencies?3?3CreateDatabase?3?5ca@ 00000001801d9290     GuAdjacencies.obj
 0002:000032d0       ??_C@_0EH@INKOGLKB@D?3?2Projects?2PhysXRepo?2physx?2sou@ 00000001801d92d0     GuEdgeList.obj
 0002:00003318       ??_C@_0CO@GBNJFPN@EdgeList?3?3CreateFacesToEdges?3?5N@ 00000001801d9318     GuEdgeList.obj
 0002:00003348       ??_C@_0CO@EHJBBMNK@EdgeList?3?3ComputeActiveEdges?3?5N@ 00000001801d9348     GuEdgeList.obj
 0002:00003378       ??_C@_0DI@GBHLFOFP@ActiveEdges?3?3ComputeConvexEdges@ 00000001801d9378     GuEdgeList.obj
 0002:000033b0       ??_C@_0DM@JOGBLHDI@ActiveEdges?3?3ComputeConvexEdges@ 00000001801d93b0     GuEdgeList.obj
 0002:000033f0       ??_C@_0ED@FEMJKPEL@ActiveEdges?3?3ComputeConvexEdges@ 00000001801d93f0     GuEdgeList.obj
 0002:00003440       ??_C@_0EB@BFDPMFCD@ActiveEdges?3?3ComputeConvexEdges@ 00000001801d9440     GuEdgeList.obj
 0002:00003484       __real@bf7fbe77            00000001801d9484     GuEdgeList.obj
 0002:00003488       ??_7Quantizer@Gu@physx@@6B@ 00000001801d9488     GuQuantizer.obj
 0002:000034b0       ??_7QuantizerImpl@@6B@     00000001801d94b0     GuQuantizer.obj
 0002:000034e0       ??_C@_0EI@GILBEIPH@D?3?2Projects?2PhysXRepo?2physx?2sou@ 00000001801d94e0     GuQuantizer.obj
 0002:00003528       __real@3f0020c5            00000001801d9528     GuQuantizer.obj
 0002:0000352c       __real@3f8020c5            00000001801d952c     GuQuantizer.obj
 0002:00003530       ??_C@_0EK@IANIDHGI@D?3?2Projects?2PhysXRepo?2physx?2sou@ 00000001801d9530     GuMeshCleaner.obj
 0002:0000357c       __real@40800000            00000001801d957c     GuMeshCleaner.obj
 0002:00003580       ??_C@_0EM@MDFGJENC@D?3?2Projects?2PhysXRepo?2physx?2sou@ 00000001801d9580     GuVertexReducer.obj
 0002:000036d0       __real@3f7fbe77            00000001801d96d0     GuContactBoxBox.obj
 0002:00003720       __real@3f7ff2e5            00000001801d9720     GuContactCapsuleCapsule.obj
 0002:000037b0       __real@358637be            00000001801d97b0     GuContactCapsuleMesh.obj
 0002:000037b4       __real@ba83126f            00000001801d97b4     GuContactCapsuleMesh.obj
 0002:00003810       ??_7ConvexMeshContactGenerationCallback@@6B@ 00000001801d9810     GuContactConvexMesh.obj
 0002:00003880       __real@3f7fff58            00000001801d9880     GuContactConvexCoreMesh.obj
 0002:00003930       ??_C@_0DK@IJDGGDML@D?3?2Projects?2PhysXRepo?2physx?2inc@ 00000001801d9930     GuContactPlaneMesh.obj
 0002:00003990       __real@3ec90fdb            00000001801d9990     GuContactPolygonPolygon.obj
 0002:00003994       __real@3f490fdb            00000001801d9994     GuContactPolygonPolygon.obj
 0002:00003998       __real@3f96cbe4            00000001801d9998     GuContactPolygonPolygon.obj
 0002:0000399c       __real@3ffb53d2            00000001801d999c     GuContactPolygonPolygon.obj
 0002:000039a0       __real@4016cbe4            00000001801d99a0     GuContactPolygonPolygon.obj
 0002:000039a4       __real@402feddf            00000001801d99a4     GuContactPolygonPolygon.obj
 0002:000039d0       __real@3b800000            00000001801d99d0     GuContactMeshMesh.obj
 0002:000039d4       __real@3ed64e4c            00000001801d99d4     GuContactMeshMesh.obj
 0002:000039d8       __real@3f12648a            00000001801d99d8     GuContactMeshMesh.obj
 0002:000039dc       __real@3f349e9b            00000001801d99dc     GuContactMeshMesh.obj
 0002:000039e0       __real@3f4ccccd            00000001801d99e0     GuContactMeshMesh.obj
 0002:000039e4       __real@3f59999a            00000001801d99e4     GuContactMeshMesh.obj
 0002:000039e8       __real@3f7fdf3b            00000001801d99e8     GuContactMeshMesh.obj
 0002:00003a50       ??_C@_0EM@JBNFPAPG@D?3?2Projects?2PhysXRepo?2physx?2sou@ 00000001801d9a50     GuBigConvexData.obj
 0002:00003ac0       ??_C@_06EJKDJEDO@PxBase@   00000001801d9ac0     GuConvexMesh.obj
 0002:00003ac8       ??_C@_0N@CDGINLLF@PxConvexMesh@ 00000001801d9ac8     GuConvexMesh.obj
 0002:00003ad8       ??_7PxBase@physx@@6B@      00000001801d9ad8     GuConvexMesh.obj
 0002:00003b00       ??_C@_0CE@IDAGNPDH@isKindOf?5called?5with?5invalid?5st@ 00000001801d9b00     GuConvexMesh.obj
 0002:00003b28       ??_C@_0N@OPPDBGAG@PxRefCounted@ 00000001801d9b28     GuConvexMesh.obj
 0002:00003b38       ??_C@_0DM@JACBKAFA@D?3?2Projects?2PhysXRepo?2physx?2inc@ 00000001801d9b38     GuConvexMesh.obj
 0002:00003b78       ??_7ConvexMesh@Gu@physx@@6B@ 00000001801d9b78     GuConvexMesh.obj
 0002:00003c10       ??_C@_0EJ@PMINFHIL@D?3?2Projects?2PhysXRepo?2physx?2sou@ 00000001801d9c10     GuConvexMesh.obj
 0002:00003c60       ??_C@_0DM@NEJKOFIP@Loading?5convex?5mesh?5failed?3?5Dep@ 00000001801d9c60     GuConvexMesh.obj
 0002:00003ca0       ??_C@_0DB@PAHEPIEL@PxConvexMesh?3?3release?3?5double?5d@ 00000001801d9ca0     GuConvexMesh.obj
 0002:00003ce0       ??_C@_0EB@LFNLENJ@D?3?2Projects?2PhysXRepo?2physx?2sou@ 00000001801d9ce0     GuConvexMesh.obj
 0002:00003d50       __xmm@000000000000000000000000ffffffff 00000001801d9d50     GuConvexSupportTable.obj
 0002:00003d60       __xmm@0000000000000000ffffffff00000000 00000001801d9d60     GuConvexSupportTable.obj
 0002:00003d70       __xmm@0000000000000000ffffffffffffffff 00000001801d9d70     GuConvexSupportTable.obj
 0002:00003d80       __xmm@00000000ffffffff0000000000000000 00000001801d9d80     GuConvexSupportTable.obj
 0002:00003d90       __xmm@00000000ffffffff00000000ffffffff 00000001801d9d90     GuConvexSupportTable.obj
 0002:00003da0       __xmm@00000000ffffffffffffffff00000000 00000001801d9da0     GuConvexSupportTable.obj
 0002:00003e30       __xmm@2b8cbccc2b8cbccc2b8cbccc2b8cbccc 00000001801d9e30     GuDistancePointTriangle.obj
 0002:00003e80       __xmm@3f0000003f0000003f0000003f000000 00000001801d9e80     GuDistanceSegmentSegment.obj
 0002:00003eb0       __real@2b8cbccc            00000001801d9eb0     GuDistanceSegmentTriangle.obj
 0002:00003ec0       __xmm@3f8000013f8000013f8000013f800001 00000001801d9ec0     GuDistanceSegmentTriangle.obj
 0002:00003ed0       __xmm@b4000000b4000000b4000000b4000000 00000001801d9ed0     GuDistanceSegmentTriangle.obj
 0002:00003f00       __real@26901d7d            00000001801d9f00     GuDistanceTriangleTriangle.obj
 0002:00003f80       __xmm@38d1b71738d1b71738d1b71738d1b717 00000001801d9f80     GuGJKSimplex.obj
 0002:00003fb0       ??_C@_0O@PBAKPCEC@PxHeightField@ 00000001801d9fb0     GuHeightField.obj
 0002:00003fc0       ??_C@_0DN@IBOJDOFP@D?3?2Projects?2PhysXRepo?2physx?2inc@ 00000001801d9fc0     GuHeightField.obj
 0002:00004000       ??_7HeightField@Gu@physx@@6B@ 00000001801da000     GuHeightField.obj
 0002:000040b8       ??_C@_0DC@BDMMBOKH@PxHeightField?3?3release?3?5double?5@ 00000001801da0b8     GuHeightField.obj
 0002:000040f0       ??_C@_0EG@DFNKIEAM@D?3?2Projects?2PhysXRepo?2physx?2sou@ 00000001801da0f0     GuHeightField.obj
 0002:00004138       ??_C@_0CI@DMKEKGNK@Gu?3?3HeightField?3?3load?3?5PX_ALLOC@ 00000001801da138     GuHeightField.obj
 0002:00004180       __real@3a03126f            00000001801da180     GuHeightFieldUtil.obj
 0002:00004184       __real@3f19999a            00000001801da184     GuHeightFieldUtil.obj
 0002:00004190       __xmm@40000000000000000000000000000000 00000001801da190     GuHeightFieldUtil.obj
 0002:00004220       ??_7HeightFieldTraceSegmentReport@@6B@ 00000001801da220     GuSweepsHF.obj
 0002:00004230       ??_7CapsuleTraceSegmentReport@@6B@ 00000001801da230     GuSweepsHF.obj
 0002:00004240       ??_7ConvexTraceSegmentReport@@6B@ 00000001801da240     GuSweepsHF.obj
 0002:00004250       ??_7BoxTraceSegmentReport@@6B@ 00000001801da250     GuSweepsHF.obj
 0002:00004260       __real@aedbe6ff            00000001801da260     GuSweepsHF.obj
 0002:00004290       __real@3089705f            00000001801da290     GuIntersectionRayBox.obj
 0002:00004294       __real@b4000000            00000001801da294     GuIntersectionRayBox.obj
 0002:000042a0       __xmm@000000003089705f3089705f3089705f 00000001801da2a0     GuIntersectionRayBox.obj
 0002:000042b0       __xmm@00000000bf800000bf800000bf800000 00000001801da2b0     GuIntersectionRayBox.obj
 0002:00004300       ??_7SourceMeshBase@Gu@physx@@6B@ 00000001801da300     GuBV4.obj
 0002:00004328       ??_7SourceMesh@Gu@physx@@6B@ 00000001801da328     GuBV4.obj
 0002:00004350       ??_7TetrahedronSourceMesh@Gu@physx@@6B@ 00000001801da350     GuBV4.obj
 0002:00004380       ??_C@_0EA@LHOBLOBB@D?3?2Projects?2PhysXRepo?2physx?2sou@ 00000001801da380     GuBV4.obj
 0002:000043c0       __xmm@ff7fffffff7fffffff7fffffff7fffff 00000001801da3c0     GuBV4.obj
 0002:000043f0       ??_C@_0EF@MLMLJDKO@D?3?2Projects?2PhysXRepo?2physx?2sou@ 00000001801da3f0     GuBV4Build.obj
 0002:00004438       __real@38000100            00000001801da438     GuBV4Build.obj
 0002:0000443c       __real@3e93cd3a            00000001801da43c     GuBV4Build.obj
 0002:00004440       __real@46fffe00            00000001801da440     GuBV4Build.obj
 0002:00004444       __real@be93cd3a            00000001801da444     GuBV4Build.obj
 0002:00004470       __xmm@0000ffff0000ffff0000ffff0000ffff 00000001801da470     GuBV4_AABBSweep.obj
 0002:00004480       __xmm@3089705f3089705f3089705f3089705f 00000001801da480     GuBV4_AABBSweep.obj
 0002:00004490       __xmm@33d6bf9533d6bf9533d6bf9533d6bf95 00000001801da490     GuBV4_AABBSweep.obj
 0002:000044a0       __xmm@40000000400000004000000040000000 00000001801da4a0     GuBV4_AABBSweep.obj
 0002:00004530       __xmm@322bcc77322bcc77322bcc77322bcc77 00000001801da530     GuBV4_MeshMeshOverlap.obj
 0002:000045a0       __real@4f7fffff            00000001801da5a0     GuBV4_SphereOverlap.obj
 0002:000045f0       __xmm@000000007f7fffff0000000000000000 00000001801da5f0     GuMidphaseBV4.obj
 0002:00004660       ??_C@_0FD@EHCCILIF@Adjacency?5information?5not?5creat@ 00000001801da660     GuMeshQuery.obj
 0002:000046c0       ??_C@_0EG@DGDCHMGH@D?3?2Projects?2PhysXRepo?2physx?2sou@ 00000001801da6c0     GuMeshQuery.obj
 0002:00004710       ??_C@_0FL@BKNMAHIA@PxMeshQuery?3?3findOverlapTriangl@ 00000001801da710     GuMeshQuery.obj
 0002:0000476c       __real@4cbebc20            00000001801da76c     GuMeshQuery.obj
 0002:00004790       ??_7Callback@RTree@Gu@physx@@6B@ 00000001801da790     GuMidphaseRTree.obj
 0002:000047a8       ??_7?$RayRTreeCallback@$00$0A@@@6BCallbackRaycast@RTree@Gu@physx@@@ 00000001801da7a8     GuMidphaseRTree.obj
 0002:000047a8       ??_7?$RayRTreeCallback@$0A@$0A@@@6BCallbackRaycast@RTree@Gu@physx@@@ 00000001801da7a8     GuMidphaseRTree.obj
 0002:000047b8       ??_7?$RayRTreeCallback@$00$0A@@@6BCallback@RTree@Gu@physx@@@ 00000001801da7b8     GuMidphaseRTree.obj
 0002:000047b8       ??_7?$RayRTreeCallback@$0A@$0A@@@6BCallback@RTree@Gu@physx@@@ 00000001801da7b8     GuMidphaseRTree.obj
 0002:000047d0       ??_7RayMeshColliderCallback@@6B@ 00000001801da7d0     GuMidphaseRTree.obj
 0002:000047e0       ??_C@_0EN@DPPFLBLF@Point?9mesh?5distance?5query?5not?5s@ 00000001801da7e0     GuMidphaseRTree.obj
 0002:00004830       ??_C@_0EK@OBFLPEEO@D?3?2Projects?2PhysXRepo?2physx?2sou@ 00000001801da830     GuMidphaseRTree.obj
 0002:00004880       ??_7?$RayRTreeCallback@$0A@$00@@6BCallbackRaycast@RTree@Gu@physx@@@ 00000001801da880     GuMidphaseRTree.obj
 0002:00004890       ??_7?$RayRTreeCallback@$0A@$00@@6BCallback@RTree@Gu@physx@@@ 00000001801da890     GuMidphaseRTree.obj
 0002:000048a8       ??_7?$RayRTreeCallback@$00$00@@6BCallbackRaycast@RTree@Gu@physx@@@ 00000001801da8a8     GuMidphaseRTree.obj
 0002:000048b8       ??_7?$RayRTreeCallback@$00$00@@6BCallback@RTree@Gu@physx@@@ 00000001801da8b8     GuMidphaseRTree.obj
 0002:00004930       __xmm@7f7fffff000000000000000000000000 00000001801da930     GuMidphaseRTree.obj
 0002:000049a0       ??_7PxReportCallbackBase@physx@@6B@ 00000001801da9a0     GuOverlapTestsMesh.obj
 0002:000049d0       ??_C@_0EP@CEFGCJKJ@PxGeometryQuery?3?3overlap?$CI?$CJ?3?5onl@ 00000001801da9d0     GuOverlapTestsMesh.obj
 0002:00004a20       ??_C@_0EN@MMDHONAN@D?3?2Projects?2PhysXRepo?2physx?2sou@ 00000001801daa20     GuOverlapTestsMesh.obj
 0002:00004aa0       ?MN@RTreePage@Gu@physx@@2MB 00000001801daaa0     GuRTree.obj
 0002:00004aa4       ?MX@RTreePage@Gu@physx@@2MB 00000001801daaa4     GuRTree.obj
 0002:00004ab0       ??_C@_0EC@LHLODCJN@D?3?2Projects?2PhysXRepo?2physx?2sou@ 00000001801daab0     GuRTree.obj
 0002:00004b70       ??_7SweepShapeMeshHitCallback@Gu@physx@@6B@ 00000001801dab70     GuSweepsMesh.obj
 0002:00004b80       ??_7SweepCapsuleMeshHitCallback@Gu@physx@@6B@ 00000001801dab80     GuSweepsMesh.obj
 0002:00004b90       ??_7SweepBoxMeshHitCallback@Gu@physx@@6B@ 00000001801dab90     GuSweepsMesh.obj
 0002:00004ba0       ??_7SweepConvexMeshHitCallback@Gu@physx@@6B@ 00000001801daba0     GuSweepsMesh.obj
 0002:00004bd0       ??_C@_0P@GGNFNHKF@PxTriangleMesh@ 00000001801dabd0     GuTriangleMesh.obj
 0002:00004be0       ??_C@_0DO@BMANDHPL@D?3?2Projects?2PhysXRepo?2physx?2inc@ 00000001801dabe0     GuTriangleMesh.obj
 0002:00004c20       ??_7TriangleMesh@Gu@physx@@6B@ 00000001801dac20     GuTriangleMesh.obj
 0002:00004cf8       ??_C@_0DD@LOOPMCGG@PxTriangleMesh?3?3release?3?5double@ 00000001801dacf8     GuTriangleMesh.obj
 0002:00004d30       ??_C@_0FH@PMPAJDGI@PxTriangleMesh?3?3getVerticesForM@ 00000001801dad30     GuTriangleMesh.obj
 0002:00004d90       ??_C@_0EJ@MCNNPIGK@D?3?2Projects?2PhysXRepo?2physx?2sou@ 00000001801dad90     GuTriangleMesh.obj
 0002:00004de0       ??_C@_0EF@GMNFLDH@PxTriangleMesh?3?3refitBVH?$CI?$CJ?5is?5n@ 00000001801dade0     GuTriangleMesh.obj
 0002:00004e30       __xmm@38383838383838383838383838383838 00000001801dae30     GuTriangleMesh.obj
 0002:00004e60       ??_C@_0BE@CNJKIINO@PxBVH34TriangleMesh@ 00000001801dae60     GuTriangleMeshBV4.obj
 0002:00004e78       ??_7BV4TriangleMesh@Gu@physx@@6B@ 00000001801dae78     GuTriangleMeshBV4.obj
 0002:00004f50       ??_C@_0EF@JLFNNPLP@BVH34?5trees?3?5refit?5operation?5on@ 00000001801daf50     GuTriangleMeshBV4.obj
 0002:00004fa0       ??_C@_0EM@FNOPMEHC@D?3?2Projects?2PhysXRepo?2physx?2sou@ 00000001801dafa0     GuTriangleMeshBV4.obj
 0002:00004fec       __real@3951b717            00000001801dafec     GuTriangleMeshBV4.obj
 0002:00005010       ??_C@_0BE@EIFHCCBO@PxBVH33TriangleMesh@ 00000001801db010     GuTriangleMeshRTree.obj
 0002:00005028       ??_7RTreeTriangleMesh@Gu@physx@@6B@ 00000001801db028     GuTriangleMeshRTree.obj
 0002:00005100       ??_7?$RefitCallback@G@physx@@6B@ 00000001801db100     GuTriangleMeshRTree.obj
 0002:00005110       ??_7?$RefitCallback@I@physx@@6B@ 00000001801db110     GuTriangleMeshRTree.obj
 0002:00005140       ??_C@_0EB@BGEECAFN@D?3?2Projects?2PhysXRepo?2physx?2sou@ 00000001801db140     GuBV32.obj
 0002:000051b0       ??_C@_0EG@GDPIKCFC@D?3?2Projects?2PhysXRepo?2physx?2sou@ 00000001801db1b0     GuBV32Build.obj
 0002:00005220       ??_C@_0BC@FDAIDHBP@PxTetrahedronMesh@ 00000001801db220     GuTetrahedronMesh.obj
 0002:00005240       ??_C@_0EB@JCHCMAIO@D?3?2Projects?2PhysXRepo?2physx?2inc@ 00000001801db240     GuTetrahedronMesh.obj
 0002:00005288       ??_C@_0BK@EPBIEMIB@PxDeformableVolumeAuxData@ 00000001801db288     GuTetrahedronMesh.obj
 0002:000052a8       ??_C@_0BH@OHONILPI@PxDeformableVolumeMesh@ 00000001801db2a8     GuTetrahedronMesh.obj
 0002:000052c0       ??_7DeformableVolumeAuxData@Gu@physx@@6B@ 00000001801db2c0     GuTetrahedronMesh.obj
 0002:00005308       ??_7TetrahedronMesh@Gu@physx@@6B@ 00000001801db308     GuTetrahedronMesh.obj
 0002:00005380       ??_7BVTetrahedronMesh@Gu@physx@@6B@ 00000001801db380     GuTetrahedronMesh.obj
 0002:000053f8       ??_7DeformableVolumeMesh@Gu@physx@@6B@ 00000001801db3f8     GuTetrahedronMesh.obj
 0002:00005478       ??_C@_0DG@JJNMDPMD@PxTetrahedronMesh?3?3release?3?5dou@ 00000001801db478     GuTetrahedronMesh.obj
 0002:000054b0       ??_C@_0DL@IHNCIOFH@PxDeformableVolumeMesh?3?3release@ 00000001801db4b0     GuTetrahedronMesh.obj
 0002:000054f0       ??_C@_0EM@LPKMCOOG@D?3?2Projects?2PhysXRepo?2physx?2sou@ 00000001801db4f0     GuTetrahedronMesh.obj
 0002:00005580       __xmm@00000000358637bd358637bd358637bd 00000001801db580     GuPCMContactBoxBox.obj
 0002:00005590       __xmm@3f4ccccd3f4ccccd3f4ccccd3f4ccccd 00000001801db590     GuPCMContactBoxBox.obj
 0002:000055a0       __xmm@3f8003473f8003473f8003473f800347 00000001801db5a0     GuPCMContactBoxBox.obj
 0002:000055b0       __xmm@ffffffff00000000ffffffffffffffff 00000001801db5b0     GuPCMContactBoxBox.obj
 0002:000055e0       ??_7?$LocalConvex@VConvexHullNoScaleV@Gu@physx@@@Gu@physx@@6B@ 00000001801db5e0     GuPCMContactBoxConvex.obj
 0002:00005610       __xmm@3f3504f33f3504f33f3504f33f3504f3 00000001801db610     GuPCMContactBoxConvex.obj
 0002:00005660       __xmm@ffffffffffffffffffffffff00000000 00000001801db660     GuPCMContactCapsuleCapsule.obj
 0002:00005690       __xmm@3fa000003fa000003fa000003fa00000 00000001801db690     GuPCMContactCapsuleConvex.obj
 0002:000056c0       ??_7PCMCapsuleVsHeightfieldContactGenerationCallback@@6B@ 00000001801db6c0     GuPCMContactCapsuleHeightField.obj
 0002:000056d0       __real@3f7f3b64            00000001801db6d0     GuPCMContactCapsuleHeightField.obj
 0002:00005720       __xmm@3f7ff9723f7ff9723f7ff9723f7ff972 00000001801db720     GuPCMContactCapsuleMesh.obj
 0002:00005730       __xmm@3f7fffef3f7fffef3f7fffef3f7fffef 00000001801db730     GuPCMContactCapsuleMesh.obj
 0002:00005740       __xmm@60ad78ec60ad78ec60ad78ec60ad78ec 00000001801db740     GuPCMContactCapsuleMesh.obj
 0002:00005770       ??_7?$SupportLocalImpl@VTriangleV@Gu@physx@@@Gu@physx@@6B@ 00000001801db770     GuPCMContactConvexCommon.obj
 0002:00005790       __xmm@3cf5c2803cf5c2803cf5c2803cf5c280 00000001801db790     GuPCMContactConvexCommon.obj
 0002:000057a0       __xmm@3f7851ec3f7851ec3f7851ec3f7851ec 00000001801db7a0     GuPCMContactConvexCommon.obj
 0002:000057d0       ??_7?$RelativeConvex@VConvexHullNoScaleV@Gu@physx@@@Gu@physx@@6B@ 00000001801db7d0     GuPCMContactConvexConvex.obj
 0002:00005830       __xmm@3f19999a3f19999a3f19999a3f19999a 00000001801db830     GuPCMContactConvexHeightField.obj
 0002:000058a0       __xmm@3f34fdf43f34fdf43f34fdf43f34fdf4 00000001801db8a0     GuPCMContactGenBoxConvex.obj
 0002:000058d0       __xmm@3f80a3d73f80a3d73f80a3d73f80a3d7 00000001801db8d0     GuPCMContactGenSphereCapsule.obj
 0002:000058e0       __xmm@bba3d70abba3d70abba3d70abba3d70a 00000001801db8e0     GuPCMContactGenSphereCapsule.obj
 0002:00005910       __xmm@3f7ffd613f7ffd613f7ffd613f7ffd61 00000001801db910     GuPCMContactPlaneBox.obj
 0002:00005940       __real@3b23d70b            00000001801db940     GuPCMContactPlaneCapsule.obj
 0002:00005950       __xmm@3ca3d70a3ca3d70a3ca3d70a3ca3d70a 00000001801db950     GuPCMContactPlaneCapsule.obj
 0002:00005980       __xmm@3a03126f3a03126f3a03126f3a03126f 00000001801db980     GuPCMContactPlaneConvex.obj
 0002:00005aa0       __xmm@3727c5ac3727c5ac3727c5ac3727c5ac 00000001801dbaa0     GuPCMContactSphereSphere.obj
 0002:00005ad0       __xmm@3f7f06f73f7f06f73f7f06f73f7f06f7 00000001801dbad0     GuPCMContactCustomGeometry.obj
 0002:00005ae0       ?gPCMBoxPolygonData@Gu@physx@@3QBEB 00000001801dbae0     GuPCMShapeConvex.obj
 0002:00005b60       ?invalidateThresholds@Gu@physx@@3QBMB 00000001801dbb60     GuPersistentContactManifold.obj
 0002:00005b78       ?invalidateQuatThresholds@Gu@physx@@3QBMB 00000001801dbb78     GuPersistentContactManifold.obj
 0002:00005b90       ?invalidateThresholds2@Gu@physx@@3QBMB 00000001801dbb90     GuPersistentContactManifold.obj
 0002:00005ba0       ?invalidateQuatThresholds2@Gu@physx@@3QBMB 00000001801dbba0     GuPersistentContactManifold.obj
 0002:00005bb0       __xmm@00000000340000003400000034000000 00000001801dbbb0     GuPersistentContactManifold.obj
 0002:00005bc0       __xmm@000000003f8000003f80000000000000 00000001801dbbc0     GuPersistentContactManifold.obj
 0002:00005bd0       __xmm@00000000bf8000003f80000000000000 00000001801dbbd0     GuPersistentContactManifold.obj
 0002:00005be0       __xmm@ffffffffffffffff00000000ffffffff 00000001801dbbe0     GuPersistentContactManifold.obj
 0002:00005c10       __xmm@c1200000c1200000c1200000c1200000 00000001801dbc10     GuPCMContactGenUtil.obj
 0002:00005d60       ??_C@_0CH@DHJGKCPD@Gu?3?3computeBounds?3?5Unknown?5shap@ 00000001801dbd60     GuBounds.obj
 0002:00005d88       ??_C@_0DO@NBBFJELH@D?3?2Projects?2PhysXRepo?2physx?2sou@ 00000001801dbd88     GuBounds.obj
 0002:00005dc8       __real@34800000            00000001801dbdc8     GuBounds.obj
 0002:00005dcc       __real@3f7fffef            00000001801dbdcc     GuBounds.obj
 0002:00005dd0       __xmm@3f800000800000008000000080000000 00000001801dbdd0     GuBounds.obj
 0002:00005de0       __xmm@3f8147ae3f8147ae3f8147ae3f8147ae 00000001801dbde0     GuBounds.obj
 0002:00005e10       ??_C@_0EA@IIJDPNHB@D?3?2Projects?2PhysXRepo?2physx?2sou@ 00000001801dbe10     GuAABBTree.obj
 0002:00005e50       __xmm@5a60b17f5a60b17f5a60b17f5a60b17f 00000001801dbe50     GuAABBTree.obj
 0002:00005e60       __xmm@da60b17fda60b17fda60b17fda60b17f 00000001801dbe60     GuAABBTree.obj
 0002:00005ed0       ??_C@_0EL@OHBIEMKN@D?3?2Projects?2PhysXRepo?2physx?2sou@ 00000001801dbed0     GuIncrementalAABBTree.obj
 0002:00005f20       ??_C@_0DI@JBDIMLPM@D?3?2Projects?2PhysXRepo?2physx?2inc@ 00000001801dbf20     GuIncrementalAABBTree.obj
 0002:00005f58       ??_C@_0DL@IOGONIFA@D?3?2Projects?2PhysXRepo?2physx?2sou@ 00000001801dbf58     GuSAH.obj
 0002:00005fc0       ??_7PxBVH@physx@@6B@       00000001801dbfc0     GuBVH.obj
 0002:00006038       ??_C@_05OKJNPKBM@PxBVH@    00000001801dc038     GuBVH.obj
 0002:00006040       ??_C@_0DF@NNMBKGKK@D?3?2Projects?2PhysXRepo?2physx?2inc@ 00000001801dc040     GuBVH.obj
 0002:00006078       ??_7RefCountable@Cm@physx@@6B@ 00000001801dc078     GuBVH.obj
 0002:00006088       ??_7BVH@Gu@physx@@6BPxBVH@2@@ 00000001801dc088     GuBVH.obj
 0002:00006100       ??_7BVH@Gu@physx@@6BRefCountable@Cm@2@@ 00000001801dc100     GuBVH.obj
 0002:00006110       ??_C@_0DL@JMAGELKF@D?3?2Projects?2PhysXRepo?2physx?2sou@ 00000001801dc110     GuBVH.obj
 0002:00006150       ??_C@_0CK@HAIOEINI@PxBVH?3?3release?3?5double?5deletion@ 00000001801dc150     GuBVH.obj
 0002:000061a0       ??_C@_0FB@MOCIEFLC@D?3?2Projects?2PhysXRepo?2physx?2sou@ 00000001801dc1a0     GuIncrementalAABBPrunerCore.obj
 0002:000061f4       __real@3f80a3d7            00000001801dc1f4     GuIncrementalAABBPrunerCore.obj
 0002:00006220       ??_7BasePruner@Gu@physx@@6B@ 00000001801dc220     GuIncrementalAABBPruner.obj
 0002:00006238       ??_7IncrementalAABBPruner@Gu@physx@@6B@ 00000001801dc238     GuIncrementalAABBPruner.obj
 0002:000062c0       ??_C@_0EN@BFHHGNGC@D?3?2Projects?2PhysXRepo?2physx?2sou@ 00000001801dc2c0     GuIncrementalAABBPruner.obj
 0002:00006330       ??_C@_0ED@CCKJEBHM@D?3?2Projects?2PhysXRepo?2physx?2sou@ 00000001801dc330     GuPruningPool.obj
 0002:000063c0       ??_7BucketPruner@Gu@physx@@6B@ 00000001801dc3c0     GuBucketPruner.obj
 0002:00006450       ??_C@_0EE@GFDCCJAM@D?3?2Projects?2PhysXRepo?2physx?2sou@ 00000001801dc450     GuBucketPruner.obj
 0002:00006494       __real@bf13cd3a            00000001801dc494     GuBucketPruner.obj
 0002:000064a0       __xmm@000000007e7fffff7e7fffff7e7fffff 00000001801dc4a0     GuBucketPruner.obj
 0002:000064b0       __xmm@00000000fe7ffffffe7ffffffe7fffff 00000001801dc4b0     GuBucketPruner.obj
 0002:000064c0       __xmm@3f13cd3a3f13cd3a3f13cd3a3f13cd3a 00000001801dc4c0     GuBucketPruner.obj
 0002:000064d0       __xmm@bf13cd3abf13cd3abf13cd3a3f13cd3a 00000001801dc4d0     GuBucketPruner.obj
 0002:000064e0       __xmm@bf8000003f8000003f800000bf800000 00000001801dc4e0     GuBucketPruner.obj
 0002:000064f0       __xmm@bf8000003f800000bf8000003f800000 00000001801dc4f0     GuBucketPruner.obj
 0002:00006500       __xmm@bf800000bf8000003f8000003f800000 00000001801dc500     GuBucketPruner.obj
 0002:00006510       __xmm@bf800000bf800000bf8000003f800000 00000001801dc510     GuBucketPruner.obj
 0002:00006520       ?mIndices@MaverickNode@Gu@physx@@2QBIB 00000001801dc520     GuMaverickNode.obj
 0002:00006580       ??_C@_0EM@OLOGONAL@D?3?2Projects?2PhysXRepo?2physx?2sou@ 00000001801dc580     GuExtendedBucketPruner.obj
 0002:000065f0       ??_7CompanionPruner@Gu@physx@@6B@ 00000001801dc5f0     GuSecondaryPruner.obj
 0002:00006670       ??_7CompanionPrunerBucket@@6B@ 00000001801dc670     GuSecondaryPruner.obj
 0002:000066f0       ??_7CompanionPrunerIncremental@@6B@ 00000001801dc6f0     GuSecondaryPruner.obj
 0002:00006770       ??_7CompanionPrunerAABBTree@@6B@ 00000001801dc770     GuSecondaryPruner.obj
 0002:000067f0       ??_C@_0EH@EEPOBOAC@D?3?2Projects?2PhysXRepo?2physx?2sou@ 00000001801dc7f0     GuSecondaryPruner.obj
 0002:00006860       ??_7AABBPruner@Gu@physx@@6B@ 00000001801dc860     GuAABBPruner.obj
 0002:00006900       ??_C@_0LA@IHBEIKND@SceneQuery?5static?5AABB?5Tree?5reb@ 00000001801dc900     GuAABBPruner.obj
 0002:000069b0       ??_C@_0EC@IEJMALOA@D?3?2Projects?2PhysXRepo?2physx?2sou@ 00000001801dc9b0     GuAABBPruner.obj
 0002:00006a00       ??_C@_0EF@MJHMMJHN@D?3?2Projects?2PhysXRepo?2physx?2sou@ 00000001801dca00     GuActorShapeMap.obj
 0002:00006a70       ??_C@_0BF@DNABLJAF@Invalid?5pruner?5index@ 00000001801dca70     GuQuerySystem.obj
 0002:00006a90       ??_C@_0ED@HMMPLJPG@D?3?2Projects?2PhysXRepo?2physx?2sou@ 00000001801dca90     GuQuerySystem.obj
 0002:00006b30       ??_C@_0DP@DAJMCIFA@D?3?2Projects?2PhysXRepo?2physx?2sou@ 00000001801dcb30     GuFactory.obj
 0002:00006b80       ?reductionFactors@SubSortQuick@physx@@2QBMB 00000001801dcb80     GuRTreeCooking.obj
 0002:00006b90       ?stopAtTrisPerLeaf1@SubSortQuick@physx@@2QBIB 00000001801dcb90     GuRTreeCooking.obj
 0002:00006c50       ??_C@_0EM@NDCKHPO@D?3?2Projects?2PhysXRepo?2physx?2sou@ 00000001801dcc50     GuRTreeCooking.obj
 0002:00006c9c       __real@41100000            00000001801dcc9c     GuRTreeCooking.obj
 0002:00006ca0       __real@41700000            00000001801dcca0     GuRTreeCooking.obj
 0002:00006ca4       __real@42200000            00000001801dcca4     GuRTreeCooking.obj
 0002:00006cb0       __xmm@00000004000000030000000200000001 00000001801dccb0     GuRTreeCooking.obj
 0002:00006ce0       ??_C@_0EK@CHCKINDO@D?3?2Projects?2PhysXRepo?2physx?2sou@ 00000001801dcce0     GuCookingBVH.obj
 0002:00006d30       ??_C@_0DL@JHPKHGFA@Cooking?3?3cookBVH?3?5user?9provided@ 00000001801dcd30     GuCookingBVH.obj
 0002:00006d70       ??_C@_0DN@PLNPGFEB@Cooking?3?3createBVH?3?5user?9provid@ 00000001801dcd70     GuCookingBVH.obj
 0002:00006db0       ??_C@_0EL@JCJBAPHL@Cooking?3?3cookHeightField?3?5user?9@ 00000001801dcdb0     GuCookingHF.obj
 0002:00006e00       ??_C@_0EJ@LOADKHLM@D?3?2Projects?2PhysXRepo?2physx?2sou@ 00000001801dce00     GuCookingHF.obj
 0002:00006e50       ??_C@_0EN@FCEPCAFC@Cooking?3?3createHeightField?3?5use@ 00000001801dce50     GuCookingHF.obj
 0002:00006ea0       ??_C@_0EK@EKAIJEBL@Cooking?3?3cookConvexMesh?3?5user?9p@ 00000001801dcea0     GuCookingConvexMesh.obj
 0002:00006ef0       ??_C@_0FA@GFFGAPML@Cooking?3?3cookConvexMesh?3?5provid@ 00000001801dcef0     GuCookingConvexMesh.obj
 0002:00006f40       ??_C@_0EP@PKDCPNNO@Cooking?3?3cookConvexMesh?3?5provid@ 00000001801dcf40     GuCookingConvexMesh.obj
 0002:00006f90       ??_C@_0EO@LKFMMDE@Cooking?3?3cookConvexMesh?3?5user?9p@ 00000001801dcf90     GuCookingConvexMesh.obj
 0002:00006fe0       ??_C@_0EL@KJEPJALG@Cooking?3?3cookConvexMesh?3?5user?9p@ 00000001801dcfe0     GuCookingConvexMesh.obj
 0002:00007030       ??_C@_0FM@LHMEBKMM@Cooking?3?3cookConvexMesh?3?5GPU?9co@ 00000001801dd030     GuCookingConvexMesh.obj
 0002:00007090       ??_C@_0FJ@FHCFFABE@Cooking?3?3cookConvexMesh?3?5GPU?9co@ 00000001801dd090     GuCookingConvexMesh.obj
 0002:000070f0       ??_C@_0LM@CHONPBFM@Cooking?3?3cookConvexMesh?3?5GPU?9co@ 00000001801dd0f0     GuCookingConvexMesh.obj
 0002:000071b0       ??_C@_0FB@NAONDNKP@D?3?2Projects?2PhysXRepo?2physx?2sou@ 00000001801dd1b0     GuCookingConvexMesh.obj
 0002:00007230       ??_7TriangleMeshBuilder@physx@@6B@ 00000001801dd230     GuCookingTriangleMesh.obj
 0002:00007258       ??_7RTreeTriangleMeshBuilder@physx@@6B@ 00000001801dd258     GuCookingTriangleMesh.obj
 0002:00007280       ??_7BV4TriangleMeshBuilder@physx@@6B@ 00000001801dd280     GuCookingTriangleMesh.obj
 0002:000072b0       ??_C@_0FD@EACEPPM@D?3?2Projects?2PhysXRepo?2physx?2sou@ 00000001801dd2b0     GuCookingTriangleMesh.obj
 0002:00007310       ??_C@_0EM@DBPINPE@TriangleMeshBuilder?3?3cleanMesh?3@ 00000001801dd310     GuCookingTriangleMesh.obj
 0002:00007360       ??_C@_0EF@MLNDPEDJ@TriangleMeshBuilder?3?3cleanMesh?3@ 00000001801dd360     GuCookingTriangleMesh.obj
 0002:000073b0       ??_C@_0FJ@HHJLKGDF@TriangleMesh?3?5triangles?5are?5too@ 00000001801dd3b0     GuCookingTriangleMesh.obj
 0002:00007410       ??_C@_0CN@KGPHHHLK@TriangleMesh?3?5mesh?5is?5too?5big?5f@ 00000001801dd410     GuCookingTriangleMesh.obj
 0002:00007440       ??_C@_0DD@CMJGDCNN@TriangleMesh?3?3loadFromDesc?3?5des@ 00000001801dd440     GuCookingTriangleMesh.obj
 0002:00007480       ??_C@_0ED@ILJJNHIP@TriangleMesh?3?3loadFromDesc?3?5mPa@ 00000001801dd480     GuCookingTriangleMesh.obj
 0002:000074d0       ??_C@_0EP@FHJBNFFH@Requesting?5SDF?5for?5mesh?5without@ 00000001801dd4d0     GuCookingTriangleMesh.obj
 0002:00007520       ??_C@_0BK@JIDHMMCE@BV4?5tree?5failed?5to?5build?4@ 00000001801dd520     GuCookingTriangleMesh.obj
 0002:00007540       ??_C@_0BL@DHNECNBE@BV32?5tree?5failed?5to?5build?4@ 00000001801dd540     GuCookingTriangleMesh.obj
 0002:00007560       ??_7RTreeCookerRemap@@6B@  00000001801dd560     GuCookingTriangleMesh.obj
 0002:00007570       ??_C@_0FC@PJIHAFK@Cooking?3?3validateTriangleMesh?3?5@ 00000001801dd570     GuCookingTriangleMesh.obj
 0002:00007650       ??_7PxCollisionTetrahedronMeshData@physx@@6B@ 00000001801dd650     GuCookingTetrahedronMesh.obj
 0002:00007680       ??_7PxSimulationTetrahedronMeshData@physx@@6B@ 00000001801dd680     GuCookingTetrahedronMesh.obj
 0002:000076a0       ??_7CollisionTetrahedronMeshData@Gu@physx@@6B@ 00000001801dd6a0     GuCookingTetrahedronMesh.obj
 0002:000076d0       ??_7SimulationTetrahedronMeshData@Gu@physx@@6B@ 00000001801dd6d0     GuCookingTetrahedronMesh.obj
 0002:000076f0       ??_C@_0FG@PLNKBNFI@D?3?2Projects?2PhysXRepo?2physx?2sou@ 00000001801dd6f0     GuCookingTetrahedronMesh.obj
 0002:00007748       ??_7?$LocalConvex@VTetrahedronV@Gu@physx@@@Gu@physx@@6B@ 00000001801dd748     GuCookingTetrahedronMesh.obj
 0002:00007778       ??_C@_0CD@OJGNHLOE@BV4_AABBTree?5tree?5failed?5to?5bui@ 00000001801dd778     GuCookingTetrahedronMesh.obj
 0002:000077a0       ??_C@_0DG@NCNIEEHB@TetrahedronMesh?3?3loadFromDesc?3?5@ 00000001801dd7a0     GuCookingTetrahedronMesh.obj
 0002:000077e0       ??_C@_0EG@CJIFGLMC@TetrahedronMesh?3?3loadFromDesc?3?5@ 00000001801dd7e0     GuCookingTetrahedronMesh.obj
 0002:00007828       __real@be2aaaab            00000001801dd828     GuCookingTetrahedronMesh.obj
 0002:00007830       __xmm@00000003000000030000000300000003 00000001801dd830     GuCookingTetrahedronMesh.obj
 0002:00007860       __real@3bc79ca10c924223    00000001801dd860     GuCookingVolumeIntegration.obj
 0002:00007868       __real@3f91111111111111    00000001801dd868     GuCookingVolumeIntegration.obj
 0002:00007870       __real@3fa5555555555555    00000001801dd870     GuCookingVolumeIntegration.obj
 0002:00007878       __real@3fa999999999999a    00000001801dd878     GuCookingVolumeIntegration.obj
 0002:00007880       __real@3fb5555555555555    00000001801dd880     GuCookingVolumeIntegration.obj
 0002:00007888       __real@3fc5555555555555    00000001801dd888     GuCookingVolumeIntegration.obj
 0002:00007890       __real@3fe0000000000000    00000001801dd890     GuCookingVolumeIntegration.obj
 0002:00007898       __real@3ff0000000000000    00000001801dd898     GuCookingVolumeIntegration.obj
 0002:000078a0       __real@4008000000000000    00000001801dd8a0     GuCookingVolumeIntegration.obj
 0002:000078a8       __real@4010000000000000    00000001801dd8a8     GuCookingVolumeIntegration.obj
 0002:000078b0       __real@bf91111111111111    00000001801dd8b0     GuCookingVolumeIntegration.obj
 0002:000078b8       __real@bfa999999999999a    00000001801dd8b8     GuCookingVolumeIntegration.obj
 0002:000078c0       __real@bfb5555555555555    00000001801dd8c0     GuCookingVolumeIntegration.obj
 0002:000078c8       __real@bfc5555555555555    00000001801dd8c8     GuCookingVolumeIntegration.obj
 0002:000078d0       __xmm@3c0888893c0888893c0888893c088889 00000001801dd8d0     GuCookingVolumeIntegration.obj
 0002:000078e0       __xmm@3c8888893c8888893c8888893c888889 00000001801dd8e0     GuCookingVolumeIntegration.obj
 0002:000078f0       __xmm@3d2aaaab3d2aaaab3d2aaaab3d2aaaab 00000001801dd8f0     GuCookingVolumeIntegration.obj
 0002:00007900       __xmm@3e2aaaab3e2aaaab3e2aaaab3e2aaaab 00000001801dd900     GuCookingVolumeIntegration.obj
 0002:00007910       __xmm@3f811111111111113f81111111111111 00000001801dd910     GuCookingVolumeIntegration.obj
 0002:00007920       __xmm@3f811111111111113f91111111111111 00000001801dd920     GuCookingVolumeIntegration.obj
 0002:00007930       __xmm@3f911111111111113f91111111111111 00000001801dd930     GuCookingVolumeIntegration.obj
 0002:00007940       __xmm@3fa55555555555553fa5555555555555 00000001801dd940     GuCookingVolumeIntegration.obj
 0002:00007950       __xmm@3fa55555555555553fc5555555555555 00000001801dd950     GuCookingVolumeIntegration.obj
 0002:00007960       __xmm@3fd55555555555553fd5555555555555 00000001801dd960     GuCookingVolumeIntegration.obj
 0002:00007970       __xmm@3fe00000000000003fe0000000000000 00000001801dd970     GuCookingVolumeIntegration.obj
 0002:00007980       __xmm@7fffffffffffffff7fffffffffffffff 00000001801dd980     GuCookingVolumeIntegration.obj
 0002:00007990       __xmm@80000000000000008000000000000000 00000001801dd990     GuCookingVolumeIntegration.obj
 0002:000079a0       ??_7ConvexHullLib@physx@@6B@ 00000001801dd9a0     GuCookingQuickHullConvexHullLib.obj
 0002:000079c0       ??_7QuickHullConvexHullLib@physx@@6B@ 00000001801dd9c0     GuCookingQuickHullConvexHullLib.obj
 0002:000079e0       ??_C@_0FN@FLKKAH@D?3?2Projects?2PhysXRepo?2physx?2sou@ 00000001801dd9e0     GuCookingQuickHullConvexHullLib.obj
 0002:00007a40       ??_C@_0GA@EPPAEJPM@QuickHullConvexHullLib?3?3findSim@ 00000001801dda40     GuCookingQuickHullConvexHullLib.obj
 0002:00007aa0       ??_C@_0FB@NEBIJMML@QuickHullConvexHullLib?3?3findSim@ 00000001801ddaa0     GuCookingQuickHullConvexHullLib.obj
 0002:00007b00       ??_C@_0FB@CLLCBEMM@QuickHullConvexHullLib?3?3findSim@ 00000001801ddb00     GuCookingQuickHullConvexHullLib.obj
 0002:00007b54       __real@34c00000            00000001801ddb54     GuCookingQuickHullConvexHullLib.obj
 0002:00007b58       ??_C@_0DP@PJBJBEGF@Meshmerizer?3?3extractHullPolygon@ 00000001801ddb58     GuCookingConvexPolygonsBuilder.obj
 0002:00007ba0       ??_C@_0FM@NELHCMMF@D?3?2Projects?2PhysXRepo?2physx?2sou@ 00000001801ddba0     GuCookingConvexPolygonsBuilder.obj
 0002:00007c00       ??_C@_0DL@IAFKOCCK@ConvexHullBuilder?3?5convex?5hull?5@ 00000001801ddc00     GuCookingConvexPolygonsBuilder.obj
 0002:00007c40       ??_C@_0GF@OJLJHAMH@ConvexHullBuilder?3?3CreateTriang@ 00000001801ddc40     GuCookingConvexPolygonsBuilder.obj
 0002:00007cd0       ??_C@_0DF@LLFJIJGM@Gu?3?3ConvexMesh?3?3loadFromDesc?3?5d@ 00000001801ddcd0     GuCookingConvexMeshBuilder.obj
 0002:00007d10       ??_C@_0HK@JOGKIEAA@Gu?3?3ConvexMesh?3?5Mesh?5has?5a?5nega@ 00000001801ddd10     GuCookingConvexMeshBuilder.obj
 0002:00007d90       ??_C@_0DH@NJPPHFFD@Gu?3?3ConvexMesh?3?5Error?5computing@ 00000001801ddd90     GuCookingConvexMeshBuilder.obj
 0002:00007dc8       ??_C@_0DJ@LJDLGLDJ@Gu?3?3ConvexMesh?3?3loadConvexHull?3@ 00000001801dddc8     GuCookingConvexMeshBuilder.obj
 0002:00007e10       ??_C@_0HJ@KJANPPOE@ConvexMeshBuilder?3?3computeHullP@ 00000001801dde10     GuCookingConvexMeshBuilder.obj
 0002:00007e90       ??_C@_0FI@OCCKIAKC@D?3?2Projects?2PhysXRepo?2physx?2sou@ 00000001801dde90     GuCookingConvexMeshBuilder.obj
 0002:00007ee8       ??_C@_06KDGGGLIJ@PxVec3@   00000001801ddee8     GuCookingConvexMeshBuilder.obj
 0002:00007ef0       ??_C@_05LMJPANIN@PxU32@    00000001801ddef0     GuCookingConvexMeshBuilder.obj
 0002:00007ef8       ??_C@_0O@JMAGMMGG@PxHullPolygon@ 00000001801ddef8     GuCookingConvexMeshBuilder.obj
 0002:00007f08       __real@3f13cd3a            00000001801ddf08     GuCookingConvexMeshBuilder.obj
 0002:00007f30       ??_C@_0FG@IKFNENED@D?3?2Projects?2PhysXRepo?2physx?2sou@ 00000001801ddf30     GuCookingConvexHullUtils.obj
 0002:00007f88       __real@3e20d97c            00000001801ddf88     GuCookingConvexHullUtils.obj
 0002:00007f90       ??_C@_0FE@HGLFJHLN@D?3?2Projects?2PhysXRepo?2physx?2sou@ 00000001801ddf90     GuCookingConvexHullLib.obj
 0002:00007ff0       ??_C@_0JE@PABBNGEL@ConvexHullLib?3?3cleanupVertices?3@ 00000001801ddff0     GuCookingConvexHullLib.obj
 0002:000080b0       ??_C@_0FI@CMIOCAPH@D?3?2Projects?2PhysXRepo?2physx?2sou@ 00000001801de0b0     GuCookingConvexHullBuilder.obj
 0002:00008110       ??_C@_0EB@DCEIFDGC@ConvexHullBuilder?3?3init?3?5convex@ 00000001801de110     GuCookingConvexHullBuilder.obj
 0002:00008160       ??_C@_0FM@KICBLCBH@Gu?3?3ConvexMesh?3?3checkHullPolygo@ 00000001801de160     GuCookingConvexHullBuilder.obj
 0002:000081c0       ??_C@_0GO@HBFIOGLL@Gu?3?3ConvexMesh?3?3checkHullPolygo@ 00000001801de1c0     GuCookingConvexHullBuilder.obj
 0002:00008230       ??_C@_0HF@OLJFBIEL@ConvexHullBuilder?3?5convex?5hull?5@ 00000001801de230     GuCookingConvexHullBuilder.obj
 0002:000082b0       ??_C@_0OG@JNHFOIL@ConvexHullBuilder?3?5convex?5hull?5@ 00000001801de2b0     GuCookingConvexHullBuilder.obj
 0002:000083a0       ??_C@_0EJ@NIOIBAKH@Cooking?3?3cookConvexMesh?3?5non?9ma@ 00000001801de3a0     GuCookingConvexHullBuilder.obj
 0002:00008410       ??_C@_0FL@BMOFLGHA@D?3?2Projects?2PhysXRepo?2physx?2sou@ 00000001801de410     GuCookingBigConvexDataBuilder.obj
 0002:0000846c       __real@437f0000            00000001801de46c     GuCookingSDF.obj
 0002:00008470       __real@477fff00            00000001801de470     GuCookingSDF.obj
 0002:00008480       __sz_PhysXFoundation_64_dll 00000001801de480     PhysXFoundation_64:PhysXFoundation_64.dll
 0002:00008498       ??_C@_1BK@DBDEIDLH@?$AAK?$AAE?$AAR?$AAN?$AAE?$AAL?$AA3?$AA2?$AA?4?$AAD?$AAL?$AAL@ 00000001801de498     Delayimp:delayhlp.obj
 0002:000084b8       ??_C@_0BI@OMNLIJDB@AcquireSRWLockExclusive@ 00000001801de4b8     Delayimp:delayhlp.obj
 0002:000084d0       ??_C@_0BI@HMIEPCNJ@ReleaseSRWLockExclusive@ 00000001801de4d0     Delayimp:delayhlp.obj
 0002:000084e8       __pfnDliFailureHook2       00000001801de4e8     Delayimp:delayhk1.obj
 0002:000084f8       ??_7type_info@@6B@         00000001801de4f8     MSVCRT:std_type_info_static.obj
 0002:00008560       _pDefaultRawDllMain        00000001801de560     MSVCRT:dll_dllmain.obj
 0002:00008560       _pRawDllMain               00000001801de560     MSVCRT:dll_dllmain.obj
 0002:00008570       _load_config_used          00000001801de570     MSVCRT:loadcfg.obj
 0002:00008780       ??_R4type_info@@6B@        00000001801de780     MSVCRT:std_type_info_static.obj
 0002:000087a8       ??_R3type_info@@8          00000001801de7a8     MSVCRT:std_type_info_static.obj
 0002:000087c0       ??_R2type_info@@8          00000001801de7c0     MSVCRT:std_type_info_static.obj
 0002:000087d0       ??_R1A@?0A@EA@type_info@@8 00000001801de7d0     MSVCRT:std_type_info_static.obj
 0002:000087f4       __volatile_metadata        00000001801de7f4     <linker-defined>
 0002:00008d30       __rtc_iaa                  00000001801ded30     MSVCRT:initsect.obj
 0002:00008d38       __rtc_izz                  00000001801ded38     MSVCRT:initsect.obj
 0002:00008d40       __rtc_taa                  00000001801ded40     MSVCRT:initsect.obj
 0002:00008d48       __rtc_tzz                  00000001801ded48     MSVCRT:initsect.obj
 0002:0001e3b0       __DELAY_IMPORT_DESCRIPTOR_physxfoundation_64_dll 00000001801f43b0     PhysXFoundation_64:PhysXFoundation_64.dll
 0002:0001e3d0       __NULL_DELAY_IMPORT_DESCRIPTOR 00000001801f43d0     PhysXFoundation_64:PhysXFoundation_64.dll
 0002:0001e4b0       \177PhysXFoundation_64_NULL_THUNK_DATA_DLN 00000001801f44b0     PhysXFoundation_64:PhysXFoundation_64.dll
 0002:0001e8d8       \177PhysXFoundation_64_NULL_THUNK_DATA_DLB 00000001801f48d8     PhysXFoundation_64:PhysXFoundation_64.dll
 0002:0002b0e8       __IMPORT_DESCRIPTOR_KERNEL32 00000001802010e8     kernel32:KERNEL32.dll
 0002:0002b0fc       __IMPORT_DESCRIPTOR_VCRUNTIME140 00000001802010fc     vcruntime:VCRUNTIME140.dll
 0002:0002b110       __IMPORT_DESCRIPTOR_api-ms-win-crt-math-l1-1-0 0000000180201110     ucrt:api-ms-win-crt-math-l1-1-0.dll
 0002:0002b124       __IMPORT_DESCRIPTOR_api-ms-win-crt-stdio-l1-1-0 0000000180201124     ucrt:api-ms-win-crt-stdio-l1-1-0.dll
 0002:0002b138       __IMPORT_DESCRIPTOR_api-ms-win-crt-heap-l1-1-0 0000000180201138     ucrt:api-ms-win-crt-heap-l1-1-0.dll
 0002:0002b14c       __IMPORT_DESCRIPTOR_api-ms-win-crt-runtime-l1-1-0 000000018020114c     ucrt:api-ms-win-crt-runtime-l1-1-0.dll
 0002:0002b160       __NULL_IMPORT_DESCRIPTOR   0000000180201160     kernel32:KERNEL32.dll
 0003:00000000       __pfnDliNotifyHook2        0000000180202000     CmWindowsDelayLoadHook.obj
 0003:00000030       ?gGeomMTDMethodTable@@3PAY0L@P6A_NAEAV?$PxVec3T@M@physx@@AEAMAEBVPxGeometry@2@AEBUPxTransformPadded@2@23@ZA 0000000180202030     GuMTD.obj
 0003:00000400       ?gGeomOverlapMethodTable@@3PAY0L@P6A_NAEBVPxGeometry@physx@@AEBV?$PxTransformT@M@2@01PEAUTriggerCache@Gu@2@PEAUPxQueryThreadContext@2@@ZA 0000000180202400     GuOverlapTests.obj
 0003:000007d0       ?gRaycastMap@@3PAP6AIAEBVPxGeometry@physx@@AEBV?$PxTransformT@M@2@AEBV?$PxVec3T@M@2@2MV?$PxFlags@W4Enum@PxHitFlag@physx@@G@2@IPEIAUPxGeomRaycastHit@2@IPEAUPxQueryThreadContext@2@@ZA 00000001802027d0     GuRaycastTests.obj
 0003:00000830       ?gGeomSweepFuncs@@3UGeomSweepFuncs@Gu@physx@@A 0000000180202830     GuSweepTests.obj
 0003:00000a40       ?g_SweepMethodTable@Gu@physx@@3PAY0L@P6AMAEBUCCDShape@12@0AEBUPxTransformPadded@2@111MAEAV?$PxVec3T@M@2@2MAEAIM@ZA 0000000180202a40     GuCCDSweepPrimitives.obj
 0003:00000e10       ?g_TriangleSweepMethodTable@Gu@physx@@3PAP6AMAEBVPxGeometry@2@0AEBUPxTransformPadded@2@111MAEAV?$PxVec3T@M@2@2AEBVFastVertex2ShapeScaling@Cm@2@AEAVTriangleV@12@M@ZA 0000000180202e10     GuCCDSweepPrimitives.obj
 0003:0000123c       _fltused                   000000018020323c     MSVCRT:fltused.obj
 0003:00001240       __scrt_native_dllmain_reason 0000000180203240     MSVCRT:utility.obj
 0003:00001248       __isa_available            0000000180203248     MSVCRT:cpu_disp.obj
 0003:0000124c       __isa_enabled              000000018020324c     MSVCRT:cpu_disp.obj
 0003:00001250       __memset_fast_string_threshold 0000000180203250     MSVCRT:cpu_disp.obj
 0003:00001258       __memset_nt_threshold      0000000180203258     MSVCRT:cpu_disp.obj
 0003:00001280       __security_cookie          0000000180203280     MSVCRT:gs_cookie.obj
 0003:000012c0       __security_cookie_complement 00000001802032c0     MSVCRT:gs_cookie.obj
 0003:000012d0       __scrt_ucrt_dll_is_in_use  00000001802032d0     MSVCRT:ucrt_stubs.obj
 0003:000012e0       ??_R0?AVCollection@Cm@physx@@@8 00000001802032e0     CmCollection.obj
 0003:00001310       ??_R0I@8                   0000000180203310     GuGeometryQuery.obj
 0003:00001328       ??_R0?AVPxMutexImpl@physx@@@8 0000000180203328     GuMeshFactory.obj
 0003:00001350       ??_R0?AVBVH@Gu@physx@@@8   0000000180203350     GuMeshFactory.obj
 0003:00001378       ??_R0?AVHeightField@Gu@physx@@@8 0000000180203378     GuMeshFactory.obj
 0003:000013a8       ??_R0?AVConvexMesh@Gu@physx@@@8 00000001802033a8     GuMeshFactory.obj
 0003:000013d8       ??_R0?AVDeformableVolumeMesh@Gu@physx@@@8 00000001802033d8     GuMeshFactory.obj
 0003:00001410       ??_R0?AVTetrahedronMesh@Gu@physx@@@8 0000000180203410     GuMeshFactory.obj
 0003:00001440       ??_R0?AVTetrahedronMeshData@Gu@physx@@@8 0000000180203440     GuMeshFactory.obj
 0003:00001478       ??_R0?AVBV4TriangleMesh@Gu@physx@@@8 0000000180203478     GuMeshFactory.obj
 0003:000014a8       ??_R0?AVRTreeTriangleMesh@Gu@physx@@@8 00000001802034a8     GuMeshFactory.obj
 0003:000014e0       ??_R0?AVBV32Tree@Gu@physx@@@8 00000001802034e0     GuMeshFactory.obj
 0003:00001508       ??_R0?AVBV4TriangleData@Gu@physx@@@8 0000000180203508     GuMeshFactory.obj
 0003:00001538       ??_R0?AVRTreeTriangleData@Gu@physx@@@8 0000000180203538     GuMeshFactory.obj
 0003:00001570       ??_R0?AUSlab@NodeAllocator@Gu@physx@@@8 0000000180203570     GuMeshFactory.obj
 0003:000015a8       ??_R0PEAVMeshFactoryListener@Gu@physx@@@8 00000001802035a8     GuMeshFactory.obj
 0003:000015e0       ??_R0?AVPxThreadImpl@physx@@@8 00000001802035e0     GuSDF.obj
 0003:00001610       ??_R0?AUMap@Gu@physx@@@8   0000000180203610     GuSDF.obj
 0003:00001640       ??_R0?AV?$PxThreadT@V?$PxReflectionAllocator@VPxThreadImpl@physx@@@physx@@@physx@@@8 0000000180203640     GuSDF.obj
 0003:000016a0       ??_R0?AVPointOntoTriangleMeshProjector@Gu@physx@@@8 00000001802036a0     GuSDF.obj
 0003:000016e0       ??_R0?AUIsosurfaceThreadData@Gu@physx@@@8 00000001802036e0     GuSDF.obj
 0003:00001718       ??_R0?AV?$PxVec3T@M@physx@@@8 0000000180203718     GuSDF.obj
 0003:00001740       ??_R0M@8                   0000000180203740     GuSDF.obj
 0003:00001758       ??_R0?AUSDFCalculationData@Gu@physx@@@8 0000000180203758     GuSDF.obj
 0003:00001790       ??_R0PEAV?$PxThreadT@V?$PxReflectionAllocator@VPxThreadImpl@physx@@@physx@@@physx@@@8 0000000180203790     GuSDF.obj
 0003:000017f0       ??_R0?AUMutation@Gu@physx@@@8 00000001802037f0     GuSDF.obj
 0003:00001818       ??_R0?AURange@Gu@physx@@@8 0000000180203818     GuSDF.obj
 0003:00001840       ??_R0?AUBVHNode@Gu@physx@@@8 0000000180203840     GuSDF.obj
 0003:00001868       ??_R0H@8                   0000000180203868     GuSDF.obj
 0003:00001880       ??_R0?AURange@MeshAnalyzer@Gu@physx@@@8 0000000180203880     GuSDF.obj
 0003:000018b8       ??_R0PEAUMap@Gu@physx@@@8  00000001802038b8     GuSDF.obj
 0003:000018e0       ??_R0?AUSection@Gu@physx@@@8 00000001802038e0     GuWindingNumber.obj
 0003:00001908       ??_R0?AVAdjEdge@@@8        0000000180203908     GuAdjacencies.obj
 0003:00001928       ??_R0?AVAdjTriangle@Gu@physx@@@8 0000000180203928     GuAdjacencies.obj
 0003:00001958       ??_R0?AVQuantizerImpl@@@8  0000000180203958     GuQuantizer.obj
 0003:00001980       ??_R0?AV?$PxArray@IV?$PxReflectionAllocator@I@physx@@@physx@@@8 0000000180203980     GuMeshAnalysis.obj
 0003:000019d0       ??_R0_N@8                  00000001802039d0     GuMeshAnalysis.obj
 0003:000019e8       ??_R0PEAV?$BufferedPatch@$04$0CA@$00@Gu@physx@@@8 00000001802039e8     GuContactMeshMesh.obj
 0003:00001a28       ??_R0?AV?$BufferedPatch@$04$0CA@$00@Gu@physx@@@8 0000000180203a28     GuContactMeshMesh.obj
 0003:00001a68       ??_R0?AVSDF@Gu@physx@@@8   0000000180203a68     GuConvexMesh.obj
 0003:00001a90       ??_R0?AVBigConvexData@physx@@@8 0000000180203a90     GuConvexMesh.obj
 0003:00001ac0       ??_R0?AU?$IndexedTriangleT@G@Gu@physx@@@8 0000000180203ac0     GuBV4.obj
 0003:00001af8       ??_R0?AU?$IndexedTriangleT@I@Gu@physx@@@8 0000000180203af8     GuBV4.obj
 0003:00001b30       ??_R0?AVIndTetrahedron16@Gu@physx@@@8 0000000180203b30     GuBV4.obj
 0003:00001b60       ??_R0?AVIndTetrahedron32@Gu@physx@@@8 0000000180203b60     GuBV4.obj
 0003:00001b90       ??_R0?AUSlab@BV4BuildParams@@@8 0000000180203b90     GuBV4Build.obj
 0003:00001bc0       ??_R0?AVAABBTreeNode@Gu@physx@@@8 0000000180203bc0     GuBV4Build.obj
 0003:00001bf0       ??_R0?AVEdgeList@Gu@physx@@@8 0000000180203bf0     GuTriangleMesh.obj
 0003:00001c18       ??_R0?AUBV32Data@Gu@physx@@@8 0000000180203c18     GuBV32Build.obj
 0003:00001c40       ??_R0?AUBV32Node@@@8       0000000180203c40     GuBV32Build.obj
 0003:00001c60       ??_R0?AVBVTetrahedronMesh@Gu@physx@@@8 0000000180203c60     GuTetrahedronMesh.obj
 0003:00001c98       ??_R0?AVDeformableVolumeAuxData@Gu@physx@@@8 0000000180203c98     GuTetrahedronMesh.obj
 0003:00001cd0       ??_R0?AUSortedTriangle@Gu@physx@@@8 0000000180203cd0     GuPCMContactSphereHeightField.obj
 0003:00001d00       ??_R0PEAVAABBTreeBuildNode@Gu@physx@@@8 0000000180203d00     GuAABBTree.obj
 0003:00001d38       ??_R0?AVFIFOStack@Gu@physx@@@8 0000000180203d38     GuAABBTree.obj
 0003:00001d68       ??_R0?AVAABBTreeBuildNode@Gu@physx@@@8 0000000180203d68     GuAABBTree.obj
 0003:00001da0       ??_R0?AUIncrementalAABBTreeNodePair@Gu@physx@@@8 0000000180203da0     GuIncrementalAABBTree.obj
 0003:00001de0       ??_R0?AUAABBTreeIndices@Gu@physx@@@8 0000000180203de0     GuIncrementalAABBTree.obj
 0003:00001e10       ??_R0PEAVIncrementalAABBTreeNode@Gu@physx@@@8 0000000180203e10     GuIncrementalAABBTree.obj
 0003:00001e48       ??_R0PEBUBVHNode@Gu@physx@@@8 0000000180203e48     GuBVH.obj
 0003:00001e70       ??_R0PEBVIncrementalAABBTreeNode@Gu@physx@@@8 0000000180203e70     GuIncrementalAABBPrunerCore.obj
 0003:00001ea8       ??_R0?AVIncrementalAABBTree@Gu@physx@@@8 0000000180203ea8     GuIncrementalAABBPrunerCore.obj
 0003:00001ee0       ??_R0?AVAABBTree@Gu@physx@@@8 0000000180203ee0     GuExtendedBucketPruner.obj
 0003:00001f08       ??_R0?AVCompanionPrunerIncremental@@@8 0000000180203f08     GuSecondaryPruner.obj
 0003:00001f40       ??_R0?AVCompanionPrunerBucket@@@8 0000000180203f40     GuSecondaryPruner.obj
 0003:00001f70       ??_R0?AVCompanionPrunerAABBTree@@@8 0000000180203f70     GuSecondaryPruner.obj
 0003:00001fa0       ??_R0?AULocalData@CompanionPrunerAABBTree@@@8 0000000180203fa0     GuSecondaryPruner.obj
 0003:00001fd8       ??_R0?AUNewTreeFixup@AABBPruner@Gu@physx@@@8 0000000180203fd8     GuAABBPruner.obj
 0003:00002010       ??_R0?AUPrunerExt@QuerySystem@Gu@physx@@@8 0000000180204010     GuQuerySystem.obj
 0003:00002048       ??_R0PEAUPrunerExt@QuerySystem@Gu@physx@@@8 0000000180204048     GuQuerySystem.obj
 0003:00002080       ??_R0?AUData@PrunerExt@QuerySystem@Gu@physx@@@8 0000000180204080     GuQuerySystem.obj
 0003:000020c0       ??_R0?AVIncrementalAABBPruner@Gu@physx@@@8 00000001802040c0     GuFactory.obj
 0003:000020f8       ??_R0?AVAABBPruner@Gu@physx@@@8 00000001802040f8     GuFactory.obj
 0003:00002128       ??_R0?AVBucketPruner@Gu@physx@@@8 0000000180204128     GuFactory.obj
 0003:00002158       ??_R0?AUInterval@physx@@@8 0000000180204158     GuRTreeCooking.obj
 0003:00002180       ??_R0?AURTreeNodeQ@Gu@physx@@@8 0000000180204180     GuRTreeCooking.obj
 0003:000021b0       ??_R0?AURTreeNodeNQ@physx@@@8 00000001802041b0     GuRTreeCooking.obj
 0003:000021d8       ??_R0?AUPxBounds3V@physx@@@8 00000001802041d8     GuRTreeCooking.obj
 0003:00002200       ??_R0?AVQuickHullConvexHullLib@physx@@@8 0000000180204200     GuCookingConvexMesh.obj
 0003:00002238       ??_R0?AVSimulationTetrahedronMeshData@Gu@physx@@@8 0000000180204238     GuCookingTetrahedronMesh.obj
 0003:00002278       ??_R0?AVDeformableVolumeSimulationData@Gu@physx@@@8 0000000180204278     GuCookingTetrahedronMesh.obj
 0003:000022b8       ??_R0?AVCollisionTetrahedronMeshData@Gu@physx@@@8 00000001802042b8     GuCookingTetrahedronMesh.obj
 0003:000022f8       ??_R0?AVDeformableVolumeCollisionData@Gu@physx@@@8 00000001802042f8     GuCookingTetrahedronMesh.obj
 0003:00002338       ??_R0?AVCollisionMeshMappingData@Gu@physx@@@8 0000000180204338     GuCookingTetrahedronMesh.obj
 0003:00002370       ??_R0?AVConvexHull@physx@@@8 0000000180204370     GuCookingQuickHullConvexHullLib.obj
 0003:00002398       ??_R0?AVQuickHull@local@@@8 0000000180204398     GuCookingQuickHullConvexHullLib.obj
 0003:000023c0       ??_R0?AUExpandPoint@local@@@8 00000001802043c0     GuCookingQuickHullConvexHullLib.obj
 0003:000023e8       ??_R0PEAUQuickHullVertex@local@@@8 00000001802043e8     GuCookingQuickHullConvexHullLib.obj
 0003:00002418       ??_R0PEAUQuickHullFace@local@@@8 0000000180204418     GuCookingQuickHullConvexHullLib.obj
 0003:00002448       ??_R0PEAUQuickHullHalfEdge@local@@@8 0000000180204448     GuCookingQuickHullConvexHullLib.obj
 0003:00002478       ??_R0?AVPxPlane@physx@@@8  0000000180204478     GuCookingQuickHullConvexHullLib.obj
 0003:000024a0       ??_R0?AVPair@@@8           00000001802044a0     GuCookingConvexPolygonsBuilder.obj
 0003:000024c0       ??_R0?AVHalfEdge@ConvexHull@physx@@@8 00000001802044c0     GuCookingConvexHullUtils.obj
 0003:000024f0       ??_R0E@8                   00000001802044f0     GuCookingSDF.obj
 0003:00002508       ??_R0?AVtype_info@@@8      0000000180204508     MSVCRT:std_type_info_static.obj
 0003:00002528       __imp_PxGetFoundation      0000000180204528     PhysXFoundation_64:PhysXFoundation_64.dll
 0003:00002530       __imp_??1PxFPUGuard@physx@@QEAA@XZ 0000000180204530     PhysXFoundation_64:PhysXFoundation_64.dll
 0003:00002538       __imp_PxGetBroadcastAllocator 0000000180204538     PhysXFoundation_64:PhysXFoundation_64.dll
 0003:00002540       __imp_?PxAtomicIncrement@physx@@YAHPECH@Z 0000000180204540     PhysXFoundation_64:PhysXFoundation_64.dll
 0003:00002548       __imp_??0PxMutexImpl@physx@@QEAA@XZ 0000000180204548     PhysXFoundation_64:PhysXFoundation_64.dll
 0003:00002550       __imp_??1PxMutexImpl@physx@@QEAA@XZ 0000000180204550     PhysXFoundation_64:PhysXFoundation_64.dll
 0003:00002558       __imp_?lock@PxMutexImpl@physx@@QEAAXXZ 0000000180204558     PhysXFoundation_64:PhysXFoundation_64.dll
 0003:00002560       __imp_?unlock@PxMutexImpl@physx@@QEAAXXZ 0000000180204560     PhysXFoundation_64:PhysXFoundation_64.dll
 0003:00002568       __imp_?getSize@PxMutexImpl@physx@@SAIXZ 0000000180204568     PhysXFoundation_64:PhysXFoundation_64.dll
 0003:00002570       __imp_?PxTransformFromSegment@physx@@YA?AV?$PxTransformT@M@1@AEBV?$PxVec3T@M@1@0PEAM@Z 0000000180204570     PhysXFoundation_64:PhysXFoundation_64.dll
 0003:00002578       __imp_?PxAtomicAdd@physx@@YAHPECHH@Z 0000000180204578     PhysXFoundation_64:PhysXFoundation_64.dll
 0003:00002580       __imp_?getDefaultStackSize@PxThreadImpl@physx@@SAIXZ 0000000180204580     PhysXFoundation_64:PhysXFoundation_64.dll
 0003:00002588       __imp_??0PxThreadImpl@physx@@QEAA@P6APEAXPEAX@Z0PEBD@Z 0000000180204588     PhysXFoundation_64:PhysXFoundation_64.dll
 0003:00002590       __imp_??1PxThreadImpl@physx@@QEAA@XZ 0000000180204590     PhysXFoundation_64:PhysXFoundation_64.dll
 0003:00002598       __imp_?start@PxThreadImpl@physx@@QEAAXIPEAVPxRunnable@2@@Z 0000000180204598     PhysXFoundation_64:PhysXFoundation_64.dll
 0003:000025a0       __imp_?waitForQuit@PxThreadImpl@physx@@QEAA_NXZ 00000001802045a0     PhysXFoundation_64:PhysXFoundation_64.dll
 0003:000025a8       __imp_?getSize@PxThreadImpl@physx@@SAIXZ 00000001802045a8     PhysXFoundation_64:PhysXFoundation_64.dll
 0003:000025b0       __imp_?allocate@PxTempAllocator@physx@@QEAAPEAX_KPEBDH@Z 00000001802045b0     PhysXFoundation_64:PhysXFoundation_64.dll
 0003:000025b8       __imp_?deallocate@PxTempAllocator@physx@@QEAAXPEAX@Z 00000001802045b8     PhysXFoundation_64:PhysXFoundation_64.dll
 0003:000025c0       __imp_?PxOptimizeBoundingBox@physx@@YA?AV?$PxVec3T@M@1@AEAV?$PxMat33T@M@1@@Z 00000001802045c0     PhysXFoundation_64:PhysXFoundation_64.dll
 0003:000025c8       __imp_?Pxstrcmp@physx@@YAHPEBD0@Z 00000001802045c8     PhysXFoundation_64:PhysXFoundation_64.dll
 0003:000025d0       __imp_?PxAtomicDecrement@physx@@YAHPECH@Z 00000001802045d0     PhysXFoundation_64:PhysXFoundation_64.dll
 0003:000025d8       __imp_??0PxFPUGuard@physx@@QEAA@XZ 00000001802045d8     PhysXFoundation_64:PhysXFoundation_64.dll
 0003:000025e0       __imp_?PxDiagonalize@physx@@YA?AV?$PxVec3T@M@1@AEBV?$PxMat33T@M@1@AEAV?$PxQuatT@M@1@@Z 00000001802045e0     PhysXFoundation_64:PhysXFoundation_64.dll
 0003:000025e8       \177PhysXFoundation_64_NULL_THUNK_DATA_DLA 00000001802045e8     PhysXFoundation_64:PhysXFoundation_64.dll
 0003:000025f0       ?_OptionsStorage@?1??__local_stdio_printf_options@@9@4_KA 00000001802045f0     CmWindowsModuleUpdateLoader.obj
 0003:000033f0       ?boxVertexTable@physx@@3QBT__m128@@B 00000001802053f0     GuConvexSupportTable.obj
 0003:00005c50       __hmod__PhysXFoundation_64_dll 0000000180207c50     PhysXFoundation_64:PhysXFoundation_64.dll
 0003:00005c58       ?DloadKernel32@@3PEAUHINSTANCE__@@EA 0000000180207c58     Delayimp:delayhlp.obj
 0003:00005c60       ?DloadAcquireSRWLockExclusive@@3P6AXPEA_K@ZEA 0000000180207c60     Delayimp:delayhlp.obj
 0003:00005c68       ?DloadReleaseSRWLockExclusive@@3P6AXPEA_K@ZEA 0000000180207c68     Delayimp:delayhlp.obj
 0003:00005c70       ?DloadSrwLock@@3_KA        0000000180207c70     Delayimp:delayhlp.obj
 0003:00005c78       ?DloadSectionLockCount@@3KA 0000000180207c78     Delayimp:delayhlp.obj
 0003:00005c7c       ?DloadSectionOldProtection@@3KA 0000000180207c7c     Delayimp:delayhlp.obj
 0003:00005c80       ?DloadSectionCommitPermanent@@3KA 0000000180207c80     Delayimp:delayhlp.obj
 0003:00005c90       ?__type_info_root_node@@3U__type_info_node@@A 0000000180207c90     MSVCRT:tncleanup.obj
 0003:00005ca0       __scrt_current_native_startup_state 0000000180207ca0     MSVCRT:utility.obj
 0003:00005ca8       __scrt_native_startup_lock 0000000180207ca8     MSVCRT:utility.obj
 0003:00005ce8       __favor                    0000000180207ce8     MSVCRT:cpu_disp.obj
 0003:00005cf0       __scrt_debugger_hook_flag  0000000180207cf0     MSVCRT:utility_desktop.obj
 0003:00005cf8       ?_OptionsStorage@?1??__local_stdio_scanf_options@@9@4_KA 0000000180207cf8     MSVCRT:default_local_stdio_options.obj
 0003:00005d00       __dyn_tls_init_callback    0000000180207d00     <common>
 0005:00000100       __common_ssin_reduction_data 0000000180214100     MSVCRT:svml_s_sin_data.obj
 0005:00000d00       __common_ssin_data         0000000180214d00     MSVCRT:svml_s_sin_data.obj

 entry point at        0001:001d3640

 Static symbols

 0000:ffde5000       .debug$S                   0000000180000000     PhysXCommon_64.exp
 0000:ffde5000       .debug$S                   0000000180000000     ucrt:api-ms-win-crt-heap-l1-1-0.dll
 0000:ffde5000       .debug$S                   0000000180000000     ucrt:api-ms-win-crt-math-l1-1-0.dll
 0000:ffde5000       .debug$S                   0000000180000000     ucrt:api-ms-win-crt-math-l1-1-0.dll
 0000:ffde5000       .debug$S                   0000000180000000     ucrt:api-ms-win-crt-math-l1-1-0.dll
 0000:ffde5000       .debug$S                   0000000180000000     ucrt:api-ms-win-crt-math-l1-1-0.dll
 0000:ffde5000       .debug$S                   0000000180000000     ucrt:api-ms-win-crt-math-l1-1-0.dll
 0000:ffde5000       .debug$S                   0000000180000000     ucrt:api-ms-win-crt-math-l1-1-0.dll
 0000:ffde5000       .debug$S                   0000000180000000     ucrt:api-ms-win-crt-math-l1-1-0.dll
 0000:ffde5000       .debug$S                   0000000180000000     ucrt:api-ms-win-crt-runtime-l1-1-0.dll
 0000:ffde5000       .debug$S                   0000000180000000     ucrt:api-ms-win-crt-runtime-l1-1-0.dll
 0000:ffde5000       .debug$S                   0000000180000000     ucrt:api-ms-win-crt-runtime-l1-1-0.dll
 0000:ffde5000       .debug$S                   0000000180000000     ucrt:api-ms-win-crt-runtime-l1-1-0.dll
 0000:ffde5000       .debug$S                   0000000180000000     ucrt:api-ms-win-crt-runtime-l1-1-0.dll
 0000:ffde5000       .debug$S                   0000000180000000     ucrt:api-ms-win-crt-runtime-l1-1-0.dll
 0000:ffde5000       .debug$S                   0000000180000000     ucrt:api-ms-win-crt-runtime-l1-1-0.dll
 0000:ffde5000       .debug$S                   0000000180000000     ucrt:api-ms-win-crt-runtime-l1-1-0.dll
 0000:ffde5000       .debug$S                   0000000180000000     ucrt:api-ms-win-crt-runtime-l1-1-0.dll
 0000:ffde5000       .debug$S                   0000000180000000     ucrt:api-ms-win-crt-runtime-l1-1-0.dll
 0000:ffde5000       .debug$S                   0000000180000000     ucrt:api-ms-win-crt-runtime-l1-1-0.dll
 0000:ffde5000       .debug$S                   0000000180000000     ucrt:api-ms-win-crt-runtime-l1-1-0.dll
 0000:ffde5000       .debug$S                   0000000180000000     ucrt:api-ms-win-crt-stdio-l1-1-0.dll
 0000:ffde5000       .debug$S                   0000000180000000     ucrt:api-ms-win-crt-stdio-l1-1-0.dll
 0000:ffde5000       .debug$S                   0000000180000000     kernel32:KERNEL32.dll
 0000:ffde5000       .debug$S                   0000000180000000     kernel32:KERNEL32.dll
 0000:ffde5000       .debug$S                   0000000180000000     kernel32:KERNEL32.dll
 0000:ffde5000       .debug$S                   0000000180000000     kernel32:KERNEL32.dll
 0000:ffde5000       .debug$S                   0000000180000000     kernel32:KERNEL32.dll
 0000:ffde5000       .debug$S                   0000000180000000     kernel32:KERNEL32.dll
 0000:ffde5000       .debug$S                   0000000180000000     kernel32:KERNEL32.dll
 0000:ffde5000       .debug$S                   0000000180000000     kernel32:KERNEL32.dll
 0000:ffde5000       .debug$S                   0000000180000000     kernel32:KERNEL32.dll
 0000:ffde5000       .debug$S                   0000000180000000     kernel32:KERNEL32.dll
 0000:ffde5000       .debug$S                   0000000180000000     kernel32:KERNEL32.dll
 0000:ffde5000       .debug$S                   0000000180000000     kernel32:KERNEL32.dll
 0000:ffde5000       .debug$S                   0000000180000000     kernel32:KERNEL32.dll
 0000:ffde5000       .debug$S                   0000000180000000     kernel32:KERNEL32.dll
 0000:ffde5000       .debug$S                   0000000180000000     kernel32:KERNEL32.dll
 0000:ffde5000       .debug$S                   0000000180000000     kernel32:KERNEL32.dll
 0000:ffde5000       .debug$S                   0000000180000000     kernel32:KERNEL32.dll
 0000:ffde5000       .debug$S                   0000000180000000     kernel32:KERNEL32.dll
 0000:ffde5000       .debug$S                   0000000180000000     kernel32:KERNEL32.dll
 0000:ffde5000       .debug$S                   0000000180000000     kernel32:KERNEL32.dll
 0000:ffde5000       .debug$S                   0000000180000000     kernel32:KERNEL32.dll
 0000:ffde5000       .debug$S                   0000000180000000     kernel32:KERNEL32.dll
 0000:ffde5000       .debug$S                   0000000180000000     kernel32:KERNEL32.dll
 0000:ffde5000       .debug$S                   0000000180000000     kernel32:KERNEL32.dll
 0000:ffde5000       .debug$S                   0000000180000000     vcruntime:VCRUNTIME140.dll
 0000:ffde5000       .debug$S                   0000000180000000     vcruntime:VCRUNTIME140.dll
 0000:ffde5000       .debug$S                   0000000180000000     vcruntime:VCRUNTIME140.dll
 0000:ffde5000       .debug$S                   0000000180000000     vcruntime:VCRUNTIME140.dll
 0000:ffde5000       .debug$S                   0000000180000000     vcruntime:VCRUNTIME140.dll
 0000:ffde5000       .debug$S                   0000000180000000     vcruntime:VCRUNTIME140.dll
 0000:ffde5000       .debug$S                   0000000180000000     vcruntime:VCRUNTIME140.dll
 0000:ffde5000       .debug$S                   0000000180000000     vcruntime:VCRUNTIME140.dll
 0000:ffde5000       .debug$S                   0000000180000000     vcruntime:VCRUNTIME140.dll
 0000:ffde5000       .debug$S                   0000000180000000     PhysXFoundation_64:PhysXFoundation_64.dll
 0000:ffde5000       .debug$S                   0000000180000000     PhysXFoundation_64:PhysXFoundation_64.dll
 0000:ffde5000       .debug$S                   0000000180000000     PhysXFoundation_64:PhysXFoundation_64.dll
 0000:ffde5000       .debug$S                   0000000180000000     PhysXFoundation_64:PhysXFoundation_64.dll
 0000:ffde5000       .debug$S                   0000000180000000     PhysXFoundation_64:PhysXFoundation_64.dll
 0000:ffde5000       .debug$S                   0000000180000000     PhysXFoundation_64:PhysXFoundation_64.dll
 0000:ffde5000       .debug$S                   0000000180000000     PhysXFoundation_64:PhysXFoundation_64.dll
 0000:ffde5000       .debug$S                   0000000180000000     PhysXFoundation_64:PhysXFoundation_64.dll
 0000:ffde5000       .debug$S                   0000000180000000     PhysXFoundation_64:PhysXFoundation_64.dll
 0000:ffde5000       .debug$S                   0000000180000000     PhysXFoundation_64:PhysXFoundation_64.dll
 0000:ffde5000       .debug$S                   0000000180000000     PhysXFoundation_64:PhysXFoundation_64.dll
 0000:ffde5000       .debug$S                   0000000180000000     PhysXFoundation_64:PhysXFoundation_64.dll
 0000:ffde5000       .debug$S                   0000000180000000     PhysXFoundation_64:PhysXFoundation_64.dll
 0000:ffde5000       .debug$S                   0000000180000000     PhysXFoundation_64:PhysXFoundation_64.dll
 0000:ffde5000       .debug$S                   0000000180000000     PhysXFoundation_64:PhysXFoundation_64.dll
 0000:ffde5000       .debug$S                   0000000180000000     PhysXFoundation_64:PhysXFoundation_64.dll
 0000:ffde5000       .debug$S                   0000000180000000     PhysXFoundation_64:PhysXFoundation_64.dll
 0000:ffde5000       .debug$S                   0000000180000000     PhysXFoundation_64:PhysXFoundation_64.dll
 0000:ffde5000       .debug$S                   0000000180000000     PhysXFoundation_64:PhysXFoundation_64.dll
 0000:ffde5000       .debug$S                   0000000180000000     PhysXFoundation_64:PhysXFoundation_64.dll
 0000:ffde5000       .debug$S                   0000000180000000     PhysXFoundation_64:PhysXFoundation_64.dll
 0000:ffde5000       .debug$S                   0000000180000000     PhysXFoundation_64:PhysXFoundation_64.dll
 0000:ffde5000       .debug$S                   0000000180000000     PhysXFoundation_64:PhysXFoundation_64.dll
 0000:ffde5000       .debug$S                   0000000180000000     PhysXFoundation_64:PhysXFoundation_64.dll
 0001:00000000       ??__EmaxFError@vecMathTests@aos@physx@@YAXXZ 0000000180001000 f   GuBox.obj
 0001:00000010       ??__EmaxV3Error@vecMathTests@aos@physx@@YAXXZ 0000000180001010 f   GuBox.obj
 0001:00000020       ??__EmaxV4Error@vecMathTests@aos@physx@@YAXXZ 0000000180001020 f   GuBox.obj
 0001:00000030       ??__EminFError@vecMathTests@aos@physx@@YAXXZ 0000000180001030 f   GuBox.obj
 0001:00000040       ??__EminV3Error@vecMathTests@aos@physx@@YAXXZ 0000000180001040 f   GuBox.obj
 0001:00000050       ??__EminV4Error@vecMathTests@aos@physx@@YAXXZ 0000000180001050 f   GuBox.obj
 0001:00000060       ??__EmaxFError@vecMathTests@aos@physx@@YAXXZ 0000000180001060 f   GuCCTSweepTests.obj
 0001:00000070       ??__EmaxV3Error@vecMathTests@aos@physx@@YAXXZ 0000000180001070 f   GuCCTSweepTests.obj
 0001:00000080       ??__EmaxV4Error@vecMathTests@aos@physx@@YAXXZ 0000000180001080 f   GuCCTSweepTests.obj
 0001:00000090       ??__EminFError@vecMathTests@aos@physx@@YAXXZ 0000000180001090 f   GuCCTSweepTests.obj
 0001:000000a0       ??__EminV3Error@vecMathTests@aos@physx@@YAXXZ 00000001800010a0 f   GuCCTSweepTests.obj
 0001:000000b0       ??__EminV4Error@vecMathTests@aos@physx@@YAXXZ 00000001800010b0 f   GuCCTSweepTests.obj
 0001:000000c0       ??__EmaxFError@vecMathTests@aos@physx@@YAXXZ 00000001800010c0 f   GuGeometryQuery.obj
 0001:000000d0       ??__EmaxV3Error@vecMathTests@aos@physx@@YAXXZ 00000001800010d0 f   GuGeometryQuery.obj
 0001:000000e0       ??__EmaxV4Error@vecMathTests@aos@physx@@YAXXZ 00000001800010e0 f   GuGeometryQuery.obj
 0001:000000f0       ??__EminFError@vecMathTests@aos@physx@@YAXXZ 00000001800010f0 f   GuGeometryQuery.obj
 0001:00000100       ??__EminV3Error@vecMathTests@aos@physx@@YAXXZ 0000000180001100 f   GuGeometryQuery.obj
 0001:00000110       ??__EminV4Error@vecMathTests@aos@physx@@YAXXZ 0000000180001110 f   GuGeometryQuery.obj
 0001:00000120       ??__EmaxFError@vecMathTests@aos@physx@@YAXXZ 0000000180001120 f   GuInternal.obj
 0001:00000130       ??__EmaxV3Error@vecMathTests@aos@physx@@YAXXZ 0000000180001130 f   GuInternal.obj
 0001:00000140       ??__EmaxV4Error@vecMathTests@aos@physx@@YAXXZ 0000000180001140 f   GuInternal.obj
 0001:00000150       ??__EminFError@vecMathTests@aos@physx@@YAXXZ 0000000180001150 f   GuInternal.obj
 0001:00000160       ??__EminV3Error@vecMathTests@aos@physx@@YAXXZ 0000000180001160 f   GuInternal.obj
 0001:00000170       ??__EminV4Error@vecMathTests@aos@physx@@YAXXZ 0000000180001170 f   GuInternal.obj
 0001:00000180       ??__EgSAIC@?A0x2165515b@@YAXXZ 0000000180001180 f   GuMeshFactory.obj
 0001:00000190       ??__EmaxFError@vecMathTests@aos@physx@@YAXXZ 0000000180001190 f   GuMeshFactory.obj
 0001:000001a0       ??__EmaxV3Error@vecMathTests@aos@physx@@YAXXZ 00000001800011a0 f   GuMeshFactory.obj
 0001:000001b0       ??__EmaxV4Error@vecMathTests@aos@physx@@YAXXZ 00000001800011b0 f   GuMeshFactory.obj
 0001:000001c0       ??__EminFError@vecMathTests@aos@physx@@YAXXZ 00000001800011c0 f   GuMeshFactory.obj
 0001:000001d0       ??__EminV3Error@vecMathTests@aos@physx@@YAXXZ 00000001800011d0 f   GuMeshFactory.obj
 0001:000001e0       ??__EminV4Error@vecMathTests@aos@physx@@YAXXZ 00000001800011e0 f   GuMeshFactory.obj
 0001:000001f0       ??__EmaxFError@vecMathTests@aos@physx@@YAXXZ 00000001800011f0 f   GuMTD.obj
 0001:00000200       ??__EmaxV3Error@vecMathTests@aos@physx@@YAXXZ 0000000180001200 f   GuMTD.obj
 0001:00000210       ??__EmaxV4Error@vecMathTests@aos@physx@@YAXXZ 0000000180001210 f   GuMTD.obj
 0001:00000220       ??__EminFError@vecMathTests@aos@physx@@YAXXZ 0000000180001220 f   GuMTD.obj
 0001:00000230       ??__EminV3Error@vecMathTests@aos@physx@@YAXXZ 0000000180001230 f   GuMTD.obj
 0001:00000240       ??__EminV4Error@vecMathTests@aos@physx@@YAXXZ 0000000180001240 f   GuMTD.obj
 0001:00000250       ??__EmaxFError@vecMathTests@aos@physx@@YAXXZ 0000000180001250 f   GuOverlapTests.obj
 0001:00000260       ??__EmaxV3Error@vecMathTests@aos@physx@@YAXXZ 0000000180001260 f   GuOverlapTests.obj
 0001:00000270       ??__EmaxV4Error@vecMathTests@aos@physx@@YAXXZ 0000000180001270 f   GuOverlapTests.obj
 0001:00000280       ??__EminFError@vecMathTests@aos@physx@@YAXXZ 0000000180001280 f   GuOverlapTests.obj
 0001:00000290       ??__EminV3Error@vecMathTests@aos@physx@@YAXXZ 0000000180001290 f   GuOverlapTests.obj
 0001:000002a0       ??__EminV4Error@vecMathTests@aos@physx@@YAXXZ 00000001800012a0 f   GuOverlapTests.obj
 0001:000002b0       ??__EmaxFError@vecMathTests@aos@physx@@YAXXZ 00000001800012b0 f   GuRaycastTests.obj
 0001:000002c0       ??__EmaxV3Error@vecMathTests@aos@physx@@YAXXZ 00000001800012c0 f   GuRaycastTests.obj
 0001:000002d0       ??__EmaxV4Error@vecMathTests@aos@physx@@YAXXZ 00000001800012d0 f   GuRaycastTests.obj
 0001:000002e0       ??__EminFError@vecMathTests@aos@physx@@YAXXZ 00000001800012e0 f   GuRaycastTests.obj
 0001:000002f0       ??__EminV3Error@vecMathTests@aos@physx@@YAXXZ 00000001800012f0 f   GuRaycastTests.obj
 0001:00000300       ??__EminV4Error@vecMathTests@aos@physx@@YAXXZ 0000000180001300 f   GuRaycastTests.obj
 0001:00000310       ??__EmaxFError@vecMathTests@aos@physx@@YAXXZ 0000000180001310 f   GuSweepMTD.obj
 0001:00000320       ??__EmaxV3Error@vecMathTests@aos@physx@@YAXXZ 0000000180001320 f   GuSweepMTD.obj
 0001:00000330       ??__EmaxV4Error@vecMathTests@aos@physx@@YAXXZ 0000000180001330 f   GuSweepMTD.obj
 0001:00000340       ??__EminFError@vecMathTests@aos@physx@@YAXXZ 0000000180001340 f   GuSweepMTD.obj
 0001:00000350       ??__EminV3Error@vecMathTests@aos@physx@@YAXXZ 0000000180001350 f   GuSweepMTD.obj
 0001:00000360       ??__EminV4Error@vecMathTests@aos@physx@@YAXXZ 0000000180001360 f   GuSweepMTD.obj
 0001:00000370       ??__EmaxFError@vecMathTests@aos@physx@@YAXXZ 0000000180001370 f   GuSweepSharedTests.obj
 0001:00000380       ??__EmaxV3Error@vecMathTests@aos@physx@@YAXXZ 0000000180001380 f   GuSweepSharedTests.obj
 0001:00000390       ??__EmaxV4Error@vecMathTests@aos@physx@@YAXXZ 0000000180001390 f   GuSweepSharedTests.obj
 0001:000003a0       ??__EminFError@vecMathTests@aos@physx@@YAXXZ 00000001800013a0 f   GuSweepSharedTests.obj
 0001:000003b0       ??__EminV3Error@vecMathTests@aos@physx@@YAXXZ 00000001800013b0 f   GuSweepSharedTests.obj
 0001:000003c0       ??__EminV4Error@vecMathTests@aos@physx@@YAXXZ 00000001800013c0 f   GuSweepSharedTests.obj
 0001:000003d0       ??__EmaxFError@vecMathTests@aos@physx@@YAXXZ 00000001800013d0 f   GuSweepTests.obj
 0001:000003e0       ??__EmaxV3Error@vecMathTests@aos@physx@@YAXXZ 00000001800013e0 f   GuSweepTests.obj
 0001:000003f0       ??__EmaxV4Error@vecMathTests@aos@physx@@YAXXZ 00000001800013f0 f   GuSweepTests.obj
 0001:00000400       ??__EminFError@vecMathTests@aos@physx@@YAXXZ 0000000180001400 f   GuSweepTests.obj
 0001:00000410       ??__EminV3Error@vecMathTests@aos@physx@@YAXXZ 0000000180001410 f   GuSweepTests.obj
 0001:00000420       ??__EminV4Error@vecMathTests@aos@physx@@YAXXZ 0000000180001420 f   GuSweepTests.obj
 0001:00000430       ??__EmaxFError@vecMathTests@aos@physx@@YAXXZ 0000000180001430 f   GuSDF.obj
 0001:00000440       ??__EmaxV3Error@vecMathTests@aos@physx@@YAXXZ 0000000180001440 f   GuSDF.obj
 0001:00000450       ??__EmaxV4Error@vecMathTests@aos@physx@@YAXXZ 0000000180001450 f   GuSDF.obj
 0001:00000460       ??__EminFError@vecMathTests@aos@physx@@YAXXZ 0000000180001460 f   GuSDF.obj
 0001:00000470       ??__EminV3Error@vecMathTests@aos@physx@@YAXXZ 0000000180001470 f   GuSDF.obj
 0001:00000480       ??__EminV4Error@vecMathTests@aos@physx@@YAXXZ 0000000180001480 f   GuSDF.obj
 0001:00000490       ??__EmaxFError@vecMathTests@aos@physx@@YAXXZ 0000000180001490 f   GuGjkQuery.obj
 0001:000004a0       ??__EmaxV3Error@vecMathTests@aos@physx@@YAXXZ 00000001800014a0 f   GuGjkQuery.obj
 0001:000004b0       ??__EmaxV4Error@vecMathTests@aos@physx@@YAXXZ 00000001800014b0 f   GuGjkQuery.obj
 0001:000004c0       ??__EminFError@vecMathTests@aos@physx@@YAXXZ 00000001800014c0 f   GuGjkQuery.obj
 0001:000004d0       ??__EminV3Error@vecMathTests@aos@physx@@YAXXZ 00000001800014d0 f   GuGjkQuery.obj
 0001:000004e0       ??__EminV4Error@vecMathTests@aos@physx@@YAXXZ 00000001800014e0 f   GuGjkQuery.obj
 0001:000004f0       ??__EmaxFError@vecMathTests@aos@physx@@YAXXZ 00000001800014f0 f   GuWindingNumber.obj
 0001:00000500       ??__EmaxV3Error@vecMathTests@aos@physx@@YAXXZ 0000000180001500 f   GuWindingNumber.obj
 0001:00000510       ??__EmaxV4Error@vecMathTests@aos@physx@@YAXXZ 0000000180001510 f   GuWindingNumber.obj
 0001:00000520       ??__EminFError@vecMathTests@aos@physx@@YAXXZ 0000000180001520 f   GuWindingNumber.obj
 0001:00000530       ??__EminV3Error@vecMathTests@aos@physx@@YAXXZ 0000000180001530 f   GuWindingNumber.obj
 0001:00000540       ??__EminV4Error@vecMathTests@aos@physx@@YAXXZ 0000000180001540 f   GuWindingNumber.obj
 0001:00000550       ??__EmaxFError@vecMathTests@aos@physx@@YAXXZ 0000000180001550 f   GuConvexGeometry.obj
 0001:00000560       ??__EmaxV3Error@vecMathTests@aos@physx@@YAXXZ 0000000180001560 f   GuConvexGeometry.obj
 0001:00000570       ??__EmaxV4Error@vecMathTests@aos@physx@@YAXXZ 0000000180001570 f   GuConvexGeometry.obj
 0001:00000580       ??__EminFError@vecMathTests@aos@physx@@YAXXZ 0000000180001580 f   GuConvexGeometry.obj
 0001:00000590       ??__EminV3Error@vecMathTests@aos@physx@@YAXXZ 0000000180001590 f   GuConvexGeometry.obj
 0001:000005a0       ??__EminV4Error@vecMathTests@aos@physx@@YAXXZ 00000001800015a0 f   GuConvexGeometry.obj
 0001:000005b0       ??__EmaxFError@vecMathTests@aos@physx@@YAXXZ 00000001800015b0 f   GuConvexSupport.obj
 0001:000005c0       ??__EmaxV3Error@vecMathTests@aos@physx@@YAXXZ 00000001800015c0 f   GuConvexSupport.obj
 0001:000005d0       ??__EmaxV4Error@vecMathTests@aos@physx@@YAXXZ 00000001800015d0 f   GuConvexSupport.obj
 0001:000005e0       ??__EminFError@vecMathTests@aos@physx@@YAXXZ 00000001800015e0 f   GuConvexSupport.obj
 0001:000005f0       ??__EminV3Error@vecMathTests@aos@physx@@YAXXZ 00000001800015f0 f   GuConvexSupport.obj
 0001:00000600       ??__EminV4Error@vecMathTests@aos@physx@@YAXXZ 0000000180001600 f   GuConvexSupport.obj
 0001:00000610       ??__EmaxFError@vecMathTests@aos@physx@@YAXXZ 0000000180001610 f   GuCCDSweepConvexMesh.obj
 0001:00000620       ??__EmaxV3Error@vecMathTests@aos@physx@@YAXXZ 0000000180001620 f   GuCCDSweepConvexMesh.obj
 0001:00000630       ??__EmaxV4Error@vecMathTests@aos@physx@@YAXXZ 0000000180001630 f   GuCCDSweepConvexMesh.obj
 0001:00000640       ??__EminFError@vecMathTests@aos@physx@@YAXXZ 0000000180001640 f   GuCCDSweepConvexMesh.obj
 0001:00000650       ??__EminV3Error@vecMathTests@aos@physx@@YAXXZ 0000000180001650 f   GuCCDSweepConvexMesh.obj
 0001:00000660       ??__EminV4Error@vecMathTests@aos@physx@@YAXXZ 0000000180001660 f   GuCCDSweepConvexMesh.obj
 0001:00000670       ??__EmaxFError@vecMathTests@aos@physx@@YAXXZ 0000000180001670 f   GuCCDSweepPrimitives.obj
 0001:00000680       ??__EmaxV3Error@vecMathTests@aos@physx@@YAXXZ 0000000180001680 f   GuCCDSweepPrimitives.obj
 0001:00000690       ??__EmaxV4Error@vecMathTests@aos@physx@@YAXXZ 0000000180001690 f   GuCCDSweepPrimitives.obj
 0001:000006a0       ??__EminFError@vecMathTests@aos@physx@@YAXXZ 00000001800016a0 f   GuCCDSweepPrimitives.obj
 0001:000006b0       ??__EminV3Error@vecMathTests@aos@physx@@YAXXZ 00000001800016b0 f   GuCCDSweepPrimitives.obj
 0001:000006c0       ??__EminV4Error@vecMathTests@aos@physx@@YAXXZ 00000001800016c0 f   GuCCDSweepPrimitives.obj
 0001:000006d0       ??__EmaxFError@vecMathTests@aos@physx@@YAXXZ 00000001800016d0 f   GuBarycentricCoordinates.obj
 0001:000006e0       ??__EmaxV3Error@vecMathTests@aos@physx@@YAXXZ 00000001800016e0 f   GuBarycentricCoordinates.obj
 0001:000006f0       ??__EmaxV4Error@vecMathTests@aos@physx@@YAXXZ 00000001800016f0 f   GuBarycentricCoordinates.obj
 0001:00000700       ??__EminFError@vecMathTests@aos@physx@@YAXXZ 0000000180001700 f   GuBarycentricCoordinates.obj
 0001:00000710       ??__EminV3Error@vecMathTests@aos@physx@@YAXXZ 0000000180001710 f   GuBarycentricCoordinates.obj
 0001:00000720       ??__EminV4Error@vecMathTests@aos@physx@@YAXXZ 0000000180001720 f   GuBarycentricCoordinates.obj
 0001:00000730       ??__EmaxFError@vecMathTests@aos@physx@@YAXXZ 0000000180001730 f   GuContactBoxBox.obj
 0001:00000740       ??__EmaxV3Error@vecMathTests@aos@physx@@YAXXZ 0000000180001740 f   GuContactBoxBox.obj
 0001:00000750       ??__EmaxV4Error@vecMathTests@aos@physx@@YAXXZ 0000000180001750 f   GuContactBoxBox.obj
 0001:00000760       ??__EminFError@vecMathTests@aos@physx@@YAXXZ 0000000180001760 f   GuContactBoxBox.obj
 0001:00000770       ??__EminV3Error@vecMathTests@aos@physx@@YAXXZ 0000000180001770 f   GuContactBoxBox.obj
 0001:00000780       ??__EminV4Error@vecMathTests@aos@physx@@YAXXZ 0000000180001780 f   GuContactBoxBox.obj
 0001:00000790       ??__EmaxFError@vecMathTests@aos@physx@@YAXXZ 0000000180001790 f   GuContactCapsuleBox.obj
 0001:000007a0       ??__EmaxV3Error@vecMathTests@aos@physx@@YAXXZ 00000001800017a0 f   GuContactCapsuleBox.obj
 0001:000007b0       ??__EmaxV4Error@vecMathTests@aos@physx@@YAXXZ 00000001800017b0 f   GuContactCapsuleBox.obj
 0001:000007c0       ??__EminFError@vecMathTests@aos@physx@@YAXXZ 00000001800017c0 f   GuContactCapsuleBox.obj
 0001:000007d0       ??__EminV3Error@vecMathTests@aos@physx@@YAXXZ 00000001800017d0 f   GuContactCapsuleBox.obj
 0001:000007e0       ??__EminV4Error@vecMathTests@aos@physx@@YAXXZ 00000001800017e0 f   GuContactCapsuleBox.obj
 0001:000007f0       ??__EmaxFError@vecMathTests@aos@physx@@YAXXZ 00000001800017f0 f   GuContactCapsuleCapsule.obj
 0001:00000800       ??__EmaxV3Error@vecMathTests@aos@physx@@YAXXZ 0000000180001800 f   GuContactCapsuleCapsule.obj
 0001:00000810       ??__EmaxV4Error@vecMathTests@aos@physx@@YAXXZ 0000000180001810 f   GuContactCapsuleCapsule.obj
 0001:00000820       ??__EminFError@vecMathTests@aos@physx@@YAXXZ 0000000180001820 f   GuContactCapsuleCapsule.obj
 0001:00000830       ??__EminV3Error@vecMathTests@aos@physx@@YAXXZ 0000000180001830 f   GuContactCapsuleCapsule.obj
 0001:00000840       ??__EminV4Error@vecMathTests@aos@physx@@YAXXZ 0000000180001840 f   GuContactCapsuleCapsule.obj
 0001:00000850       ??__EmaxFError@vecMathTests@aos@physx@@YAXXZ 0000000180001850 f   GuContactCapsuleConvex.obj
 0001:00000860       ??__EmaxV3Error@vecMathTests@aos@physx@@YAXXZ 0000000180001860 f   GuContactCapsuleConvex.obj
 0001:00000870       ??__EmaxV4Error@vecMathTests@aos@physx@@YAXXZ 0000000180001870 f   GuContactCapsuleConvex.obj
 0001:00000880       ??__EminFError@vecMathTests@aos@physx@@YAXXZ 0000000180001880 f   GuContactCapsuleConvex.obj
 0001:00000890       ??__EminV3Error@vecMathTests@aos@physx@@YAXXZ 0000000180001890 f   GuContactCapsuleConvex.obj
 0001:000008a0       ??__EminV4Error@vecMathTests@aos@physx@@YAXXZ 00000001800018a0 f   GuContactCapsuleConvex.obj
 0001:000008b0       ??__EmaxFError@vecMathTests@aos@physx@@YAXXZ 00000001800018b0 f   GuContactCapsuleMesh.obj
 0001:000008c0       ??__EmaxV3Error@vecMathTests@aos@physx@@YAXXZ 00000001800018c0 f   GuContactCapsuleMesh.obj
 0001:000008d0       ??__EmaxV4Error@vecMathTests@aos@physx@@YAXXZ 00000001800018d0 f   GuContactCapsuleMesh.obj
 0001:000008e0       ??__EminFError@vecMathTests@aos@physx@@YAXXZ 00000001800018e0 f   GuContactCapsuleMesh.obj
 0001:000008f0       ??__EminV3Error@vecMathTests@aos@physx@@YAXXZ 00000001800018f0 f   GuContactCapsuleMesh.obj
 0001:00000900       ??__EminV4Error@vecMathTests@aos@physx@@YAXXZ 0000000180001900 f   GuContactCapsuleMesh.obj
 0001:00000910       ??__EmaxFError@vecMathTests@aos@physx@@YAXXZ 0000000180001910 f   GuContactConvexConvex.obj
 0001:00000920       ??__EmaxV3Error@vecMathTests@aos@physx@@YAXXZ 0000000180001920 f   GuContactConvexConvex.obj
 0001:00000930       ??__EmaxV4Error@vecMathTests@aos@physx@@YAXXZ 0000000180001930 f   GuContactConvexConvex.obj
 0001:00000940       ??__EminFError@vecMathTests@aos@physx@@YAXXZ 0000000180001940 f   GuContactConvexConvex.obj
 0001:00000950       ??__EminV3Error@vecMathTests@aos@physx@@YAXXZ 0000000180001950 f   GuContactConvexConvex.obj
 0001:00000960       ??__EminV4Error@vecMathTests@aos@physx@@YAXXZ 0000000180001960 f   GuContactConvexConvex.obj
 0001:00000970       ??__EmaxFError@vecMathTests@aos@physx@@YAXXZ 0000000180001970 f   GuContactConvexMesh.obj
 0001:00000980       ??__EmaxV3Error@vecMathTests@aos@physx@@YAXXZ 0000000180001980 f   GuContactConvexMesh.obj
 0001:00000990       ??__EmaxV4Error@vecMathTests@aos@physx@@YAXXZ 0000000180001990 f   GuContactConvexMesh.obj
 0001:000009a0       ??__EminFError@vecMathTests@aos@physx@@YAXXZ 00000001800019a0 f   GuContactConvexMesh.obj
 0001:000009b0       ??__EminV3Error@vecMathTests@aos@physx@@YAXXZ 00000001800019b0 f   GuContactConvexMesh.obj
 0001:000009c0       ??__EminV4Error@vecMathTests@aos@physx@@YAXXZ 00000001800019c0 f   GuContactConvexMesh.obj
 0001:000009d0       ??__EmaxFError@vecMathTests@aos@physx@@YAXXZ 00000001800019d0 f   GuContactConvexCoreMesh.obj
 0001:000009e0       ??__EmaxV3Error@vecMathTests@aos@physx@@YAXXZ 00000001800019e0 f   GuContactConvexCoreMesh.obj
 0001:000009f0       ??__EmaxV4Error@vecMathTests@aos@physx@@YAXXZ 00000001800019f0 f   GuContactConvexCoreMesh.obj
 0001:00000a00       ??__EminFError@vecMathTests@aos@physx@@YAXXZ 0000000180001a00 f   GuContactConvexCoreMesh.obj
 0001:00000a10       ??__EminV3Error@vecMathTests@aos@physx@@YAXXZ 0000000180001a10 f   GuContactConvexCoreMesh.obj
 0001:00000a20       ??__EminV4Error@vecMathTests@aos@physx@@YAXXZ 0000000180001a20 f   GuContactConvexCoreMesh.obj
 0001:00000a30       ??__EmaxFError@vecMathTests@aos@physx@@YAXXZ 0000000180001a30 f   GuContactConvexCoreConvex.obj
 0001:00000a40       ??__EmaxV3Error@vecMathTests@aos@physx@@YAXXZ 0000000180001a40 f   GuContactConvexCoreConvex.obj
 0001:00000a50       ??__EmaxV4Error@vecMathTests@aos@physx@@YAXXZ 0000000180001a50 f   GuContactConvexCoreConvex.obj
 0001:00000a60       ??__EminFError@vecMathTests@aos@physx@@YAXXZ 0000000180001a60 f   GuContactConvexCoreConvex.obj
 0001:00000a70       ??__EminV3Error@vecMathTests@aos@physx@@YAXXZ 0000000180001a70 f   GuContactConvexCoreConvex.obj
 0001:00000a80       ??__EminV4Error@vecMathTests@aos@physx@@YAXXZ 0000000180001a80 f   GuContactConvexCoreConvex.obj
 0001:00000a90       ??__EmaxFError@vecMathTests@aos@physx@@YAXXZ 0000000180001a90 f   GuContactPlaneConvexCore.obj
 0001:00000aa0       ??__EmaxV3Error@vecMathTests@aos@physx@@YAXXZ 0000000180001aa0 f   GuContactPlaneConvexCore.obj
 0001:00000ab0       ??__EmaxV4Error@vecMathTests@aos@physx@@YAXXZ 0000000180001ab0 f   GuContactPlaneConvexCore.obj
 0001:00000ac0       ??__EminFError@vecMathTests@aos@physx@@YAXXZ 0000000180001ac0 f   GuContactPlaneConvexCore.obj
 0001:00000ad0       ??__EminV3Error@vecMathTests@aos@physx@@YAXXZ 0000000180001ad0 f   GuContactPlaneConvexCore.obj
 0001:00000ae0       ??__EminV4Error@vecMathTests@aos@physx@@YAXXZ 0000000180001ae0 f   GuContactPlaneConvexCore.obj
 0001:00000af0       ??__EmaxFError@vecMathTests@aos@physx@@YAXXZ 0000000180001af0 f   GuContactPlaneBox.obj
 0001:00000b00       ??__EmaxV3Error@vecMathTests@aos@physx@@YAXXZ 0000000180001b00 f   GuContactPlaneBox.obj
 0001:00000b10       ??__EmaxV4Error@vecMathTests@aos@physx@@YAXXZ 0000000180001b10 f   GuContactPlaneBox.obj
 0001:00000b20       ??__EminFError@vecMathTests@aos@physx@@YAXXZ 0000000180001b20 f   GuContactPlaneBox.obj
 0001:00000b30       ??__EminV3Error@vecMathTests@aos@physx@@YAXXZ 0000000180001b30 f   GuContactPlaneBox.obj
 0001:00000b40       ??__EminV4Error@vecMathTests@aos@physx@@YAXXZ 0000000180001b40 f   GuContactPlaneBox.obj
 0001:00000b50       ??__EmaxFError@vecMathTests@aos@physx@@YAXXZ 0000000180001b50 f   GuContactPlaneConvex.obj
 0001:00000b60       ??__EmaxV3Error@vecMathTests@aos@physx@@YAXXZ 0000000180001b60 f   GuContactPlaneConvex.obj
 0001:00000b70       ??__EmaxV4Error@vecMathTests@aos@physx@@YAXXZ 0000000180001b70 f   GuContactPlaneConvex.obj
 0001:00000b80       ??__EminFError@vecMathTests@aos@physx@@YAXXZ 0000000180001b80 f   GuContactPlaneConvex.obj
 0001:00000b90       ??__EminV3Error@vecMathTests@aos@physx@@YAXXZ 0000000180001b90 f   GuContactPlaneConvex.obj
 0001:00000ba0       ??__EminV4Error@vecMathTests@aos@physx@@YAXXZ 0000000180001ba0 f   GuContactPlaneConvex.obj
 0001:00000bb0       ??__EmaxFError@vecMathTests@aos@physx@@YAXXZ 0000000180001bb0 f   GuContactPlaneMesh.obj
 0001:00000bc0       ??__EmaxV3Error@vecMathTests@aos@physx@@YAXXZ 0000000180001bc0 f   GuContactPlaneMesh.obj
 0001:00000bd0       ??__EmaxV4Error@vecMathTests@aos@physx@@YAXXZ 0000000180001bd0 f   GuContactPlaneMesh.obj
 0001:00000be0       ??__EminFError@vecMathTests@aos@physx@@YAXXZ 0000000180001be0 f   GuContactPlaneMesh.obj
 0001:00000bf0       ??__EminV3Error@vecMathTests@aos@physx@@YAXXZ 0000000180001bf0 f   GuContactPlaneMesh.obj
 0001:00000c00       ??__EminV4Error@vecMathTests@aos@physx@@YAXXZ 0000000180001c00 f   GuContactPlaneMesh.obj
 0001:00000c10       ??__EmaxFError@vecMathTests@aos@physx@@YAXXZ 0000000180001c10 f   GuContactPolygonPolygon.obj
 0001:00000c20       ??__EmaxV3Error@vecMathTests@aos@physx@@YAXXZ 0000000180001c20 f   GuContactPolygonPolygon.obj
 0001:00000c30       ??__EmaxV4Error@vecMathTests@aos@physx@@YAXXZ 0000000180001c30 f   GuContactPolygonPolygon.obj
 0001:00000c40       ??__EminFError@vecMathTests@aos@physx@@YAXXZ 0000000180001c40 f   GuContactPolygonPolygon.obj
 0001:00000c50       ??__EminV3Error@vecMathTests@aos@physx@@YAXXZ 0000000180001c50 f   GuContactPolygonPolygon.obj
 0001:00000c60       ??__EminV4Error@vecMathTests@aos@physx@@YAXXZ 0000000180001c60 f   GuContactPolygonPolygon.obj
 0001:00000c70       ??__EmaxFError@vecMathTests@aos@physx@@YAXXZ 0000000180001c70 f   GuContactMeshMesh.obj
 0001:00000c80       ??__EmaxV3Error@vecMathTests@aos@physx@@YAXXZ 0000000180001c80 f   GuContactMeshMesh.obj
 0001:00000c90       ??__EmaxV4Error@vecMathTests@aos@physx@@YAXXZ 0000000180001c90 f   GuContactMeshMesh.obj
 0001:00000ca0       ??__EminFError@vecMathTests@aos@physx@@YAXXZ 0000000180001ca0 f   GuContactMeshMesh.obj
 0001:00000cb0       ??__EminV3Error@vecMathTests@aos@physx@@YAXXZ 0000000180001cb0 f   GuContactMeshMesh.obj
 0001:00000cc0       ??__EminV4Error@vecMathTests@aos@physx@@YAXXZ 0000000180001cc0 f   GuContactMeshMesh.obj
 0001:00000cd0       ??__EmaxFError@vecMathTests@aos@physx@@YAXXZ 0000000180001cd0 f   GuContactSphereMesh.obj
 0001:00000ce0       ??__EmaxV3Error@vecMathTests@aos@physx@@YAXXZ 0000000180001ce0 f   GuContactSphereMesh.obj
 0001:00000cf0       ??__EmaxV4Error@vecMathTests@aos@physx@@YAXXZ 0000000180001cf0 f   GuContactSphereMesh.obj
 0001:00000d00       ??__EminFError@vecMathTests@aos@physx@@YAXXZ 0000000180001d00 f   GuContactSphereMesh.obj
 0001:00000d10       ??__EminV3Error@vecMathTests@aos@physx@@YAXXZ 0000000180001d10 f   GuContactSphereMesh.obj
 0001:00000d20       ??__EminV4Error@vecMathTests@aos@physx@@YAXXZ 0000000180001d20 f   GuContactSphereMesh.obj
 0001:00000d30       ??__EmaxFError@vecMathTests@aos@physx@@YAXXZ 0000000180001d30 f   GuConvexHelper.obj
 0001:00000d40       ??__EmaxV3Error@vecMathTests@aos@physx@@YAXXZ 0000000180001d40 f   GuConvexHelper.obj
 0001:00000d50       ??__EmaxV4Error@vecMathTests@aos@physx@@YAXXZ 0000000180001d50 f   GuConvexHelper.obj
 0001:00000d60       ??__EminFError@vecMathTests@aos@physx@@YAXXZ 0000000180001d60 f   GuConvexHelper.obj
 0001:00000d70       ??__EminV3Error@vecMathTests@aos@physx@@YAXXZ 0000000180001d70 f   GuConvexHelper.obj
 0001:00000d80       ??__EminV4Error@vecMathTests@aos@physx@@YAXXZ 0000000180001d80 f   GuConvexHelper.obj
 0001:00000d90       ??__EboxVertexTable@physx@@YAXXZ 0000000180001d90 f   GuConvexSupportTable.obj
 0001:00000e10       ??__EmaxFError@vecMathTests@aos@physx@@YAXXZ 0000000180001e10 f   GuConvexSupportTable.obj
 0001:00000e20       ??__EmaxV3Error@vecMathTests@aos@physx@@YAXXZ 0000000180001e20 f   GuConvexSupportTable.obj
 0001:00000e30       ??__EmaxV4Error@vecMathTests@aos@physx@@YAXXZ 0000000180001e30 f   GuConvexSupportTable.obj
 0001:00000e40       ??__EminFError@vecMathTests@aos@physx@@YAXXZ 0000000180001e40 f   GuConvexSupportTable.obj
 0001:00000e50       ??__EminV3Error@vecMathTests@aos@physx@@YAXXZ 0000000180001e50 f   GuConvexSupportTable.obj
 0001:00000e60       ??__EminV4Error@vecMathTests@aos@physx@@YAXXZ 0000000180001e60 f   GuConvexSupportTable.obj
 0001:00000e70       ??__EmaxFError@vecMathTests@aos@physx@@YAXXZ 0000000180001e70 f   GuConvexUtilsInternal.obj
 0001:00000e80       ??__EmaxV3Error@vecMathTests@aos@physx@@YAXXZ 0000000180001e80 f   GuConvexUtilsInternal.obj
 0001:00000e90       ??__EmaxV4Error@vecMathTests@aos@physx@@YAXXZ 0000000180001e90 f   GuConvexUtilsInternal.obj
 0001:00000ea0       ??__EminFError@vecMathTests@aos@physx@@YAXXZ 0000000180001ea0 f   GuConvexUtilsInternal.obj
 0001:00000eb0       ??__EminV3Error@vecMathTests@aos@physx@@YAXXZ 0000000180001eb0 f   GuConvexUtilsInternal.obj
 0001:00000ec0       ??__EminV4Error@vecMathTests@aos@physx@@YAXXZ 0000000180001ec0 f   GuConvexUtilsInternal.obj
 0001:00000ed0       ??__EmaxFError@vecMathTests@aos@physx@@YAXXZ 0000000180001ed0 f   GuShapeConvex.obj
 0001:00000ee0       ??__EmaxV3Error@vecMathTests@aos@physx@@YAXXZ 0000000180001ee0 f   GuShapeConvex.obj
 0001:00000ef0       ??__EmaxV4Error@vecMathTests@aos@physx@@YAXXZ 0000000180001ef0 f   GuShapeConvex.obj
 0001:00000f00       ??__EminFError@vecMathTests@aos@physx@@YAXXZ 0000000180001f00 f   GuShapeConvex.obj
 0001:00000f10       ??__EminV3Error@vecMathTests@aos@physx@@YAXXZ 0000000180001f10 f   GuShapeConvex.obj
 0001:00000f20       ??__EminV4Error@vecMathTests@aos@physx@@YAXXZ 0000000180001f20 f   GuShapeConvex.obj
 0001:00000f30       ??__EmaxFError@vecMathTests@aos@physx@@YAXXZ 0000000180001f30 f   GuDistancePointTriangle.obj
 0001:00000f40       ??__EmaxV3Error@vecMathTests@aos@physx@@YAXXZ 0000000180001f40 f   GuDistancePointTriangle.obj
 0001:00000f50       ??__EmaxV4Error@vecMathTests@aos@physx@@YAXXZ 0000000180001f50 f   GuDistancePointTriangle.obj
 0001:00000f60       ??__EminFError@vecMathTests@aos@physx@@YAXXZ 0000000180001f60 f   GuDistancePointTriangle.obj
 0001:00000f70       ??__EminV3Error@vecMathTests@aos@physx@@YAXXZ 0000000180001f70 f   GuDistancePointTriangle.obj
 0001:00000f80       ??__EminV4Error@vecMathTests@aos@physx@@YAXXZ 0000000180001f80 f   GuDistancePointTriangle.obj
 0001:00000f90       ??__EmaxFError@vecMathTests@aos@physx@@YAXXZ 0000000180001f90 f   GuDistanceSegmentBox.obj
 0001:00000fa0       ??__EmaxV3Error@vecMathTests@aos@physx@@YAXXZ 0000000180001fa0 f   GuDistanceSegmentBox.obj
 0001:00000fb0       ??__EmaxV4Error@vecMathTests@aos@physx@@YAXXZ 0000000180001fb0 f   GuDistanceSegmentBox.obj
 0001:00000fc0       ??__EminFError@vecMathTests@aos@physx@@YAXXZ 0000000180001fc0 f   GuDistanceSegmentBox.obj
 0001:00000fd0       ??__EminV3Error@vecMathTests@aos@physx@@YAXXZ 0000000180001fd0 f   GuDistanceSegmentBox.obj
 0001:00000fe0       ??__EminV4Error@vecMathTests@aos@physx@@YAXXZ 0000000180001fe0 f   GuDistanceSegmentBox.obj
 0001:00000ff0       ??__EmaxFError@vecMathTests@aos@physx@@YAXXZ 0000000180001ff0 f   GuDistanceSegmentSegment.obj
 0001:00001000       ??__EmaxV3Error@vecMathTests@aos@physx@@YAXXZ 0000000180002000 f   GuDistanceSegmentSegment.obj
 0001:00001010       ??__EmaxV4Error@vecMathTests@aos@physx@@YAXXZ 0000000180002010 f   GuDistanceSegmentSegment.obj
 0001:00001020       ??__EminFError@vecMathTests@aos@physx@@YAXXZ 0000000180002020 f   GuDistanceSegmentSegment.obj
 0001:00001030       ??__EminV3Error@vecMathTests@aos@physx@@YAXXZ 0000000180002030 f   GuDistanceSegmentSegment.obj
 0001:00001040       ??__EminV4Error@vecMathTests@aos@physx@@YAXXZ 0000000180002040 f   GuDistanceSegmentSegment.obj
 0001:00001050       ??__EmaxFError@vecMathTests@aos@physx@@YAXXZ 0000000180002050 f   GuDistanceSegmentTriangle.obj
 0001:00001060       ??__EmaxV3Error@vecMathTests@aos@physx@@YAXXZ 0000000180002060 f   GuDistanceSegmentTriangle.obj
 0001:00001070       ??__EmaxV4Error@vecMathTests@aos@physx@@YAXXZ 0000000180002070 f   GuDistanceSegmentTriangle.obj
 0001:00001080       ??__EminFError@vecMathTests@aos@physx@@YAXXZ 0000000180002080 f   GuDistanceSegmentTriangle.obj
 0001:00001090       ??__EminV3Error@vecMathTests@aos@physx@@YAXXZ 0000000180002090 f   GuDistanceSegmentTriangle.obj
 0001:000010a0       ??__EminV4Error@vecMathTests@aos@physx@@YAXXZ 00000001800020a0 f   GuDistanceSegmentTriangle.obj
 0001:000010b0       ??__EmaxFError@vecMathTests@aos@physx@@YAXXZ 00000001800020b0 f   GuDistanceTriangleTriangle.obj
 0001:000010c0       ??__EmaxV3Error@vecMathTests@aos@physx@@YAXXZ 00000001800020c0 f   GuDistanceTriangleTriangle.obj
 0001:000010d0       ??__EmaxV4Error@vecMathTests@aos@physx@@YAXXZ 00000001800020d0 f   GuDistanceTriangleTriangle.obj
 0001:000010e0       ??__EminFError@vecMathTests@aos@physx@@YAXXZ 00000001800020e0 f   GuDistanceTriangleTriangle.obj
 0001:000010f0       ??__EminV3Error@vecMathTests@aos@physx@@YAXXZ 00000001800020f0 f   GuDistanceTriangleTriangle.obj
 0001:00001100       ??__EminV4Error@vecMathTests@aos@physx@@YAXXZ 0000000180002100 f   GuDistanceTriangleTriangle.obj
 0001:00001110       ??__EmaxFError@vecMathTests@aos@physx@@YAXXZ 0000000180002110 f   GuDistancePointTetrahedron.obj
 0001:00001120       ??__EmaxV3Error@vecMathTests@aos@physx@@YAXXZ 0000000180002120 f   GuDistancePointTetrahedron.obj
 0001:00001130       ??__EmaxV4Error@vecMathTests@aos@physx@@YAXXZ 0000000180002130 f   GuDistancePointTetrahedron.obj
 0001:00001140       ??__EminFError@vecMathTests@aos@physx@@YAXXZ 0000000180002140 f   GuDistancePointTetrahedron.obj
 0001:00001150       ??__EminV3Error@vecMathTests@aos@physx@@YAXXZ 0000000180002150 f   GuDistancePointTetrahedron.obj
 0001:00001160       ??__EminV4Error@vecMathTests@aos@physx@@YAXXZ 0000000180002160 f   GuDistancePointTetrahedron.obj
 0001:00001170       ??__EmaxFError@vecMathTests@aos@physx@@YAXXZ 0000000180002170 f   GuEPA.obj
 0001:00001180       ??__EmaxV3Error@vecMathTests@aos@physx@@YAXXZ 0000000180002180 f   GuEPA.obj
 0001:00001190       ??__EmaxV4Error@vecMathTests@aos@physx@@YAXXZ 0000000180002190 f   GuEPA.obj
 0001:000011a0       ??__EminFError@vecMathTests@aos@physx@@YAXXZ 00000001800021a0 f   GuEPA.obj
 0001:000011b0       ??__EminV3Error@vecMathTests@aos@physx@@YAXXZ 00000001800021b0 f   GuEPA.obj
 0001:000011c0       ??__EminV4Error@vecMathTests@aos@physx@@YAXXZ 00000001800021c0 f   GuEPA.obj
 0001:000011d0       ??__EmaxFError@vecMathTests@aos@physx@@YAXXZ 00000001800021d0 f   GuGJKSimplex.obj
 0001:000011e0       ??__EmaxV3Error@vecMathTests@aos@physx@@YAXXZ 00000001800021e0 f   GuGJKSimplex.obj
 0001:000011f0       ??__EmaxV4Error@vecMathTests@aos@physx@@YAXXZ 00000001800021f0 f   GuGJKSimplex.obj
 0001:00001200       ??__EminFError@vecMathTests@aos@physx@@YAXXZ 0000000180002200 f   GuGJKSimplex.obj
 0001:00001210       ??__EminV3Error@vecMathTests@aos@physx@@YAXXZ 0000000180002210 f   GuGJKSimplex.obj
 0001:00001220       ??__EminV4Error@vecMathTests@aos@physx@@YAXXZ 0000000180002220 f   GuGJKSimplex.obj
 0001:00001230       ??__EmaxFError@vecMathTests@aos@physx@@YAXXZ 0000000180002230 f   GuGJKTest.obj
 0001:00001240       ??__EmaxV3Error@vecMathTests@aos@physx@@YAXXZ 0000000180002240 f   GuGJKTest.obj
 0001:00001250       ??__EmaxV4Error@vecMathTests@aos@physx@@YAXXZ 0000000180002250 f   GuGJKTest.obj
 0001:00001260       ??__EminFError@vecMathTests@aos@physx@@YAXXZ 0000000180002260 f   GuGJKTest.obj
 0001:00001270       ??__EminV3Error@vecMathTests@aos@physx@@YAXXZ 0000000180002270 f   GuGJKTest.obj
 0001:00001280       ??__EminV4Error@vecMathTests@aos@physx@@YAXXZ 0000000180002280 f   GuGJKTest.obj
 0001:00001290       ??__EmaxFError@vecMathTests@aos@physx@@YAXXZ 0000000180002290 f   GuHeightFieldUtil.obj
 0001:000012a0       ??__EmaxV3Error@vecMathTests@aos@physx@@YAXXZ 00000001800022a0 f   GuHeightFieldUtil.obj
 0001:000012b0       ??__EmaxV4Error@vecMathTests@aos@physx@@YAXXZ 00000001800022b0 f   GuHeightFieldUtil.obj
 0001:000012c0       ??__EminFError@vecMathTests@aos@physx@@YAXXZ 00000001800022c0 f   GuHeightFieldUtil.obj
 0001:000012d0       ??__EminV3Error@vecMathTests@aos@physx@@YAXXZ 00000001800022d0 f   GuHeightFieldUtil.obj
 0001:000012e0       ??__EminV4Error@vecMathTests@aos@physx@@YAXXZ 00000001800022e0 f   GuHeightFieldUtil.obj
 0001:000012f0       ??__EmaxFError@vecMathTests@aos@physx@@YAXXZ 00000001800022f0 f   GuOverlapTestsHF.obj
 0001:00001300       ??__EmaxV3Error@vecMathTests@aos@physx@@YAXXZ 0000000180002300 f   GuOverlapTestsHF.obj
 0001:00001310       ??__EmaxV4Error@vecMathTests@aos@physx@@YAXXZ 0000000180002310 f   GuOverlapTestsHF.obj
 0001:00001320       ??__EminFError@vecMathTests@aos@physx@@YAXXZ 0000000180002320 f   GuOverlapTestsHF.obj
 0001:00001330       ??__EminV3Error@vecMathTests@aos@physx@@YAXXZ 0000000180002330 f   GuOverlapTestsHF.obj
 0001:00001340       ??__EminV4Error@vecMathTests@aos@physx@@YAXXZ 0000000180002340 f   GuOverlapTestsHF.obj
 0001:00001350       ??__EmaxFError@vecMathTests@aos@physx@@YAXXZ 0000000180002350 f   GuSweepsHF.obj
 0001:00001360       ??__EmaxV3Error@vecMathTests@aos@physx@@YAXXZ 0000000180002360 f   GuSweepsHF.obj
 0001:00001370       ??__EmaxV4Error@vecMathTests@aos@physx@@YAXXZ 0000000180002370 f   GuSweepsHF.obj
 0001:00001380       ??__EminFError@vecMathTests@aos@physx@@YAXXZ 0000000180002380 f   GuSweepsHF.obj
 0001:00001390       ??__EminV3Error@vecMathTests@aos@physx@@YAXXZ 0000000180002390 f   GuSweepsHF.obj
 0001:000013a0       ??__EminV4Error@vecMathTests@aos@physx@@YAXXZ 00000001800023a0 f   GuSweepsHF.obj
 0001:000013b0       ??__EmaxFError@vecMathTests@aos@physx@@YAXXZ 00000001800023b0 f   GuIntersectionRayBox.obj
 0001:000013c0       ??__EmaxV3Error@vecMathTests@aos@physx@@YAXXZ 00000001800023c0 f   GuIntersectionRayBox.obj
 0001:000013d0       ??__EmaxV4Error@vecMathTests@aos@physx@@YAXXZ 00000001800023d0 f   GuIntersectionRayBox.obj
 0001:000013e0       ??__EminFError@vecMathTests@aos@physx@@YAXXZ 00000001800023e0 f   GuIntersectionRayBox.obj
 0001:000013f0       ??__EminV3Error@vecMathTests@aos@physx@@YAXXZ 00000001800023f0 f   GuIntersectionRayBox.obj
 0001:00001400       ??__EminV4Error@vecMathTests@aos@physx@@YAXXZ 0000000180002400 f   GuIntersectionRayBox.obj
 0001:00001410       ??__EmaxFError@vecMathTests@aos@physx@@YAXXZ 0000000180002410 f   GuIntersectionTriangleBox.obj
 0001:00001420       ??__EmaxV3Error@vecMathTests@aos@physx@@YAXXZ 0000000180002420 f   GuIntersectionTriangleBox.obj
 0001:00001430       ??__EmaxV4Error@vecMathTests@aos@physx@@YAXXZ 0000000180002430 f   GuIntersectionTriangleBox.obj
 0001:00001440       ??__EminFError@vecMathTests@aos@physx@@YAXXZ 0000000180002440 f   GuIntersectionTriangleBox.obj
 0001:00001450       ??__EminV3Error@vecMathTests@aos@physx@@YAXXZ 0000000180002450 f   GuIntersectionTriangleBox.obj
 0001:00001460       ??__EminV4Error@vecMathTests@aos@physx@@YAXXZ 0000000180002460 f   GuIntersectionTriangleBox.obj
 0001:00001470       ??__EsignV@@YAXXZ          0000000180002470 f   GuIntersectionTriangleBox.obj
 0001:000014b0       ??__EmaxFError@vecMathTests@aos@physx@@YAXXZ 00000001800024b0 f   GuBV4.obj
 0001:000014c0       ??__EmaxV3Error@vecMathTests@aos@physx@@YAXXZ 00000001800024c0 f   GuBV4.obj
 0001:000014d0       ??__EmaxV4Error@vecMathTests@aos@physx@@YAXXZ 00000001800024d0 f   GuBV4.obj
 0001:000014e0       ??__EminFError@vecMathTests@aos@physx@@YAXXZ 00000001800024e0 f   GuBV4.obj
 0001:000014f0       ??__EminV3Error@vecMathTests@aos@physx@@YAXXZ 00000001800024f0 f   GuBV4.obj
 0001:00001500       ??__EminV4Error@vecMathTests@aos@physx@@YAXXZ 0000000180002500 f   GuBV4.obj
 0001:00001510       ??__EmaxFError@vecMathTests@aos@physx@@YAXXZ 0000000180002510 f   GuBV4Build.obj
 0001:00001520       ??__EmaxV3Error@vecMathTests@aos@physx@@YAXXZ 0000000180002520 f   GuBV4Build.obj
 0001:00001530       ??__EmaxV4Error@vecMathTests@aos@physx@@YAXXZ 0000000180002530 f   GuBV4Build.obj
 0001:00001540       ??__EminFError@vecMathTests@aos@physx@@YAXXZ 0000000180002540 f   GuBV4Build.obj
 0001:00001550       ??__EminV3Error@vecMathTests@aos@physx@@YAXXZ 0000000180002550 f   GuBV4Build.obj
 0001:00001560       ??__EminV4Error@vecMathTests@aos@physx@@YAXXZ 0000000180002560 f   GuBV4Build.obj
 0001:00001570       ??__EepsFloat4@?A0x670ae5bb@@YAXXZ 0000000180002570 f   GuBV4_AABBSweep.obj
 0001:00001580       ??__EepsInflateFloat4@?A0x670ae5bb@@YAXXZ 0000000180002580 f   GuBV4_AABBSweep.obj
 0001:00001590       ??__EmaxFError@vecMathTests@aos@physx@@YAXXZ 0000000180002590 f   GuBV4_AABBSweep.obj
 0001:000015a0       ??__EmaxV3Error@vecMathTests@aos@physx@@YAXXZ 00000001800025a0 f   GuBV4_AABBSweep.obj
 0001:000015b0       ??__EmaxV4Error@vecMathTests@aos@physx@@YAXXZ 00000001800025b0 f   GuBV4_AABBSweep.obj
 0001:000015c0       ??__EminFError@vecMathTests@aos@physx@@YAXXZ 00000001800025c0 f   GuBV4_AABBSweep.obj
 0001:000015d0       ??__EminV3Error@vecMathTests@aos@physx@@YAXXZ 00000001800025d0 f   GuBV4_AABBSweep.obj
 0001:000015e0       ??__EminV4Error@vecMathTests@aos@physx@@YAXXZ 00000001800025e0 f   GuBV4_AABBSweep.obj
 0001:000015f0       ??__EsignMask@?A0x670ae5bb@@YAXXZ 00000001800025f0 f   GuBV4_AABBSweep.obj
 0001:00001630       ??__Etwos@?A0x670ae5bb@@YAXXZ 0000000180002630 f   GuBV4_AABBSweep.obj
 0001:00001640       ??__Ezeroes@?A0x670ae5bb@@YAXXZ 0000000180002640 f   GuBV4_AABBSweep.obj
 0001:00001650       ??__EmaxFError@vecMathTests@aos@physx@@YAXXZ 0000000180002650 f   GuBV4_BoxOverlap.obj
 0001:00001660       ??__EmaxV3Error@vecMathTests@aos@physx@@YAXXZ 0000000180002660 f   GuBV4_BoxOverlap.obj
 0001:00001670       ??__EmaxV4Error@vecMathTests@aos@physx@@YAXXZ 0000000180002670 f   GuBV4_BoxOverlap.obj
 0001:00001680       ??__EminFError@vecMathTests@aos@physx@@YAXXZ 0000000180002680 f   GuBV4_BoxOverlap.obj
 0001:00001690       ??__EminV3Error@vecMathTests@aos@physx@@YAXXZ 0000000180002690 f   GuBV4_BoxOverlap.obj
 0001:000016a0       ??__EminV4Error@vecMathTests@aos@physx@@YAXXZ 00000001800026a0 f   GuBV4_BoxOverlap.obj
 0001:000016b0       ??__EmaxFError@vecMathTests@aos@physx@@YAXXZ 00000001800026b0 f   GuBV4_CapsuleSweep.obj
 0001:000016c0       ??__EmaxV3Error@vecMathTests@aos@physx@@YAXXZ 00000001800026c0 f   GuBV4_CapsuleSweep.obj
 0001:000016d0       ??__EmaxV4Error@vecMathTests@aos@physx@@YAXXZ 00000001800026d0 f   GuBV4_CapsuleSweep.obj
 0001:000016e0       ??__EminFError@vecMathTests@aos@physx@@YAXXZ 00000001800026e0 f   GuBV4_CapsuleSweep.obj
 0001:000016f0       ??__EminV3Error@vecMathTests@aos@physx@@YAXXZ 00000001800026f0 f   GuBV4_CapsuleSweep.obj
 0001:00001700       ??__EminV4Error@vecMathTests@aos@physx@@YAXXZ 0000000180002700 f   GuBV4_CapsuleSweep.obj
 0001:00001710       ??__EepsFloat4@?A0xa488c867@@YAXXZ 0000000180002710 f   GuBV4_CapsuleSweepAA.obj
 0001:00001720       ??__EepsInflateFloat4@?A0xa488c867@@YAXXZ 0000000180002720 f   GuBV4_CapsuleSweepAA.obj
 0001:00001730       ??__EmaxFError@vecMathTests@aos@physx@@YAXXZ 0000000180002730 f   GuBV4_CapsuleSweepAA.obj
 0001:00001740       ??__EmaxV3Error@vecMathTests@aos@physx@@YAXXZ 0000000180002740 f   GuBV4_CapsuleSweepAA.obj
 0001:00001750       ??__EmaxV4Error@vecMathTests@aos@physx@@YAXXZ 0000000180002750 f   GuBV4_CapsuleSweepAA.obj
 0001:00001760       ??__EminFError@vecMathTests@aos@physx@@YAXXZ 0000000180002760 f   GuBV4_CapsuleSweepAA.obj
 0001:00001770       ??__EminV3Error@vecMathTests@aos@physx@@YAXXZ 0000000180002770 f   GuBV4_CapsuleSweepAA.obj
 0001:00001780       ??__EminV4Error@vecMathTests@aos@physx@@YAXXZ 0000000180002780 f   GuBV4_CapsuleSweepAA.obj
 0001:00001790       ??__EsignMask@?A0xa488c867@@YAXXZ 0000000180002790 f   GuBV4_CapsuleSweepAA.obj
 0001:000017d0       ??__Etwos@?A0xa488c867@@YAXXZ 00000001800027d0 f   GuBV4_CapsuleSweepAA.obj
 0001:000017e0       ??__Ezeroes@?A0xa488c867@@YAXXZ 00000001800027e0 f   GuBV4_CapsuleSweepAA.obj
 0001:000017f0       ??__EmaxFError@vecMathTests@aos@physx@@YAXXZ 00000001800027f0 f   GuBV4_MeshMeshOverlap.obj
 0001:00001800       ??__EmaxV3Error@vecMathTests@aos@physx@@YAXXZ 0000000180002800 f   GuBV4_MeshMeshOverlap.obj
 0001:00001810       ??__EmaxV4Error@vecMathTests@aos@physx@@YAXXZ 0000000180002810 f   GuBV4_MeshMeshOverlap.obj
 0001:00001820       ??__EminFError@vecMathTests@aos@physx@@YAXXZ 0000000180002820 f   GuBV4_MeshMeshOverlap.obj
 0001:00001830       ??__EminV3Error@vecMathTests@aos@physx@@YAXXZ 0000000180002830 f   GuBV4_MeshMeshOverlap.obj
 0001:00001840       ??__EminV4Error@vecMathTests@aos@physx@@YAXXZ 0000000180002840 f   GuBV4_MeshMeshOverlap.obj
 0001:00001850       ??__EmaxFError@vecMathTests@aos@physx@@YAXXZ 0000000180002850 f   GuBV4_OBBSweep.obj
 0001:00001860       ??__EmaxV3Error@vecMathTests@aos@physx@@YAXXZ 0000000180002860 f   GuBV4_OBBSweep.obj
 0001:00001870       ??__EmaxV4Error@vecMathTests@aos@physx@@YAXXZ 0000000180002870 f   GuBV4_OBBSweep.obj
 0001:00001880       ??__EminFError@vecMathTests@aos@physx@@YAXXZ 0000000180002880 f   GuBV4_OBBSweep.obj
 0001:00001890       ??__EminV3Error@vecMathTests@aos@physx@@YAXXZ 0000000180002890 f   GuBV4_OBBSweep.obj
 0001:000018a0       ??__EminV4Error@vecMathTests@aos@physx@@YAXXZ 00000001800028a0 f   GuBV4_OBBSweep.obj
 0001:000018b0       ??__EepsFloat4@?A0x290a4587@@YAXXZ 00000001800028b0 f   GuBV4_Raycast.obj
 0001:000018c0       ??__EepsInflateFloat4@?A0x290a4587@@YAXXZ 00000001800028c0 f   GuBV4_Raycast.obj
 0001:000018d0       ??__EmaxFError@vecMathTests@aos@physx@@YAXXZ 00000001800028d0 f   GuBV4_Raycast.obj
 0001:000018e0       ??__EmaxV3Error@vecMathTests@aos@physx@@YAXXZ 00000001800028e0 f   GuBV4_Raycast.obj
 0001:000018f0       ??__EmaxV4Error@vecMathTests@aos@physx@@YAXXZ 00000001800028f0 f   GuBV4_Raycast.obj
 0001:00001900       ??__EminFError@vecMathTests@aos@physx@@YAXXZ 0000000180002900 f   GuBV4_Raycast.obj
 0001:00001910       ??__EminV3Error@vecMathTests@aos@physx@@YAXXZ 0000000180002910 f   GuBV4_Raycast.obj
 0001:00001920       ??__EminV4Error@vecMathTests@aos@physx@@YAXXZ 0000000180002920 f   GuBV4_Raycast.obj
 0001:00001930       ??__EsignMask@?A0x290a4587@@YAXXZ 0000000180002930 f   GuBV4_Raycast.obj
 0001:00001970       ??__Etwos@?A0x290a4587@@YAXXZ 0000000180002970 f   GuBV4_Raycast.obj
 0001:00001980       ??__Ezeroes@?A0x290a4587@@YAXXZ 0000000180002980 f   GuBV4_Raycast.obj
 0001:00001990       ??__EmaxFError@vecMathTests@aos@physx@@YAXXZ 0000000180002990 f   GuBV4_SphereOverlap.obj
 0001:000019a0       ??__EmaxV3Error@vecMathTests@aos@physx@@YAXXZ 00000001800029a0 f   GuBV4_SphereOverlap.obj
 0001:000019b0       ??__EmaxV4Error@vecMathTests@aos@physx@@YAXXZ 00000001800029b0 f   GuBV4_SphereOverlap.obj
 0001:000019c0       ??__EminFError@vecMathTests@aos@physx@@YAXXZ 00000001800029c0 f   GuBV4_SphereOverlap.obj
 0001:000019d0       ??__EminV3Error@vecMathTests@aos@physx@@YAXXZ 00000001800029d0 f   GuBV4_SphereOverlap.obj
 0001:000019e0       ??__EminV4Error@vecMathTests@aos@physx@@YAXXZ 00000001800029e0 f   GuBV4_SphereOverlap.obj
 0001:000019f0       ??__EepsFloat4@?A0x68e6d9ae@@YAXXZ 00000001800029f0 f   GuBV4_SphereSweep.obj
 0001:00001a00       ??__EepsInflateFloat4@?A0x68e6d9ae@@YAXXZ 0000000180002a00 f   GuBV4_SphereSweep.obj
 0001:00001a10       ??__EmaxFError@vecMathTests@aos@physx@@YAXXZ 0000000180002a10 f   GuBV4_SphereSweep.obj
 0001:00001a20       ??__EmaxV3Error@vecMathTests@aos@physx@@YAXXZ 0000000180002a20 f   GuBV4_SphereSweep.obj
 0001:00001a30       ??__EmaxV4Error@vecMathTests@aos@physx@@YAXXZ 0000000180002a30 f   GuBV4_SphereSweep.obj
 0001:00001a40       ??__EminFError@vecMathTests@aos@physx@@YAXXZ 0000000180002a40 f   GuBV4_SphereSweep.obj
 0001:00001a50       ??__EminV3Error@vecMathTests@aos@physx@@YAXXZ 0000000180002a50 f   GuBV4_SphereSweep.obj
 0001:00001a60       ??__EminV4Error@vecMathTests@aos@physx@@YAXXZ 0000000180002a60 f   GuBV4_SphereSweep.obj
 0001:00001a70       ??__EsignMask@?A0x68e6d9ae@@YAXXZ 0000000180002a70 f   GuBV4_SphereSweep.obj
 0001:00001ab0       ??__Etwos@?A0x68e6d9ae@@YAXXZ 0000000180002ab0 f   GuBV4_SphereSweep.obj
 0001:00001ac0       ??__Ezeroes@?A0x68e6d9ae@@YAXXZ 0000000180002ac0 f   GuBV4_SphereSweep.obj
 0001:00001ad0       ??__EmaxFError@vecMathTests@aos@physx@@YAXXZ 0000000180002ad0 f   GuMidphaseBV4.obj
 0001:00001ae0       ??__EmaxV3Error@vecMathTests@aos@physx@@YAXXZ 0000000180002ae0 f   GuMidphaseBV4.obj
 0001:00001af0       ??__EmaxV4Error@vecMathTests@aos@physx@@YAXXZ 0000000180002af0 f   GuMidphaseBV4.obj
 0001:00001b00       ??__EminFError@vecMathTests@aos@physx@@YAXXZ 0000000180002b00 f   GuMidphaseBV4.obj
 0001:00001b10       ??__EminV3Error@vecMathTests@aos@physx@@YAXXZ 0000000180002b10 f   GuMidphaseBV4.obj
 0001:00001b20       ??__EminV4Error@vecMathTests@aos@physx@@YAXXZ 0000000180002b20 f   GuMidphaseBV4.obj
 0001:00001b30       ??__EmaxFError@vecMathTests@aos@physx@@YAXXZ 0000000180002b30 f   GuMeshQuery.obj
 0001:00001b40       ??__EmaxV3Error@vecMathTests@aos@physx@@YAXXZ 0000000180002b40 f   GuMeshQuery.obj
 0001:00001b50       ??__EmaxV4Error@vecMathTests@aos@physx@@YAXXZ 0000000180002b50 f   GuMeshQuery.obj
 0001:00001b60       ??__EminFError@vecMathTests@aos@physx@@YAXXZ 0000000180002b60 f   GuMeshQuery.obj
 0001:00001b70       ??__EminV3Error@vecMathTests@aos@physx@@YAXXZ 0000000180002b70 f   GuMeshQuery.obj
 0001:00001b80       ??__EminV4Error@vecMathTests@aos@physx@@YAXXZ 0000000180002b80 f   GuMeshQuery.obj
 0001:00001b90       ??__EmaxFError@vecMathTests@aos@physx@@YAXXZ 0000000180002b90 f   GuMidphaseRTree.obj
 0001:00001ba0       ??__EmaxV3Error@vecMathTests@aos@physx@@YAXXZ 0000000180002ba0 f   GuMidphaseRTree.obj
 0001:00001bb0       ??__EmaxV4Error@vecMathTests@aos@physx@@YAXXZ 0000000180002bb0 f   GuMidphaseRTree.obj
 0001:00001bc0       ??__EminFError@vecMathTests@aos@physx@@YAXXZ 0000000180002bc0 f   GuMidphaseRTree.obj
 0001:00001bd0       ??__EminV3Error@vecMathTests@aos@physx@@YAXXZ 0000000180002bd0 f   GuMidphaseRTree.obj
 0001:00001be0       ??__EminV4Error@vecMathTests@aos@physx@@YAXXZ 0000000180002be0 f   GuMidphaseRTree.obj
 0001:00001bf0       ??__EmaxFError@vecMathTests@aos@physx@@YAXXZ 0000000180002bf0 f   GuOverlapTestsMesh.obj
 0001:00001c00       ??__EmaxV3Error@vecMathTests@aos@physx@@YAXXZ 0000000180002c00 f   GuOverlapTestsMesh.obj
 0001:00001c10       ??__EmaxV4Error@vecMathTests@aos@physx@@YAXXZ 0000000180002c10 f   GuOverlapTestsMesh.obj
 0001:00001c20       ??__EminFError@vecMathTests@aos@physx@@YAXXZ 0000000180002c20 f   GuOverlapTestsMesh.obj
 0001:00001c30       ??__EminV3Error@vecMathTests@aos@physx@@YAXXZ 0000000180002c30 f   GuOverlapTestsMesh.obj
 0001:00001c40       ??__EminV4Error@vecMathTests@aos@physx@@YAXXZ 0000000180002c40 f   GuOverlapTestsMesh.obj
 0001:00001c50       ??__EmaxFError@vecMathTests@aos@physx@@YAXXZ 0000000180002c50 f   GuRTree.obj
 0001:00001c60       ??__EmaxV3Error@vecMathTests@aos@physx@@YAXXZ 0000000180002c60 f   GuRTree.obj
 0001:00001c70       ??__EmaxV4Error@vecMathTests@aos@physx@@YAXXZ 0000000180002c70 f   GuRTree.obj
 0001:00001c80       ??__EminFError@vecMathTests@aos@physx@@YAXXZ 0000000180002c80 f   GuRTree.obj
 0001:00001c90       ??__EminV3Error@vecMathTests@aos@physx@@YAXXZ 0000000180002c90 f   GuRTree.obj
 0001:00001ca0       ??__EminV4Error@vecMathTests@aos@physx@@YAXXZ 0000000180002ca0 f   GuRTree.obj
 0001:00001cb0       ??__EepsFloat4@?A0x74f3fcfd@@YAXXZ 0000000180002cb0 f   GuRTreeQueries.obj
 0001:00001cc0       ??__EepsInflateFloat4@?A0x74f3fcfd@@YAXXZ 0000000180002cc0 f   GuRTreeQueries.obj
 0001:00001cd0       ??__EmaxFError@vecMathTests@aos@physx@@YAXXZ 0000000180002cd0 f   GuRTreeQueries.obj
 0001:00001ce0       ??__EmaxV3Error@vecMathTests@aos@physx@@YAXXZ 0000000180002ce0 f   GuRTreeQueries.obj
 0001:00001cf0       ??__EmaxV4Error@vecMathTests@aos@physx@@YAXXZ 0000000180002cf0 f   GuRTreeQueries.obj
 0001:00001d00       ??__EminFError@vecMathTests@aos@physx@@YAXXZ 0000000180002d00 f   GuRTreeQueries.obj
 0001:00001d10       ??__EminV3Error@vecMathTests@aos@physx@@YAXXZ 0000000180002d10 f   GuRTreeQueries.obj
 0001:00001d20       ??__EminV4Error@vecMathTests@aos@physx@@YAXXZ 0000000180002d20 f   GuRTreeQueries.obj
 0001:00001d30       ??__EsignMask@?A0x74f3fcfd@@YAXXZ 0000000180002d30 f   GuRTreeQueries.obj
 0001:00001d70       ??__Etwos@?A0x74f3fcfd@@YAXXZ 0000000180002d70 f   GuRTreeQueries.obj
 0001:00001d80       ??__Ezeroes@?A0x74f3fcfd@@YAXXZ 0000000180002d80 f   GuRTreeQueries.obj
 0001:00001d90       ??__EmaxFError@vecMathTests@aos@physx@@YAXXZ 0000000180002d90 f   GuSweepsMesh.obj
 0001:00001da0       ??__EmaxV3Error@vecMathTests@aos@physx@@YAXXZ 0000000180002da0 f   GuSweepsMesh.obj
 0001:00001db0       ??__EmaxV4Error@vecMathTests@aos@physx@@YAXXZ 0000000180002db0 f   GuSweepsMesh.obj
 0001:00001dc0       ??__EminFError@vecMathTests@aos@physx@@YAXXZ 0000000180002dc0 f   GuSweepsMesh.obj
 0001:00001dd0       ??__EminV3Error@vecMathTests@aos@physx@@YAXXZ 0000000180002dd0 f   GuSweepsMesh.obj
 0001:00001de0       ??__EminV4Error@vecMathTests@aos@physx@@YAXXZ 0000000180002de0 f   GuSweepsMesh.obj
 0001:00001df0       ??__EmaxFError@vecMathTests@aos@physx@@YAXXZ 0000000180002df0 f   GuTriangleMesh.obj
 0001:00001e00       ??__EmaxV3Error@vecMathTests@aos@physx@@YAXXZ 0000000180002e00 f   GuTriangleMesh.obj
 0001:00001e10       ??__EmaxV4Error@vecMathTests@aos@physx@@YAXXZ 0000000180002e10 f   GuTriangleMesh.obj
 0001:00001e20       ??__EminFError@vecMathTests@aos@physx@@YAXXZ 0000000180002e20 f   GuTriangleMesh.obj
 0001:00001e30       ??__EminV3Error@vecMathTests@aos@physx@@YAXXZ 0000000180002e30 f   GuTriangleMesh.obj
 0001:00001e40       ??__EminV4Error@vecMathTests@aos@physx@@YAXXZ 0000000180002e40 f   GuTriangleMesh.obj
 0001:00001e50       ??__EmaxFError@vecMathTests@aos@physx@@YAXXZ 0000000180002e50 f   GuTriangleMeshBV4.obj
 0001:00001e60       ??__EmaxV3Error@vecMathTests@aos@physx@@YAXXZ 0000000180002e60 f   GuTriangleMeshBV4.obj
 0001:00001e70       ??__EmaxV4Error@vecMathTests@aos@physx@@YAXXZ 0000000180002e70 f   GuTriangleMeshBV4.obj
 0001:00001e80       ??__EminFError@vecMathTests@aos@physx@@YAXXZ 0000000180002e80 f   GuTriangleMeshBV4.obj
 0001:00001e90       ??__EminV3Error@vecMathTests@aos@physx@@YAXXZ 0000000180002e90 f   GuTriangleMeshBV4.obj
 0001:00001ea0       ??__EminV4Error@vecMathTests@aos@physx@@YAXXZ 0000000180002ea0 f   GuTriangleMeshBV4.obj
 0001:00001eb0       ??__EmaxFError@vecMathTests@aos@physx@@YAXXZ 0000000180002eb0 f   GuTriangleMeshRTree.obj
 0001:00001ec0       ??__EmaxV3Error@vecMathTests@aos@physx@@YAXXZ 0000000180002ec0 f   GuTriangleMeshRTree.obj
 0001:00001ed0       ??__EmaxV4Error@vecMathTests@aos@physx@@YAXXZ 0000000180002ed0 f   GuTriangleMeshRTree.obj
 0001:00001ee0       ??__EminFError@vecMathTests@aos@physx@@YAXXZ 0000000180002ee0 f   GuTriangleMeshRTree.obj
 0001:00001ef0       ??__EminV3Error@vecMathTests@aos@physx@@YAXXZ 0000000180002ef0 f   GuTriangleMeshRTree.obj
 0001:00001f00       ??__EminV4Error@vecMathTests@aos@physx@@YAXXZ 0000000180002f00 f   GuTriangleMeshRTree.obj
 0001:00001f10       ??__EmaxFError@vecMathTests@aos@physx@@YAXXZ 0000000180002f10 f   GuBV32.obj
 0001:00001f20       ??__EmaxV3Error@vecMathTests@aos@physx@@YAXXZ 0000000180002f20 f   GuBV32.obj
 0001:00001f30       ??__EmaxV4Error@vecMathTests@aos@physx@@YAXXZ 0000000180002f30 f   GuBV32.obj
 0001:00001f40       ??__EminFError@vecMathTests@aos@physx@@YAXXZ 0000000180002f40 f   GuBV32.obj
 0001:00001f50       ??__EminV3Error@vecMathTests@aos@physx@@YAXXZ 0000000180002f50 f   GuBV32.obj
 0001:00001f60       ??__EminV4Error@vecMathTests@aos@physx@@YAXXZ 0000000180002f60 f   GuBV32.obj
 0001:00001f70       ??__EmaxFError@vecMathTests@aos@physx@@YAXXZ 0000000180002f70 f   GuBV32Build.obj
 0001:00001f80       ??__EmaxV3Error@vecMathTests@aos@physx@@YAXXZ 0000000180002f80 f   GuBV32Build.obj
 0001:00001f90       ??__EmaxV4Error@vecMathTests@aos@physx@@YAXXZ 0000000180002f90 f   GuBV32Build.obj
 0001:00001fa0       ??__EminFError@vecMathTests@aos@physx@@YAXXZ 0000000180002fa0 f   GuBV32Build.obj
 0001:00001fb0       ??__EminV3Error@vecMathTests@aos@physx@@YAXXZ 0000000180002fb0 f   GuBV32Build.obj
 0001:00001fc0       ??__EminV4Error@vecMathTests@aos@physx@@YAXXZ 0000000180002fc0 f   GuBV32Build.obj
 0001:00001fd0       ??__EmaxFError@vecMathTests@aos@physx@@YAXXZ 0000000180002fd0 f   GuTetrahedronMesh.obj
 0001:00001fe0       ??__EmaxV3Error@vecMathTests@aos@physx@@YAXXZ 0000000180002fe0 f   GuTetrahedronMesh.obj
 0001:00001ff0       ??__EmaxV4Error@vecMathTests@aos@physx@@YAXXZ 0000000180002ff0 f   GuTetrahedronMesh.obj
 0001:00002000       ??__EminFError@vecMathTests@aos@physx@@YAXXZ 0000000180003000 f   GuTetrahedronMesh.obj
 0001:00002010       ??__EminV3Error@vecMathTests@aos@physx@@YAXXZ 0000000180003010 f   GuTetrahedronMesh.obj
 0001:00002020       ??__EminV4Error@vecMathTests@aos@physx@@YAXXZ 0000000180003020 f   GuTetrahedronMesh.obj
 0001:00002030       ??__EmaxFError@vecMathTests@aos@physx@@YAXXZ 0000000180003030 f   GuTetrahedronMeshUtils.obj
 0001:00002040       ??__EmaxV3Error@vecMathTests@aos@physx@@YAXXZ 0000000180003040 f   GuTetrahedronMeshUtils.obj
 0001:00002050       ??__EmaxV4Error@vecMathTests@aos@physx@@YAXXZ 0000000180003050 f   GuTetrahedronMeshUtils.obj
 0001:00002060       ??__EminFError@vecMathTests@aos@physx@@YAXXZ 0000000180003060 f   GuTetrahedronMeshUtils.obj
 0001:00002070       ??__EminV3Error@vecMathTests@aos@physx@@YAXXZ 0000000180003070 f   GuTetrahedronMeshUtils.obj
 0001:00002080       ??__EminV4Error@vecMathTests@aos@physx@@YAXXZ 0000000180003080 f   GuTetrahedronMeshUtils.obj
 0001:00002090       ??__EmaxFError@vecMathTests@aos@physx@@YAXXZ 0000000180003090 f   GuPCMContactBoxBox.obj
 0001:000020a0       ??__EmaxV3Error@vecMathTests@aos@physx@@YAXXZ 00000001800030a0 f   GuPCMContactBoxBox.obj
 0001:000020b0       ??__EmaxV4Error@vecMathTests@aos@physx@@YAXXZ 00000001800030b0 f   GuPCMContactBoxBox.obj
 0001:000020c0       ??__EminFError@vecMathTests@aos@physx@@YAXXZ 00000001800030c0 f   GuPCMContactBoxBox.obj
 0001:000020d0       ??__EminV3Error@vecMathTests@aos@physx@@YAXXZ 00000001800030d0 f   GuPCMContactBoxBox.obj
 0001:000020e0       ??__EminV4Error@vecMathTests@aos@physx@@YAXXZ 00000001800030e0 f   GuPCMContactBoxBox.obj
 0001:000020f0       ??__EmaxFError@vecMathTests@aos@physx@@YAXXZ 00000001800030f0 f   GuPCMContactBoxConvex.obj
 0001:00002100       ??__EmaxV3Error@vecMathTests@aos@physx@@YAXXZ 0000000180003100 f   GuPCMContactBoxConvex.obj
 0001:00002110       ??__EmaxV4Error@vecMathTests@aos@physx@@YAXXZ 0000000180003110 f   GuPCMContactBoxConvex.obj
 0001:00002120       ??__EminFError@vecMathTests@aos@physx@@YAXXZ 0000000180003120 f   GuPCMContactBoxConvex.obj
 0001:00002130       ??__EminV3Error@vecMathTests@aos@physx@@YAXXZ 0000000180003130 f   GuPCMContactBoxConvex.obj
 0001:00002140       ??__EminV4Error@vecMathTests@aos@physx@@YAXXZ 0000000180003140 f   GuPCMContactBoxConvex.obj
 0001:00002150       ??__EmaxFError@vecMathTests@aos@physx@@YAXXZ 0000000180003150 f   GuPCMContactCapsuleBox.obj
 0001:00002160       ??__EmaxV3Error@vecMathTests@aos@physx@@YAXXZ 0000000180003160 f   GuPCMContactCapsuleBox.obj
 0001:00002170       ??__EmaxV4Error@vecMathTests@aos@physx@@YAXXZ 0000000180003170 f   GuPCMContactCapsuleBox.obj
 0001:00002180       ??__EminFError@vecMathTests@aos@physx@@YAXXZ 0000000180003180 f   GuPCMContactCapsuleBox.obj
 0001:00002190       ??__EminV3Error@vecMathTests@aos@physx@@YAXXZ 0000000180003190 f   GuPCMContactCapsuleBox.obj
 0001:000021a0       ??__EminV4Error@vecMathTests@aos@physx@@YAXXZ 00000001800031a0 f   GuPCMContactCapsuleBox.obj
 0001:000021b0       ??__EmaxFError@vecMathTests@aos@physx@@YAXXZ 00000001800031b0 f   GuPCMContactCapsuleCapsule.obj
 0001:000021c0       ??__EmaxV3Error@vecMathTests@aos@physx@@YAXXZ 00000001800031c0 f   GuPCMContactCapsuleCapsule.obj
 0001:000021d0       ??__EmaxV4Error@vecMathTests@aos@physx@@YAXXZ 00000001800031d0 f   GuPCMContactCapsuleCapsule.obj
 0001:000021e0       ??__EminFError@vecMathTests@aos@physx@@YAXXZ 00000001800031e0 f   GuPCMContactCapsuleCapsule.obj
 0001:000021f0       ??__EminV3Error@vecMathTests@aos@physx@@YAXXZ 00000001800031f0 f   GuPCMContactCapsuleCapsule.obj
 0001:00002200       ??__EminV4Error@vecMathTests@aos@physx@@YAXXZ 0000000180003200 f   GuPCMContactCapsuleCapsule.obj
 0001:00002210       ??__EmaxFError@vecMathTests@aos@physx@@YAXXZ 0000000180003210 f   GuPCMContactCapsuleConvex.obj
 0001:00002220       ??__EmaxV3Error@vecMathTests@aos@physx@@YAXXZ 0000000180003220 f   GuPCMContactCapsuleConvex.obj
 0001:00002230       ??__EmaxV4Error@vecMathTests@aos@physx@@YAXXZ 0000000180003230 f   GuPCMContactCapsuleConvex.obj
 0001:00002240       ??__EminFError@vecMathTests@aos@physx@@YAXXZ 0000000180003240 f   GuPCMContactCapsuleConvex.obj
 0001:00002250       ??__EminV3Error@vecMathTests@aos@physx@@YAXXZ 0000000180003250 f   GuPCMContactCapsuleConvex.obj
 0001:00002260       ??__EminV4Error@vecMathTests@aos@physx@@YAXXZ 0000000180003260 f   GuPCMContactCapsuleConvex.obj
 0001:00002270       ??__EmaxFError@vecMathTests@aos@physx@@YAXXZ 0000000180003270 f   GuPCMContactCapsuleHeightField.obj
 0001:00002280       ??__EmaxV3Error@vecMathTests@aos@physx@@YAXXZ 0000000180003280 f   GuPCMContactCapsuleHeightField.obj
 0001:00002290       ??__EmaxV4Error@vecMathTests@aos@physx@@YAXXZ 0000000180003290 f   GuPCMContactCapsuleHeightField.obj
 0001:000022a0       ??__EminFError@vecMathTests@aos@physx@@YAXXZ 00000001800032a0 f   GuPCMContactCapsuleHeightField.obj
 0001:000022b0       ??__EminV3Error@vecMathTests@aos@physx@@YAXXZ 00000001800032b0 f   GuPCMContactCapsuleHeightField.obj
 0001:000022c0       ??__EminV4Error@vecMathTests@aos@physx@@YAXXZ 00000001800032c0 f   GuPCMContactCapsuleHeightField.obj
 0001:000022d0       ??__EmaxFError@vecMathTests@aos@physx@@YAXXZ 00000001800032d0 f   GuPCMContactCapsuleMesh.obj
 0001:000022e0       ??__EmaxV3Error@vecMathTests@aos@physx@@YAXXZ 00000001800032e0 f   GuPCMContactCapsuleMesh.obj
 0001:000022f0       ??__EmaxV4Error@vecMathTests@aos@physx@@YAXXZ 00000001800032f0 f   GuPCMContactCapsuleMesh.obj
 0001:00002300       ??__EminFError@vecMathTests@aos@physx@@YAXXZ 0000000180003300 f   GuPCMContactCapsuleMesh.obj
 0001:00002310       ??__EminV3Error@vecMathTests@aos@physx@@YAXXZ 0000000180003310 f   GuPCMContactCapsuleMesh.obj
 0001:00002320       ??__EminV4Error@vecMathTests@aos@physx@@YAXXZ 0000000180003320 f   GuPCMContactCapsuleMesh.obj
 0001:00002330       ??__EmaxFError@vecMathTests@aos@physx@@YAXXZ 0000000180003330 f   GuPCMContactConvexCommon.obj
 0001:00002340       ??__EmaxV3Error@vecMathTests@aos@physx@@YAXXZ 0000000180003340 f   GuPCMContactConvexCommon.obj
 0001:00002350       ??__EmaxV4Error@vecMathTests@aos@physx@@YAXXZ 0000000180003350 f   GuPCMContactConvexCommon.obj
 0001:00002360       ??__EminFError@vecMathTests@aos@physx@@YAXXZ 0000000180003360 f   GuPCMContactConvexCommon.obj
 0001:00002370       ??__EminV3Error@vecMathTests@aos@physx@@YAXXZ 0000000180003370 f   GuPCMContactConvexCommon.obj
 0001:00002380       ??__EminV4Error@vecMathTests@aos@physx@@YAXXZ 0000000180003380 f   GuPCMContactConvexCommon.obj
 0001:00002390       ??__EmaxFError@vecMathTests@aos@physx@@YAXXZ 0000000180003390 f   GuPCMContactConvexConvex.obj
 0001:000023a0       ??__EmaxV3Error@vecMathTests@aos@physx@@YAXXZ 00000001800033a0 f   GuPCMContactConvexConvex.obj
 0001:000023b0       ??__EmaxV4Error@vecMathTests@aos@physx@@YAXXZ 00000001800033b0 f   GuPCMContactConvexConvex.obj
 0001:000023c0       ??__EminFError@vecMathTests@aos@physx@@YAXXZ 00000001800033c0 f   GuPCMContactConvexConvex.obj
 0001:000023d0       ??__EminV3Error@vecMathTests@aos@physx@@YAXXZ 00000001800033d0 f   GuPCMContactConvexConvex.obj
 0001:000023e0       ??__EminV4Error@vecMathTests@aos@physx@@YAXXZ 00000001800033e0 f   GuPCMContactConvexConvex.obj
 0001:000023f0       ??__EmaxFError@vecMathTests@aos@physx@@YAXXZ 00000001800033f0 f   GuPCMContactConvexHeightField.obj
 0001:00002400       ??__EmaxV3Error@vecMathTests@aos@physx@@YAXXZ 0000000180003400 f   GuPCMContactConvexHeightField.obj
 0001:00002410       ??__EmaxV4Error@vecMathTests@aos@physx@@YAXXZ 0000000180003410 f   GuPCMContactConvexHeightField.obj
 0001:00002420       ??__EminFError@vecMathTests@aos@physx@@YAXXZ 0000000180003420 f   GuPCMContactConvexHeightField.obj
 0001:00002430       ??__EminV3Error@vecMathTests@aos@physx@@YAXXZ 0000000180003430 f   GuPCMContactConvexHeightField.obj
 0001:00002440       ??__EminV4Error@vecMathTests@aos@physx@@YAXXZ 0000000180003440 f   GuPCMContactConvexHeightField.obj
 0001:00002450       ??__EmaxFError@vecMathTests@aos@physx@@YAXXZ 0000000180003450 f   GuPCMContactConvexMesh.obj
 0001:00002460       ??__EmaxV3Error@vecMathTests@aos@physx@@YAXXZ 0000000180003460 f   GuPCMContactConvexMesh.obj
 0001:00002470       ??__EmaxV4Error@vecMathTests@aos@physx@@YAXXZ 0000000180003470 f   GuPCMContactConvexMesh.obj
 0001:00002480       ??__EminFError@vecMathTests@aos@physx@@YAXXZ 0000000180003480 f   GuPCMContactConvexMesh.obj
 0001:00002490       ??__EminV3Error@vecMathTests@aos@physx@@YAXXZ 0000000180003490 f   GuPCMContactConvexMesh.obj
 0001:000024a0       ??__EminV4Error@vecMathTests@aos@physx@@YAXXZ 00000001800034a0 f   GuPCMContactConvexMesh.obj
 0001:000024b0       ??__EmaxFError@vecMathTests@aos@physx@@YAXXZ 00000001800034b0 f   GuPCMContactGenBoxConvex.obj
 0001:000024c0       ??__EmaxV3Error@vecMathTests@aos@physx@@YAXXZ 00000001800034c0 f   GuPCMContactGenBoxConvex.obj
 0001:000024d0       ??__EmaxV4Error@vecMathTests@aos@physx@@YAXXZ 00000001800034d0 f   GuPCMContactGenBoxConvex.obj
 0001:000024e0       ??__EminFError@vecMathTests@aos@physx@@YAXXZ 00000001800034e0 f   GuPCMContactGenBoxConvex.obj
 0001:000024f0       ??__EminV3Error@vecMathTests@aos@physx@@YAXXZ 00000001800034f0 f   GuPCMContactGenBoxConvex.obj
 0001:00002500       ??__EminV4Error@vecMathTests@aos@physx@@YAXXZ 0000000180003500 f   GuPCMContactGenBoxConvex.obj
 0001:00002510       ??__EmaxFError@vecMathTests@aos@physx@@YAXXZ 0000000180003510 f   GuPCMContactGenSphereCapsule.obj
 0001:00002520       ??__EmaxV3Error@vecMathTests@aos@physx@@YAXXZ 0000000180003520 f   GuPCMContactGenSphereCapsule.obj
 0001:00002530       ??__EmaxV4Error@vecMathTests@aos@physx@@YAXXZ 0000000180003530 f   GuPCMContactGenSphereCapsule.obj
 0001:00002540       ??__EminFError@vecMathTests@aos@physx@@YAXXZ 0000000180003540 f   GuPCMContactGenSphereCapsule.obj
 0001:00002550       ??__EminV3Error@vecMathTests@aos@physx@@YAXXZ 0000000180003550 f   GuPCMContactGenSphereCapsule.obj
 0001:00002560       ??__EminV4Error@vecMathTests@aos@physx@@YAXXZ 0000000180003560 f   GuPCMContactGenSphereCapsule.obj
 0001:00002570       ??__EmaxFError@vecMathTests@aos@physx@@YAXXZ 0000000180003570 f   GuPCMContactPlaneBox.obj
 0001:00002580       ??__EmaxV3Error@vecMathTests@aos@physx@@YAXXZ 0000000180003580 f   GuPCMContactPlaneBox.obj
 0001:00002590       ??__EmaxV4Error@vecMathTests@aos@physx@@YAXXZ 0000000180003590 f   GuPCMContactPlaneBox.obj
 0001:000025a0       ??__EminFError@vecMathTests@aos@physx@@YAXXZ 00000001800035a0 f   GuPCMContactPlaneBox.obj
 0001:000025b0       ??__EminV3Error@vecMathTests@aos@physx@@YAXXZ 00000001800035b0 f   GuPCMContactPlaneBox.obj
 0001:000025c0       ??__EminV4Error@vecMathTests@aos@physx@@YAXXZ 00000001800035c0 f   GuPCMContactPlaneBox.obj
 0001:000025d0       ??__EmaxFError@vecMathTests@aos@physx@@YAXXZ 00000001800035d0 f   GuPCMContactPlaneCapsule.obj
 0001:000025e0       ??__EmaxV3Error@vecMathTests@aos@physx@@YAXXZ 00000001800035e0 f   GuPCMContactPlaneCapsule.obj
 0001:000025f0       ??__EmaxV4Error@vecMathTests@aos@physx@@YAXXZ 00000001800035f0 f   GuPCMContactPlaneCapsule.obj
 0001:00002600       ??__EminFError@vecMathTests@aos@physx@@YAXXZ 0000000180003600 f   GuPCMContactPlaneCapsule.obj
 0001:00002610       ??__EminV3Error@vecMathTests@aos@physx@@YAXXZ 0000000180003610 f   GuPCMContactPlaneCapsule.obj
 0001:00002620       ??__EminV4Error@vecMathTests@aos@physx@@YAXXZ 0000000180003620 f   GuPCMContactPlaneCapsule.obj
 0001:00002630       ??__EmaxFError@vecMathTests@aos@physx@@YAXXZ 0000000180003630 f   GuPCMContactPlaneConvex.obj
 0001:00002640       ??__EmaxV3Error@vecMathTests@aos@physx@@YAXXZ 0000000180003640 f   GuPCMContactPlaneConvex.obj
 0001:00002650       ??__EmaxV4Error@vecMathTests@aos@physx@@YAXXZ 0000000180003650 f   GuPCMContactPlaneConvex.obj
 0001:00002660       ??__EminFError@vecMathTests@aos@physx@@YAXXZ 0000000180003660 f   GuPCMContactPlaneConvex.obj
 0001:00002670       ??__EminV3Error@vecMathTests@aos@physx@@YAXXZ 0000000180003670 f   GuPCMContactPlaneConvex.obj
 0001:00002680       ??__EminV4Error@vecMathTests@aos@physx@@YAXXZ 0000000180003680 f   GuPCMContactPlaneConvex.obj
 0001:00002690       ??__EmaxFError@vecMathTests@aos@physx@@YAXXZ 0000000180003690 f   GuPCMContactSphereBox.obj
 0001:000026a0       ??__EmaxV3Error@vecMathTests@aos@physx@@YAXXZ 00000001800036a0 f   GuPCMContactSphereBox.obj
 0001:000026b0       ??__EmaxV4Error@vecMathTests@aos@physx@@YAXXZ 00000001800036b0 f   GuPCMContactSphereBox.obj
 0001:000026c0       ??__EminFError@vecMathTests@aos@physx@@YAXXZ 00000001800036c0 f   GuPCMContactSphereBox.obj
 0001:000026d0       ??__EminV3Error@vecMathTests@aos@physx@@YAXXZ 00000001800036d0 f   GuPCMContactSphereBox.obj
 0001:000026e0       ??__EminV4Error@vecMathTests@aos@physx@@YAXXZ 00000001800036e0 f   GuPCMContactSphereBox.obj
 0001:000026f0       ??__EmaxFError@vecMathTests@aos@physx@@YAXXZ 00000001800036f0 f   GuPCMContactSphereCapsule.obj
 0001:00002700       ??__EmaxV3Error@vecMathTests@aos@physx@@YAXXZ 0000000180003700 f   GuPCMContactSphereCapsule.obj
 0001:00002710       ??__EmaxV4Error@vecMathTests@aos@physx@@YAXXZ 0000000180003710 f   GuPCMContactSphereCapsule.obj
 0001:00002720       ??__EminFError@vecMathTests@aos@physx@@YAXXZ 0000000180003720 f   GuPCMContactSphereCapsule.obj
 0001:00002730       ??__EminV3Error@vecMathTests@aos@physx@@YAXXZ 0000000180003730 f   GuPCMContactSphereCapsule.obj
 0001:00002740       ??__EminV4Error@vecMathTests@aos@physx@@YAXXZ 0000000180003740 f   GuPCMContactSphereCapsule.obj
 0001:00002750       ??__EmaxFError@vecMathTests@aos@physx@@YAXXZ 0000000180003750 f   GuPCMContactSphereConvex.obj
 0001:00002760       ??__EmaxV3Error@vecMathTests@aos@physx@@YAXXZ 0000000180003760 f   GuPCMContactSphereConvex.obj
 0001:00002770       ??__EmaxV4Error@vecMathTests@aos@physx@@YAXXZ 0000000180003770 f   GuPCMContactSphereConvex.obj
 0001:00002780       ??__EminFError@vecMathTests@aos@physx@@YAXXZ 0000000180003780 f   GuPCMContactSphereConvex.obj
 0001:00002790       ??__EminV3Error@vecMathTests@aos@physx@@YAXXZ 0000000180003790 f   GuPCMContactSphereConvex.obj
 0001:000027a0       ??__EminV4Error@vecMathTests@aos@physx@@YAXXZ 00000001800037a0 f   GuPCMContactSphereConvex.obj
 0001:000027b0       ??__EmaxFError@vecMathTests@aos@physx@@YAXXZ 00000001800037b0 f   GuPCMContactSphereHeightField.obj
 0001:000027c0       ??__EmaxV3Error@vecMathTests@aos@physx@@YAXXZ 00000001800037c0 f   GuPCMContactSphereHeightField.obj
 0001:000027d0       ??__EmaxV4Error@vecMathTests@aos@physx@@YAXXZ 00000001800037d0 f   GuPCMContactSphereHeightField.obj
 0001:000027e0       ??__EminFError@vecMathTests@aos@physx@@YAXXZ 00000001800037e0 f   GuPCMContactSphereHeightField.obj
 0001:000027f0       ??__EminV3Error@vecMathTests@aos@physx@@YAXXZ 00000001800037f0 f   GuPCMContactSphereHeightField.obj
 0001:00002800       ??__EminV4Error@vecMathTests@aos@physx@@YAXXZ 0000000180003800 f   GuPCMContactSphereHeightField.obj
 0001:00002810       ??__EmaxFError@vecMathTests@aos@physx@@YAXXZ 0000000180003810 f   GuPCMContactSphereMesh.obj
 0001:00002820       ??__EmaxV3Error@vecMathTests@aos@physx@@YAXXZ 0000000180003820 f   GuPCMContactSphereMesh.obj
 0001:00002830       ??__EmaxV4Error@vecMathTests@aos@physx@@YAXXZ 0000000180003830 f   GuPCMContactSphereMesh.obj
 0001:00002840       ??__EminFError@vecMathTests@aos@physx@@YAXXZ 0000000180003840 f   GuPCMContactSphereMesh.obj
 0001:00002850       ??__EminV3Error@vecMathTests@aos@physx@@YAXXZ 0000000180003850 f   GuPCMContactSphereMesh.obj
 0001:00002860       ??__EminV4Error@vecMathTests@aos@physx@@YAXXZ 0000000180003860 f   GuPCMContactSphereMesh.obj
 0001:00002870       ??__EmaxFError@vecMathTests@aos@physx@@YAXXZ 0000000180003870 f   GuPCMContactSpherePlane.obj
 0001:00002880       ??__EmaxV3Error@vecMathTests@aos@physx@@YAXXZ 0000000180003880 f   GuPCMContactSpherePlane.obj
 0001:00002890       ??__EmaxV4Error@vecMathTests@aos@physx@@YAXXZ 0000000180003890 f   GuPCMContactSpherePlane.obj
 0001:000028a0       ??__EminFError@vecMathTests@aos@physx@@YAXXZ 00000001800038a0 f   GuPCMContactSpherePlane.obj
